libdmrconf.so.0:_Z10align_addrjj
libdmrconf.so.0:_Z10align_sizejj
libdmrconf.so.0:_Z10dec_to_octt
libdmrconf.so.0:_Z10oct_to_dect
libdmrconf.so.0:_Z11decode_utf8PKhmt
libdmrconf.so.0:_Z11encode_utf8PhRK7QStringmt
libdmrconf.so.0:_Z12decode_asciiPKhmt
libdmrconf.so.0:_Z12encode_asciiPhRK7QStringmt
libdmrconf.so.0:_Z13aprsicon2nameN10APRSSystem4IconE
libdmrconf.so.0:_Z13code2aprsiconcc
libdmrconf.so.0:_Z13name2aprsiconRK7QString
libdmrconf.so.0:_Z14decode_unicodePKtmt
libdmrconf.so.0:_Z14encode_unicodePtRK7QStringmt
libdmrconf.so.0:_Z14validDMRNumberRK7QString
libdmrconf.so.0:_Z15aprsicon2configN10APRSSystem4IconE
libdmrconf.so.0:_Z15decode_dtmf_binPKhih
libdmrconf.so.0:_Z15encode_dtmf_binRK7QStringPhih
libdmrconf.so.0:_Z15validDTMFNumberRK7QString
libdmrconf.so.0:_Z16decode_frequencyj
libdmrconf.so.0:_Z16encode_frequencyd
libdmrconf.so.0:_Z17aprsicon2iconcodeN10APRSSystem4IconE
libdmrconf.so.0:_Z17decode_dmr_id_bcdPKh
libdmrconf.so.0:_Z17decode_dmr_id_binPKh
libdmrconf.so.0:_Z17encode_dmr_id_bcdPhj
libdmrconf.so.0:_Z17encode_dmr_id_binPhj
libdmrconf.so.0:_Z18aprsicon2tablecodeN10APRSSystem4IconE
libdmrconf.so.0:_Z18decode_dtmf_bcd_bePKhi
libdmrconf.so.0:_Z18encode_dtmf_bcd_beRK7QStringPhih
libdmrconf.so.0:_Z20decode_dmr_id_bcd_lePKh
libdmrconf.so.0:_Z20encode_dmr_id_bcd_lePhj
libdmrconf.so.0:_Z23decode_ctcss_tone_tablet
libdmrconf.so.0:_Z23encode_ctcss_tone_tableN9Signaling4CodeE
libdmrconf.so.0:_Z7deg2locRK14QGeoCoordinate
libdmrconf.so.0:_Z7levDistRK7QStringS1_N2Qt15CaseSensitivityE
libdmrconf.so.0:_Z7loc2degRK7QString
libdmrconf.so.0:_ZN10APRSSystem10setMessageERK7QString
libdmrconf.so.0:_ZN10APRSSystem11qt_metacallEN11QMetaObject4CallEiPPv
libdmrconf.so.0:_ZN10APRSSystem11qt_metacastEPKc
libdmrconf.so.0:_ZN10APRSSystem14setDestinationERK7QStringj
libdmrconf.so.0:_ZN10APRSSystem16setRevertChannelEP9FMChannel
libdmrconf.so.0:_ZN10APRSSystem19setAnytoneExtensionEP30AnytoneFMAPRSSettingsExtension
libdmrconf.so.0:_ZN10APRSSystem4copyERK10ConfigItem
libdmrconf.so.0:_ZN10APRSSystem5parseERKN4YAML4NodeERN10ConfigItem7ContextERK10ErrorStack
libdmrconf.so.0:_ZN10APRSSystem6revertEv
libdmrconf.so.0:_ZN10APRSSystem7setIconENS_4IconE
libdmrconf.so.0:_ZN10APRSSystem7setPathERK7QString
libdmrconf.so.0:_ZN10APRSSystem8populateERN4YAML4NodeERKN10ConfigItem7ContextERK10ErrorStack
libdmrconf.so.0:_ZN10APRSSystem9serializeERKN10ConfigItem7ContextERK10ErrorStack
libdmrconf.so.0:_ZN10APRSSystem9setRevertEP18FMChannelReference
libdmrconf.so.0:_ZN10APRSSystem9setSourceERK7QStringj
libdmrconf.so.0:_ZN10APRSSystemC1EP7QObject
libdmrconf.so.0:_ZN10APRSSystemC1ERK7QStringP9FMChannelS2_jS2_jS2_NS_4IconES2_jP7QObject
libdmrconf.so.0:_ZN10APRSSystemC2EP7QObject
libdmrconf.so.0:_ZN10APRSSystemC2ERK7QStringP9FMChannelS2_jS2_jS2_NS_4IconES2_jP7QObject
libdmrconf.so.0:_ZN10AddressMap3addEjji
libdmrconf.so.0:_ZN10AddressMap3remEj
libdmrconf.so.0:_ZN10AddressMap5clearEv
libdmrconf.so.0:_ZN10AddressMapC1ERKS_
libdmrconf.so.0:_ZN10AddressMapC1Ev
libdmrconf.so.0:_ZN10AddressMapC2ERKS_
libdmrconf.so.0:_ZN10AddressMapC2Ev
libdmrconf.so.0:_ZN10AddressMapaSERKS_
libdmrconf.so.0:_ZN10CSVHandler10handleZoneExRK7QStringbRK5QListIxExxRS0_
libdmrconf.so.0:_ZN10CSVHandler11qt_metacallEN11QMetaObject4CallEiPPv
libdmrconf.so.0:_ZN10CSVHandler11qt_metacastEPKc
libdmrconf.so.0:_ZN10CSVHandler12handleSpeechEbxxR7QString
libdmrconf.so.0:_ZN10CSVHandler13handleRadioIdERK5QListIxExxR7QString
libdmrconf.so.0:_ZN10CSVHandler14handleMicLevelEjxxR7QString
libdmrconf.so.0:_ZN10CSVHandler14handleScanListExRK7QStringxxxRK5QListIxExxRS0_
libdmrconf.so.0:_ZN10CSVHandler15handleGPSSystemExRK7QStringxxxxxRS0_
libdmrconf.so.0:_ZN10CSVHandler15handleGroupListExRK7QStringRK5QListIxExxRS0_
libdmrconf.so.0:_ZN10CSVHandler15handleRadioNameERK7QStringxxRS0_
libdmrconf.so.0:_ZN10CSVHandler16handleAPRSSystemExRK7QStringxxS2_jS2_jS2_S2_S2_xxRS0_
libdmrconf.so.0:_ZN10CSVHandler16handleIntroLine1ERK7QStringxxRS0_
libdmrconf.so.0:_ZN10CSVHandler16handleIntroLine2ERK7QStringxxRS0_
libdmrconf.so.0:_ZN10CSVHandler17handleDTMFContactExRK7QStringS2_bxxRS0_
libdmrconf.so.0:_ZN10CSVHandler17handleRoamingZoneExRK7QStringRK5QListIxExxRS0_
libdmrconf.so.0:_ZN10CSVHandler19handleAnalogChannelExRK7QStringddN7Channel5PowerExxxbN9FMChannel5AdmitExN9Signaling4CodeES8_NS5_9BandwidthExxRS0_
libdmrconf.so.0:_ZN10CSVHandler20handleDigitalChannelExRK7QStringddN7Channel5PowerExxbN10DMRChannel5AdmitExNS5_8TimeSlotExxxxxxxRS0_
libdmrconf.so.0:_ZN10CSVHandler20handleDigitalContactExRK7QStringN10DMRContact4TypeExbxxRS0_
libdmrconf.so.0:_ZN10CSVHandlerC1EP7QObject
libdmrconf.so.0:_ZN10CSVHandlerC2EP7QObject
libdmrconf.so.0:_ZN10CSVHandlerD0Ev
libdmrconf.so.0:_ZN10CSVHandlerD1Ev
libdmrconf.so.0:_ZN10CSVHandlerD2Ev
libdmrconf.so.0:_ZN10CallsignDB11qt_metacallEN11QMetaObject4CallEiPPv
libdmrconf.so.0:_ZN10CallsignDB11qt_metacastEPKc
libdmrconf.so.0:_ZN10CallsignDB9Selection13setCountLimitEm
libdmrconf.so.0:_ZN10CallsignDB9Selection15clearCountLimitEv
libdmrconf.so.0:_ZN10CallsignDB9SelectionC1ERKS0_
libdmrconf.so.0:_ZN10CallsignDB9SelectionC1El
libdmrconf.so.0:_ZN10CallsignDB9SelectionC2ERKS0_
libdmrconf.so.0:_ZN10CallsignDB9SelectionC2El
libdmrconf.so.0:_ZN10CallsignDBC1EP7QObject
libdmrconf.so.0:_ZN10CallsignDBC2EP7QObject
libdmrconf.so.0:_ZN10CallsignDBD0Ev
libdmrconf.so.0:_ZN10CallsignDBD1Ev
libdmrconf.so.0:_ZN10CallsignDBD2Ev
libdmrconf.so.0:_ZN10ConfigCopy4copyEP10ConfigItemRK10ErrorStack
libdmrconf.so.0:_ZN10ConfigItem10beginClearEv
libdmrconf.so.0:_ZN10ConfigItem11qt_metacallEN11QMetaObject4CallEiPPv
libdmrconf.so.0:_ZN10ConfigItem11qt_metacastEPKc
libdmrconf.so.0:_ZN10ConfigItem13allocateChildER13QMetaPropertyRKN4YAML4NodeERKNS_7ContextERK10ErrorStack
libdmrconf.so.0:_ZN10ConfigItem4copyERKS_
libdmrconf.so.0:_ZN10ConfigItem4linkERKN4YAML4NodeERKNS_7ContextERK10ErrorStack
libdmrconf.so.0:_ZN10ConfigItem5clearEv
libdmrconf.so.0:_ZN10ConfigItem5labelERNS_7ContextERK10ErrorStack
libdmrconf.so.0:_ZN10ConfigItem5parseERKN4YAML4NodeERNS_7ContextERK10ErrorStack
libdmrconf.so.0:_ZN10ConfigItem7Context10setVersionERK7QString
libdmrconf.so.0:_ZN10ConfigItem7Context3addERK7QStringP12ConfigObject
libdmrconf.so.0:_ZN10ConfigItem7Context6getTagERK7QStringS3_P12ConfigObject
libdmrconf.so.0:_ZN10ConfigItem7Context6getTagERK7QStringS3_S3_
libdmrconf.so.0:_ZN10ConfigItem7Context6hasTagERK7QStringS3_P12ConfigObject
libdmrconf.so.0:_ZN10ConfigItem7Context6hasTagERK7QStringS3_S3_
libdmrconf.so.0:_ZN10ConfigItem7Context6setTagERK7QStringS3_S3_P12ConfigObject
libdmrconf.so.0:_ZN10ConfigItem7ContextC1Ev
libdmrconf.so.0:_ZN10ConfigItem7ContextC2Ev
libdmrconf.so.0:_ZN10ConfigItem7ContextD0Ev
libdmrconf.so.0:_ZN10ConfigItem7ContextD1Ev
libdmrconf.so.0:_ZN10ConfigItem7ContextD2Ev
libdmrconf.so.0:_ZN10ConfigItem8endClearEv
libdmrconf.so.0:_ZN10ConfigItem8modifiedEPS_
libdmrconf.so.0:_ZN10ConfigItem8populateERN4YAML4NodeERKNS_7ContextERK10ErrorStack
libdmrconf.so.0:_ZN10ConfigItem9serializeERKNS_7ContextERK10ErrorStack
libdmrconf.so.0:_ZN10ConfigItemC1EP7QObject
libdmrconf.so.0:_ZN10ConfigItemC2EP7QObject
libdmrconf.so.0:_ZN10DMRChannel10setAPRSObjEP17PositioningSystem
libdmrconf.so.0:_ZN10DMRChannel10setContactEP19DMRContactReference
libdmrconf.so.0:_ZN10DMRChannel10setRadioIdEP19DMRRadioIDReference
libdmrconf.so.0:_ZN10DMRChannel10setRoamingEP20RoamingZoneReference
libdmrconf.so.0:_ZN10DMRChannel11qt_metacallEN11QMetaObject4CallEiPPv
libdmrconf.so.0:_ZN10DMRChannel11qt_metacastEPKc
libdmrconf.so.0:_ZN10DMRChannel11setTimeSlotENS_8TimeSlotE
libdmrconf.so.0:_ZN10DMRChannel12setColorCodeEj
libdmrconf.so.0:_ZN10DMRChannel12setGroupListEP18GroupListReference
libdmrconf.so.0:_ZN10DMRChannel13setRadioIdObjEP10DMRRadioID
libdmrconf.so.0:_ZN10DMRChannel14setRoamingZoneEP11RoamingZone
libdmrconf.so.0:_ZN10DMRChannel15setGroupListObjEP11RXGroupList
libdmrconf.so.0:_ZN10DMRChannel15setTXContactObjEP10DMRContact
libdmrconf.so.0:_ZN10DMRChannel22setCommercialExtensionEP26CommercialChannelExtension
libdmrconf.so.0:_ZN10DMRChannel26setAnytoneChannelExtensionEP26AnytoneDMRChannelExtension
libdmrconf.so.0:_ZN10DMRChannel4aprsEv
libdmrconf.so.0:_ZN10DMRChannel5clearEv
libdmrconf.so.0:_ZN10DMRChannel7contactEv
libdmrconf.so.0:_ZN10DMRChannel7radioIdEv
libdmrconf.so.0:_ZN10DMRChannel7roamingEv
libdmrconf.so.0:_ZN10DMRChannel7setAPRSEP26PositioningSystemReference
libdmrconf.so.0:_ZN10DMRChannel8setAdmitENS_5AdmitE
libdmrconf.so.0:_ZN10DMRChannel9groupListEv
libdmrconf.so.0:_ZN10DMRChannel9serializeERKN10ConfigItem7ContextERK10ErrorStack
libdmrconf.so.0:_ZN10DMRChannelC1EP7QObject
libdmrconf.so.0:_ZN10DMRChannelC1ERKS_P7QObject
libdmrconf.so.0:_ZN10DMRChannelC2EP7QObject
libdmrconf.so.0:_ZN10DMRChannelC2ERKS_P7QObject
libdmrconf.so.0:_ZN10DMRContact11qt_metacallEN11QMetaObject4CallEiPPv
libdmrconf.so.0:_ZN10DMRContact11qt_metacastEPKc
libdmrconf.so.0:_ZN10DMRContact19setAnytoneExtensionEP23AnytoneContactExtension
libdmrconf.so.0:_ZN10DMRContact27setOpenGD77ContactExtensionEP24OpenGD77ContactExtension
libdmrconf.so.0:_ZN10DMRContact5clearEv
libdmrconf.so.0:_ZN10DMRContact7setTypeENS_4TypeE
libdmrconf.so.0:_ZN10DMRContact9serializeERKN10ConfigItem7ContextERK10ErrorStack
libdmrconf.so.0:_ZN10DMRContact9setNumberEj
libdmrconf.so.0:_ZN10DMRContactC1ENS_4TypeERK7QStringjbP7QObject
libdmrconf.so.0:_ZN10DMRContactC1EP7QObject
libdmrconf.so.0:_ZN10DMRContactC2ENS_4TypeERK7QStringjbP7QObject
libdmrconf.so.0:_ZN10DMRContactC2EP7QObject
libdmrconf.so.0:_ZN10DMRRadioID11qt_metacallEN11QMetaObject4CallEiPPv
libdmrconf.so.0:_ZN10DMRRadioID11qt_metacastEPKc
libdmrconf.so.0:_ZN10DMRRadioID4linkERKN4YAML4NodeERKN10ConfigItem7ContextERK10ErrorStack
libdmrconf.so.0:_ZN10DMRRadioID5parseERKN4YAML4NodeERN10ConfigItem7ContextERK10ErrorStack
libdmrconf.so.0:_ZN10DMRRadioID9serializeERKN10ConfigItem7ContextERK10ErrorStack
libdmrconf.so.0:_ZN10DMRRadioID9setNumberEj
libdmrconf.so.0:_ZN10DMRRadioIDC1EP7QObject
libdmrconf.so.0:_ZN10DMRRadioIDC1ERK7QStringjP7QObject
libdmrconf.so.0:_ZN10DMRRadioIDC2EP7QObject
libdmrconf.so.0:_ZN10DMRRadioIDC2ERK7QStringjP7QObject
libdmrconf.so.0:_ZN10ErrorStack13MessageStreamC1ERKS_RK7QStringj
libdmrconf.so.0:_ZN10ErrorStack13MessageStreamC2ERKS_RK7QStringj
libdmrconf.so.0:_ZN10ErrorStack13MessageStreamD0Ev
libdmrconf.so.0:_ZN10ErrorStack13MessageStreamD1Ev
libdmrconf.so.0:_ZN10ErrorStack13MessageStreamD2Ev
libdmrconf.so.0:_ZN10ErrorStack5Stack3refEv
libdmrconf.so.0:_ZN10ErrorStack5Stack4pushERKNS_7MessageE
libdmrconf.so.0:_ZN10ErrorStack5Stack4pushERKS0_
libdmrconf.so.0:_ZN10ErrorStack5Stack5clearEv
libdmrconf.so.0:_ZN10ErrorStack5Stack5unrefEv
libdmrconf.so.0:_ZN10ErrorStack5StackC1Ev
libdmrconf.so.0:_ZN10ErrorStack5StackC2Ev
libdmrconf.so.0:_ZN10ErrorStack7MessageC1ERK7QStringjS3_
libdmrconf.so.0:_ZN10ErrorStack7MessageC1Ev
libdmrconf.so.0:_ZN10ErrorStack7MessageC2ERK7QStringjS3_
libdmrconf.so.0:_ZN10ErrorStack7MessageC2Ev
libdmrconf.so.0:_ZN10ErrorStackC1ERKS_
libdmrconf.so.0:_ZN10ErrorStackC1Ev
libdmrconf.so.0:_ZN10ErrorStackC2ERKS_
libdmrconf.so.0:_ZN10ErrorStackC2Ev
libdmrconf.so.0:_ZN10ErrorStackD1Ev
libdmrconf.so.0:_ZN10ErrorStackD2Ev
libdmrconf.so.0:_ZN10ErrorStackaSERKS_
libdmrconf.so.0:_ZN10GD73Limits11qt_metacallEN11QMetaObject4CallEiPPv
libdmrconf.so.0:_ZN10GD73Limits11qt_metacastEPKc
libdmrconf.so.0:_ZN10GD73LimitsC1EP7QObject
libdmrconf.so.0:_ZN10GD73LimitsC2EP7QObject
libdmrconf.so.0:_ZN10GD77Limits11qt_metacallEN11QMetaObject4CallEiPPv
libdmrconf.so.0:_ZN10GD77Limits11qt_metacastEPKc
libdmrconf.so.0:_ZN10GD77LimitsC1EP7QObject
libdmrconf.so.0:_ZN10GD77LimitsC2EP7QObject
libdmrconf.so.0:_ZN10LogHandler11qt_metacallEN11QMetaObject4CallEiPPv
libdmrconf.so.0:_ZN10LogHandler11qt_metacastEPKc
libdmrconf.so.0:_ZN10LogHandlerC1EP7QObject
libdmrconf.so.0:_ZN10LogHandlerC2EP7QObject
libdmrconf.so.0:_ZN10LogHandlerD0Ev
libdmrconf.so.0:_ZN10LogHandlerD1Ev
libdmrconf.so.0:_ZN10LogHandlerD2Ev
libdmrconf.so.0:_ZN10LogMessageC1ENS_5LevelERK7QStringiS3_
libdmrconf.so.0:_ZN10LogMessageC1ERKS_
libdmrconf.so.0:_ZN10LogMessageC2ENS_5LevelERK7QStringiS3_
libdmrconf.so.0:_ZN10LogMessageC2ERKS_
libdmrconf.so.0:_ZN10LogMessageD0Ev
libdmrconf.so.0:_ZN10LogMessageD1Ev
libdmrconf.so.0:_ZN10LogMessageD2Ev
libdmrconf.so.0:_ZN10RD5RLimits11qt_metacallEN11QMetaObject4CallEiPPv
libdmrconf.so.0:_ZN10RD5RLimits11qt_metacastEPKc
libdmrconf.so.0:_ZN10RD5RLimitsC1EP7QObject
libdmrconf.so.0:_ZN10RD5RLimitsC2EP7QObject
libdmrconf.so.0:_ZN11C7000Device10DescriptorC1ERK13USBDeviceInfohh
libdmrconf.so.0:_ZN11C7000Device10DescriptorC2ERK13USBDeviceInfohh
libdmrconf.so.0:_ZN11C7000Device11qt_metacallEN11QMetaObject4CallEiPPv
libdmrconf.so.0:_ZN11C7000Device11qt_metacastEPKc
libdmrconf.so.0:_ZN11C7000Device13interfaceInfoEv
libdmrconf.so.0:_ZN11C7000Device5closeEv
libdmrconf.so.0:_ZN11C7000Device6PacketC1ERK10QByteArray
libdmrconf.so.0:_ZN11C7000Device6PacketC1EhhhRK10QByteArray
libdmrconf.so.0:_ZN11C7000Device6PacketC1Ev
libdmrconf.so.0:_ZN11C7000Device6PacketC2ERK10QByteArray
libdmrconf.so.0:_ZN11C7000Device6PacketC2EhhhRK10QByteArray
libdmrconf.so.0:_ZN11C7000Device6PacketC2Ev
libdmrconf.so.0:_ZN11C7000Device6detectEb
libdmrconf.so.0:_ZN11C7000Device8sendRecvERKNS_6PacketERS0_RK10ErrorStack
libdmrconf.so.0:_ZN11C7000DeviceC1ERK19USBDeviceDescriptorRK10ErrorStackP7QObject
libdmrconf.so.0:_ZN11C7000DeviceC2ERK19USBDeviceDescriptorRK10ErrorStackP7QObject
libdmrconf.so.0:_ZN11C7000DeviceD0Ev
libdmrconf.so.0:_ZN11C7000DeviceD1Ev
libdmrconf.so.0:_ZN11C7000DeviceD2Ev
libdmrconf.so.0:_ZN11ChannelList11qt_metacallEN11QMetaObject4CallEiPPv
libdmrconf.so.0:_ZN11ChannelList11qt_metacastEPKc
libdmrconf.so.0:_ZN11ChannelList13allocateChildERKN4YAML4NodeERN10ConfigItem7ContextERK10ErrorStack
libdmrconf.so.0:_ZN11ChannelList3addEP12ConfigObjectib
libdmrconf.so.0:_ZN11ChannelListC1EP7QObject
libdmrconf.so.0:_ZN11ChannelListC2EP7QObject
libdmrconf.so.0:_ZN11ChirpReader11processLineERK11QStringListS2_P6ConfigRK10ErrorStack
libdmrconf.so.0:_ZN11ChirpReader11processModeERK7QStringRN11ChirpFormat4ModeERK10ErrorStack
libdmrconf.so.0:_ZN11ChirpReader13processDuplexERK7QStringRN11ChirpFormat6DuplexERK10ErrorStack
libdmrconf.so.0:_ZN11ChirpReader15processPolarityERK7QStringRN11ChirpFormat8PolarityES5_RK10ErrorStack
libdmrconf.so.0:_ZN11ChirpReader15processToneModeERK7QStringRN11ChirpFormat8ToneModeERK10ErrorStack
libdmrconf.so.0:_ZN11ChirpReader16processCrossModeERK7QStringRN11ChirpFormat9CrossModeERK10ErrorStack
libdmrconf.so.0:_ZN11ChirpReader4readER11QTextStreamP6ConfigRK10ErrorStack
libdmrconf.so.0:_ZN11ChirpReader8readLineER11QTextStreamR11QStringListRK10ErrorStack
libdmrconf.so.0:_ZN11ChirpWriter11writeHeaderER11QTextStreamRK10ErrorStack
libdmrconf.so.0:_ZN11ChirpWriter12writeChannelER11QTextStreamiP9FMChannelRK10ErrorStack
libdmrconf.so.0:_ZN11ChirpWriter13encodeSubToneER11QTextStreamP9FMChannelRK10ErrorStack
libdmrconf.so.0:_ZN11ChirpWriter15encodeBandwidthER11QTextStreamP9FMChannelRK10ErrorStack
libdmrconf.so.0:_ZN11ChirpWriter15encodeFrequencyER11QTextStreamP9FMChannelRK10ErrorStack
libdmrconf.so.0:_ZN11ChirpWriter5writeER11QTextStreamP6ConfigRK10ErrorStack
libdmrconf.so.0:_ZN11ConfigMerge5mergeEP6ConfigS1_N18ConfigMergeVisitor12ItemStrategyENS2_11SetStrategyERK10ErrorStack
libdmrconf.so.0:_ZN11ConfigMerge9mergeIntoEP6ConfigS1_N18ConfigMergeVisitor12ItemStrategyENS2_11SetStrategyERK10ErrorStack
libdmrconf.so.0:_ZN11ContactList11qt_metacallEN11QMetaObject4CallEiPPv
libdmrconf.so.0:_ZN11ContactList11qt_metacastEPKc
libdmrconf.so.0:_ZN11ContactList13allocateChildERKN4YAML4NodeERN10ConfigItem7ContextERK10ErrorStack
libdmrconf.so.0:_ZN11ContactList3addEP12ConfigObjectib
libdmrconf.so.0:_ZN11ContactListC1EP7QObject
libdmrconf.so.0:_ZN11ContactListC2EP7QObject
libdmrconf.so.0:_ZN11DFUSEDevice10setAddressEjRK10ErrorStack
libdmrconf.so.0:_ZN11DFUSEDevice10writeBlockEjPKhRK10ErrorStack
libdmrconf.so.0:_ZN11DFUSEDevice15releaseReadLockERK10ErrorStack
libdmrconf.so.0:_ZN11DFUSEDevice5closeEv
libdmrconf.so.0:_ZN11DFUSEDevice8eraseAllERK10ErrorStack
libdmrconf.so.0:_ZN11DFUSEDevice8leaveDFUERK10ErrorStack
libdmrconf.so.0:_ZN11DFUSEDevice9erasePageEjRK10ErrorStack
libdmrconf.so.0:_ZN11DFUSEDevice9readBlockEjPhRK10ErrorStack
libdmrconf.so.0:_ZN11DFUSEDeviceC1ERK19USBDeviceDescriptorRK10ErrorStacktP7QObject
libdmrconf.so.0:_ZN11DFUSEDeviceC2ERK19USBDeviceDescriptorRK10ErrorStacktP7QObject
libdmrconf.so.0:_ZN11DTMFContact11qt_metacallEN11QMetaObject4CallEiPPv
libdmrconf.so.0:_ZN11DTMFContact11qt_metacastEPKc
libdmrconf.so.0:_ZN11DTMFContact5clearEv
libdmrconf.so.0:_ZN11DTMFContact9serializeERKN10ConfigItem7ContextERK10ErrorStack
libdmrconf.so.0:_ZN11DTMFContact9setNumberERK7QString
libdmrconf.so.0:_ZN11DTMFContactC1EP7QObject
libdmrconf.so.0:_ZN11DTMFContactC1ERK7QStringS2_bP7QObject
libdmrconf.so.0:_ZN11DTMFContactC2EP7QObject
libdmrconf.so.0:_ZN11DTMFContactC2ERK7QStringS2_bP7QObject
libdmrconf.so.0:_ZN11DTMFRadioID11qt_metacallEN11QMetaObject4CallEiPPv
libdmrconf.so.0:_ZN11DTMFRadioID11qt_metacastEPKc
libdmrconf.so.0:_ZN11DTMFRadioID9setNumberERK7QString
libdmrconf.so.0:_ZN11DTMFRadioIDC1EP7QObject
libdmrconf.so.0:_ZN11DTMFRadioIDC1ERK7QStringS2_P7QObject
libdmrconf.so.0:_ZN11DTMFRadioIDC2EP7QObject
libdmrconf.so.0:_ZN11DTMFRadioIDC2ERK7QStringS2_P7QObject
libdmrconf.so.0:_ZN11MD390Limits11qt_metacallEN11QMetaObject4CallEiPPv
libdmrconf.so.0:_ZN11MD390Limits11qt_metacastEPKc
libdmrconf.so.0:_ZN11MD390LimitsC1ERKSt16initializer_listISt4pairI9FrequencyS2_EEP7QObject
libdmrconf.so.0:_ZN11MD390LimitsC2ERKSt16initializer_listISt4pairI9FrequencyS2_EEP7QObject
libdmrconf.so.0:_ZN11RXGroupList10addContactEP10DMRContacti
libdmrconf.so.0:_ZN11RXGroupList10onModifiedEv
libdmrconf.so.0:_ZN11RXGroupList10remContactEi
libdmrconf.so.0:_ZN11RXGroupList11qt_metacallEN11QMetaObject4CallEiPPv
libdmrconf.so.0:_ZN11RXGroupList11qt_metacastEPKc
libdmrconf.so.0:_ZN11RXGroupList5clearEv
libdmrconf.so.0:_ZN11RXGroupList8contactsEv
libdmrconf.so.0:_ZN11RXGroupList9serializeERKN10ConfigItem7ContextERK10ErrorStack
libdmrconf.so.0:_ZN11RXGroupListC1EP7QObject
libdmrconf.so.0:_ZN11RXGroupListC1ERK7QStringP7QObject
libdmrconf.so.0:_ZN11RXGroupListC2EP7QObject
libdmrconf.so.0:_ZN11RXGroupListC2ERK7QStringP7QObject
libdmrconf.so.0:_ZN11RXGroupListaSERKS_
libdmrconf.so.0:_ZN11RadioIDList11qt_metacallEN11QMetaObject4CallEiPPv
libdmrconf.so.0:_ZN11RadioIDList11qt_metacastEPKc
libdmrconf.so.0:_ZN11RadioIDList13allocateChildERKN4YAML4NodeERN10ConfigItem7ContextERK10ErrorStack
libdmrconf.so.0:_ZN11RadioIDList3addEP12ConfigObjectib
libdmrconf.so.0:_ZN11RadioIDList5addIdERK7QStringj
libdmrconf.so.0:_ZN11RadioIDList5clearEv
libdmrconf.so.0:_ZN11RadioIDList5delIdEj
libdmrconf.so.0:_ZN11RadioIDListC1EP7QObject
libdmrconf.so.0:_ZN11RadioIDListC2EP7QObject
libdmrconf.so.0:_ZN11RadioLimits11qt_metacallEN11QMetaObject4CallEiPPv
libdmrconf.so.0:_ZN11RadioLimits11qt_metacastEPKc
libdmrconf.so.0:_ZN11RadioLimitsC1ERKSt16initializer_listISt4pairI7QStringP17RadioLimitElementEEP7QObject
libdmrconf.so.0:_ZN11RadioLimitsC1EbP7QObject
libdmrconf.so.0:_ZN11RadioLimitsC2ERKSt16initializer_listISt4pairI7QStringP17RadioLimitElementEEP7QObject
libdmrconf.so.0:_ZN11RadioLimitsC2EbP7QObject
libdmrconf.so.0:_ZN11RoamingZone10addChannelEP14RoamingChanneli
libdmrconf.so.0:_ZN11RoamingZone10remChannelEP14RoamingChannel
libdmrconf.so.0:_ZN11RoamingZone10remChannelEi
libdmrconf.so.0:_ZN11RoamingZone11qt_metacallEN11QMetaObject4CallEiPPv
libdmrconf.so.0:_ZN11RoamingZone11qt_metacastEPKc
libdmrconf.so.0:_ZN11RoamingZone4linkERKN4YAML4NodeERKN10ConfigItem7ContextERK10ErrorStack
libdmrconf.so.0:_ZN11RoamingZone5clearEv
libdmrconf.so.0:_ZN11RoamingZone8channelsEv
libdmrconf.so.0:_ZN11RoamingZone8populateERN4YAML4NodeERKN10ConfigItem7ContextERK10ErrorStack
libdmrconf.so.0:_ZN11RoamingZoneC1EP7QObject
libdmrconf.so.0:_ZN11RoamingZoneC1ERK7QStringP7QObject
libdmrconf.so.0:_ZN11RoamingZoneC2EP7QObject
libdmrconf.so.0:_ZN11RoamingZoneC2ERK7QStringP7QObject
libdmrconf.so.0:_ZN11RoamingZoneaSERKS_
libdmrconf.so.0:_ZN11SMSTemplate10setMessageE7QString
libdmrconf.so.0:_ZN11SMSTemplate11qt_metacallEN11QMetaObject4CallEiPPv
libdmrconf.so.0:_ZN11SMSTemplate11qt_metacastEPKc
libdmrconf.so.0:_ZN11SMSTemplateC1EP7QObject
libdmrconf.so.0:_ZN11SMSTemplateC2EP7QObject
libdmrconf.so.0:_ZN11TyTCodeplug11ZoneElement11fromZoneObjEPK4ZoneRN8Codeplug7ContextE
libdmrconf.so.0:_ZN11TyTCodeplug11ZoneElement14setMemberIndexEjt
libdmrconf.so.0:_ZN11TyTCodeplug11ZoneElement5clearEv
libdmrconf.so.0:_ZN11TyTCodeplug11ZoneElement7setNameERK7QString
libdmrconf.so.0:_ZN11TyTCodeplug11ZoneElementC1EPh
libdmrconf.so.0:_ZN11TyTCodeplug11ZoneElementC1EPhm
libdmrconf.so.0:_ZN11TyTCodeplug11ZoneElementC2EPh
libdmrconf.so.0:_ZN11TyTCodeplug11ZoneElementC2EPhm
libdmrconf.so.0:_ZN11TyTCodeplug11ZoneElementD0Ev
libdmrconf.so.0:_ZN11TyTCodeplug11ZoneElementD1Ev
libdmrconf.so.0:_ZN11TyTCodeplug11ZoneElementD2Ev
libdmrconf.so.0:_ZN11TyTCodeplug11qt_metacallEN11QMetaObject4CallEiPPv
libdmrconf.so.0:_ZN11TyTCodeplug11qt_metacastEPKc
libdmrconf.so.0:_ZN11TyTCodeplug14ChannelElement11setTimeSlotEN10DMRChannel8TimeSlotE
libdmrconf.so.0:_ZN11TyTCodeplug14ChannelElement12enableRXOnlyEb
libdmrconf.so.0:_ZN11TyTCodeplug14ChannelElement12setBandwidthEN9FMChannel9BandwidthE
libdmrconf.so.0:_ZN11TyTCodeplug14ChannelElement12setColorCodeEh
libdmrconf.so.0:_ZN11TyTCodeplug14ChannelElement12setTXTimeOutEj
libdmrconf.so.0:_ZN11TyTCodeplug14ChannelElement13setDTMFDecodeEhb
libdmrconf.so.0:_ZN11TyTCodeplug14ChannelElement14enableAutoScanEb
libdmrconf.so.0:_ZN11TyTCodeplug14ChannelElement14fromChannelObjEPK7ChannelRN8Codeplug7ContextE
libdmrconf.so.0:_ZN11TyTCodeplug14ChannelElement14setPrivacyTypeENS0_11PrivacyTypeE
libdmrconf.so.0:_ZN11TyTCodeplug14ChannelElement14setRXFrequencyEj
libdmrconf.so.0:_ZN11TyTCodeplug14ChannelElement14setRXSignalingEN9Signaling4CodeE
libdmrconf.so.0:_ZN11TyTCodeplug14ChannelElement14setTXFrequencyEj
libdmrconf.so.0:_ZN11TyTCodeplug14ChannelElement14setTXSignalingEN9Signaling4CodeE
libdmrconf.so.0:_ZN11TyTCodeplug14ChannelElement15enableRXGPSInfoEb
libdmrconf.so.0:_ZN11TyTCodeplug14ChannelElement15enableTXGPSInfoEb
libdmrconf.so.0:_ZN11TyTCodeplug14ChannelElement15setContactIndexEt
libdmrconf.so.0:_ZN11TyTCodeplug14ChannelElement15setPrivacyIndexEh
libdmrconf.so.0:_ZN11TyTCodeplug14ChannelElement16enableLoneWorkerEb
libdmrconf.so.0:_ZN11TyTCodeplug14ChannelElement16enableTalkaroundEb
libdmrconf.so.0:_ZN11TyTCodeplug14ChannelElement16setScanListIndexEh
libdmrconf.so.0:_ZN11TyTCodeplug14ChannelElement17setAdmitCriterionENS0_5AdmitE
libdmrconf.so.0:_ZN11TyTCodeplug14ChannelElement17setGroupListIndexEh
libdmrconf.so.0:_ZN11TyTCodeplug14ChannelElement17setRXRefFrequencyEN19TyTChannelExtension12RefFrequencyE
libdmrconf.so.0:_ZN11TyTCodeplug14ChannelElement17setTXRefFrequencyEN19TyTChannelExtension12RefFrequencyE
libdmrconf.so.0:_ZN11TyTCodeplug14ChannelElement18enableDisplayPTTIdEb
libdmrconf.so.0:_ZN11TyTCodeplug14ChannelElement21enableDataCallConfirmEb
libdmrconf.so.0:_ZN11TyTCodeplug14ChannelElement22setTXTimeOutRekeyDelayEh
libdmrconf.so.0:_ZN11TyTCodeplug14ChannelElement23enableEmergencyAlarmACKEb
libdmrconf.so.0:_ZN11TyTCodeplug14ChannelElement23setEmergencySystemIndexEh
libdmrconf.so.0:_ZN11TyTCodeplug14ChannelElement24enablePrivateCallConfirmEb
libdmrconf.so.0:_ZN11TyTCodeplug14ChannelElement25setPositioningSystemIndexEh
libdmrconf.so.0:_ZN11TyTCodeplug14ChannelElement25setRXSignalingSystemIndexEh
libdmrconf.so.0:_ZN11TyTCodeplug14ChannelElement25setTXSignalingSystemIndexEh
libdmrconf.so.0:_ZN11TyTCodeplug14ChannelElement5clearEv
libdmrconf.so.0:_ZN11TyTCodeplug14ChannelElement7setModeENS0_4ModeE
libdmrconf.so.0:_ZN11TyTCodeplug14ChannelElement7setNameERK7QString
libdmrconf.so.0:_ZN11TyTCodeplug14ChannelElement9enableVOXEb
libdmrconf.so.0:_ZN11TyTCodeplug14ChannelElementC1EPh
libdmrconf.so.0:_ZN11TyTCodeplug14ChannelElementC1EPhm
libdmrconf.so.0:_ZN11TyTCodeplug14ChannelElementC2EPh
libdmrconf.so.0:_ZN11TyTCodeplug14ChannelElementC2EPhm
libdmrconf.so.0:_ZN11TyTCodeplug14ChannelElementD0Ev
libdmrconf.so.0:_ZN11TyTCodeplug14ChannelElementD1Ev
libdmrconf.so.0:_ZN11TyTCodeplug14ChannelElementD2Ev
libdmrconf.so.0:_ZN11TyTCodeplug14ContactElement11setCallTypeEN10DMRContact4TypeE
libdmrconf.so.0:_ZN11TyTCodeplug14ContactElement14enableRingToneEb
libdmrconf.so.0:_ZN11TyTCodeplug14ContactElement14fromContactObjEPK10DMRContact
libdmrconf.so.0:_ZN11TyTCodeplug14ContactElement5clearEv
libdmrconf.so.0:_ZN11TyTCodeplug14ContactElement7setNameERK7QString
libdmrconf.so.0:_ZN11TyTCodeplug14ContactElement8setDMRIdEj
libdmrconf.so.0:_ZN11TyTCodeplug14ContactElementC1EPh
libdmrconf.so.0:_ZN11TyTCodeplug14ContactElementC1EPhm
libdmrconf.so.0:_ZN11TyTCodeplug14ContactElementC2EPh
libdmrconf.so.0:_ZN11TyTCodeplug14ContactElementC2EPhm
libdmrconf.so.0:_ZN11TyTCodeplug14ContactElementD0Ev
libdmrconf.so.0:_ZN11TyTCodeplug14ContactElementD1Ev
libdmrconf.so.0:_ZN11TyTCodeplug14ContactElementD2Ev
libdmrconf.so.0:_ZN11TyTCodeplug14MessageElement5clearEv
libdmrconf.so.0:_ZN11TyTCodeplug14MessageElement6decodeERK10ErrorStack
libdmrconf.so.0:_ZN11TyTCodeplug14MessageElement6encodeEP11SMSTemplateRK10ErrorStack
libdmrconf.so.0:_ZN11TyTCodeplug14MessageElement7setTextERK7QString
libdmrconf.so.0:_ZN11TyTCodeplug14MessageElementC1EPh
libdmrconf.so.0:_ZN11TyTCodeplug14MessageElementC1EPhm
libdmrconf.so.0:_ZN11TyTCodeplug14MessageElementC2EPh
libdmrconf.so.0:_ZN11TyTCodeplug14MessageElementC2EPhm
libdmrconf.so.0:_ZN11TyTCodeplug14decodeElementsERN8Codeplug7ContextERK10ErrorStack
libdmrconf.so.0:_ZN11TyTCodeplug14encodeElementsERKN8Codeplug5FlagsERNS0_7ContextERK10ErrorStack
libdmrconf.so.0:_ZN11TyTCodeplug15ScanListElement11setHoldTimeEj
libdmrconf.so.0:_ZN11TyTCodeplug15ScanListElement13toScanListObjERN8Codeplug7ContextE
libdmrconf.so.0:_ZN11TyTCodeplug15ScanListElement14setMemberIndexEjt
libdmrconf.so.0:_ZN11TyTCodeplug15ScanListElement15fromScanListObjEPK8ScanListRN8Codeplug7ContextE
libdmrconf.so.0:_ZN11TyTCodeplug15ScanListElement15linkScanListObjEP8ScanListRN8Codeplug7ContextE
libdmrconf.so.0:_ZN11TyTCodeplug15ScanListElement17setTXChannelIndexEt
libdmrconf.so.0:_ZN11TyTCodeplug15ScanListElement21setPrioritySampleTimeEj
libdmrconf.so.0:_ZN11TyTCodeplug15ScanListElement24setPriorityChannel1IndexEt
libdmrconf.so.0:_ZN11TyTCodeplug15ScanListElement24setPriorityChannel2IndexEt
libdmrconf.so.0:_ZN11TyTCodeplug15ScanListElement5clearEv
libdmrconf.so.0:_ZN11TyTCodeplug15ScanListElement7setNameERK7QString
libdmrconf.so.0:_ZN11TyTCodeplug15ScanListElementC1EPh
libdmrconf.so.0:_ZN11TyTCodeplug15ScanListElementC1EPhm
libdmrconf.so.0:_ZN11TyTCodeplug15ScanListElementC2EPh
libdmrconf.so.0:_ZN11TyTCodeplug15ScanListElementC2EPhm
libdmrconf.so.0:_ZN11TyTCodeplug15ScanListElementD0Ev
libdmrconf.so.0:_ZN11TyTCodeplug15ScanListElementD1Ev
libdmrconf.so.0:_ZN11TyTCodeplug15ScanListElementD2Ev
libdmrconf.so.0:_ZN11TyTCodeplug16GPSSystemElement14toGPSSystemObjEv
libdmrconf.so.0:_ZN11TyTCodeplug16GPSSystemElement16fromGPSSystemObjEP9GPSSystemRN8Codeplug7ContextE
libdmrconf.so.0:_ZN11TyTCodeplug16GPSSystemElement16linkGPSSystemObjEP9GPSSystemRN8Codeplug7ContextE
libdmrconf.so.0:_ZN11TyTCodeplug16GPSSystemElement17setRepeatIntervalEj
libdmrconf.so.0:_ZN11TyTCodeplug16GPSSystemElement21disableRepeatIntervalEv
libdmrconf.so.0:_ZN11TyTCodeplug16GPSSystemElement21setRevertChannelIndexEt
libdmrconf.so.0:_ZN11TyTCodeplug16GPSSystemElement24setRevertChannelSelectedEv
libdmrconf.so.0:_ZN11TyTCodeplug16GPSSystemElement25disableDestinationContactEv
libdmrconf.so.0:_ZN11TyTCodeplug16GPSSystemElement26setDestinationContactIndexEt
libdmrconf.so.0:_ZN11TyTCodeplug16GPSSystemElement5clearEv
libdmrconf.so.0:_ZN11TyTCodeplug16GPSSystemElementC1EPh
libdmrconf.so.0:_ZN11TyTCodeplug16GPSSystemElementC1EPhm
libdmrconf.so.0:_ZN11TyTCodeplug16GPSSystemElementC2EPh
libdmrconf.so.0:_ZN11TyTCodeplug16GPSSystemElementC2EPhm
libdmrconf.so.0:_ZN11TyTCodeplug16GPSSystemElementD0Ev
libdmrconf.so.0:_ZN11TyTCodeplug16GPSSystemElementD1Ev
libdmrconf.so.0:_ZN11TyTCodeplug16GPSSystemElementD2Ev
libdmrconf.so.0:_ZN11TyTCodeplug16GroupListElement14setMemberIndexEjt
libdmrconf.so.0:_ZN11TyTCodeplug16GroupListElement14toGroupListObjERN8Codeplug7ContextE
libdmrconf.so.0:_ZN11TyTCodeplug16GroupListElement16fromGroupListObjEPK11RXGroupListRN8Codeplug7ContextE
libdmrconf.so.0:_ZN11TyTCodeplug16GroupListElement16linkGroupListObjEP11RXGroupListRN8Codeplug7ContextE
libdmrconf.so.0:_ZN11TyTCodeplug16GroupListElement5clearEv
libdmrconf.so.0:_ZN11TyTCodeplug16GroupListElement7setNameERK7QString
libdmrconf.so.0:_ZN11TyTCodeplug16GroupListElementC1EPh
libdmrconf.so.0:_ZN11TyTCodeplug16GroupListElementC1EPhm
libdmrconf.so.0:_ZN11TyTCodeplug16GroupListElementC2EPh
libdmrconf.so.0:_ZN11TyTCodeplug16GroupListElementC2EPhm
libdmrconf.so.0:_ZN11TyTCodeplug16GroupListElementD0Ev
libdmrconf.so.0:_ZN11TyTCodeplug16GroupListElementD1Ev
libdmrconf.so.0:_ZN11TyTCodeplug16GroupListElementD2Ev
libdmrconf.so.0:_ZN11TyTCodeplug16TimestampElement12setTimestampERK9QDateTime
libdmrconf.so.0:_ZN11TyTCodeplug16TimestampElement5clearEv
libdmrconf.so.0:_ZN11TyTCodeplug16TimestampElementC1EPh
libdmrconf.so.0:_ZN11TyTCodeplug16TimestampElementC1EPhm
libdmrconf.so.0:_ZN11TyTCodeplug16TimestampElementC2EPh
libdmrconf.so.0:_ZN11TyTCodeplug16TimestampElementC2EPhm
libdmrconf.so.0:_ZN11TyTCodeplug16TimestampElementD0Ev
libdmrconf.so.0:_ZN11TyTCodeplug16TimestampElementD1Ev
libdmrconf.so.0:_ZN11TyTCodeplug16TimestampElementD2Ev
libdmrconf.so.0:_ZN11TyTCodeplug17EncryptionElement11setBasicKeyEjRK10QByteArray
libdmrconf.so.0:_ZN11TyTCodeplug17EncryptionElement14setEnhancedKeyEjRK10QByteArray
libdmrconf.so.0:_ZN11TyTCodeplug17EncryptionElement17fromCommercialExtEP19CommercialExtensionRN8Codeplug7ContextE
libdmrconf.so.0:_ZN11TyTCodeplug17EncryptionElement17linkCommercialExtEP19CommercialExtensionRN8Codeplug7ContextE
libdmrconf.so.0:_ZN11TyTCodeplug17EncryptionElement19updateCommercialExtERN8Codeplug7ContextE
libdmrconf.so.0:_ZN11TyTCodeplug17EncryptionElement5clearEv
libdmrconf.so.0:_ZN11TyTCodeplug17EncryptionElementC1EPh
libdmrconf.so.0:_ZN11TyTCodeplug17EncryptionElementC1EPhm
libdmrconf.so.0:_ZN11TyTCodeplug17EncryptionElementC2EPh
libdmrconf.so.0:_ZN11TyTCodeplug17EncryptionElementC2EPhm
libdmrconf.so.0:_ZN11TyTCodeplug17EncryptionElementD0Ev
libdmrconf.so.0:_ZN11TyTCodeplug17EncryptionElementD1Ev
libdmrconf.so.0:_ZN11TyTCodeplug17EncryptionElementD2Ev
libdmrconf.so.0:_ZN11TyTCodeplug18MessageBankElement5clearEv
libdmrconf.so.0:_ZN11TyTCodeplug18MessageBankElement6decodeERN8Codeplug7ContextERK10ErrorStack
libdmrconf.so.0:_ZN11TyTCodeplug18MessageBankElement6encodeERN8Codeplug7ContextERKNS1_5FlagsERK10ErrorStack
libdmrconf.so.0:_ZN11TyTCodeplug18MessageBankElementC1EPh
libdmrconf.so.0:_ZN11TyTCodeplug18MessageBankElementC1EPhm
libdmrconf.so.0:_ZN11TyTCodeplug18MessageBankElementC2EPh
libdmrconf.so.0:_ZN11TyTCodeplug18MessageBankElementC2EPhm
libdmrconf.so.0:_ZN11TyTCodeplug19MenuSettingsElement10enableScanEb
libdmrconf.so.0:_ZN11TyTCodeplug19MenuSettingsElement10fromConfigEPK6Config
libdmrconf.so.0:_ZN11TyTCodeplug19MenuSettingsElement11enablePowerEb
libdmrconf.so.0:_ZN11TyTCodeplug19MenuSettingsElement12updateConfigEP6Config
libdmrconf.so.0:_ZN11TyTCodeplug19MenuSettingsElement13enableSquelchEb
libdmrconf.so.0:_ZN11TyTCodeplug19MenuSettingsElement14enablePasswordEb
libdmrconf.so.0:_ZN11TyTCodeplug19MenuSettingsElement15enableAlertToneEb
libdmrconf.so.0:_ZN11TyTCodeplug19MenuSettingsElement15enableBacklightEb
libdmrconf.so.0:_ZN11TyTCodeplug19MenuSettingsElement15enableCallAlertEb
libdmrconf.so.0:_ZN11TyTCodeplug19MenuSettingsElement15setMenuHangtimeEj
libdmrconf.so.0:_ZN11TyTCodeplug19MenuSettingsElement16enableBootScreenEb
libdmrconf.so.0:_ZN11TyTCodeplug19MenuSettingsElement16enableKeypadLockEb
libdmrconf.so.0:_ZN11TyTCodeplug19MenuSettingsElement16enableManualDialEb
libdmrconf.so.0:_ZN11TyTCodeplug19MenuSettingsElement16enableTalkaroundEb
libdmrconf.so.0:_ZN11TyTCodeplug19MenuSettingsElement17enableDisplayModeEb
libdmrconf.so.0:_ZN11TyTCodeplug19MenuSettingsElement17enableTextMessageEb
libdmrconf.so.0:_ZN11TyTCodeplug19MenuSettingsElement18enableLEDIndicatorEb
libdmrconf.so.0:_ZN11TyTCodeplug19MenuSettingsElement19enableCallLogMissedEb
libdmrconf.so.0:_ZN11TyTCodeplug19MenuSettingsElement19enableRemoteMonitorEb
libdmrconf.so.0:_ZN11TyTCodeplug19MenuSettingsElement20enableContactEditingEb
libdmrconf.so.0:_ZN11TyTCodeplug19MenuSettingsElement20infiniteMenuHangtimeEv
libdmrconf.so.0:_ZN11TyTCodeplug19MenuSettingsElement21enableCallLogAnsweredEb
libdmrconf.so.0:_ZN11TyTCodeplug19MenuSettingsElement21enableCallLogOutgoingEb
libdmrconf.so.0:_ZN11TyTCodeplug19MenuSettingsElement21enableScanListEditingEb
libdmrconf.so.0:_ZN11TyTCodeplug19MenuSettingsElement22enableRadioProgrammingEb
libdmrconf.so.0:_ZN11TyTCodeplug19MenuSettingsElement22enableRemoteRadioCheckEb
libdmrconf.so.0:_ZN11TyTCodeplug19MenuSettingsElement23enableRemoteRadioEnableEb
libdmrconf.so.0:_ZN11TyTCodeplug19MenuSettingsElement24enableRemoteRadioDisableEb
libdmrconf.so.0:_ZN11TyTCodeplug19MenuSettingsElement5clearEv
libdmrconf.so.0:_ZN11TyTCodeplug19MenuSettingsElement9enableVOXEb
libdmrconf.so.0:_ZN11TyTCodeplug19MenuSettingsElementC1EPh
libdmrconf.so.0:_ZN11TyTCodeplug19MenuSettingsElementC1EPhm
libdmrconf.so.0:_ZN11TyTCodeplug19MenuSettingsElementC2EPh
libdmrconf.so.0:_ZN11TyTCodeplug19MenuSettingsElementC2EPhm
libdmrconf.so.0:_ZN11TyTCodeplug19MenuSettingsElementD0Ev
libdmrconf.so.0:_ZN11TyTCodeplug19MenuSettingsElementD1Ev
libdmrconf.so.0:_ZN11TyTCodeplug19MenuSettingsElementD2Ev
libdmrconf.so.0:_ZN11TyTCodeplug21ButtonSettingsElement10fromConfigEPK6Config
libdmrconf.so.0:_ZN11TyTCodeplug21ButtonSettingsElement12updateConfigEP6Config
libdmrconf.so.0:_ZN11TyTCodeplug21ButtonSettingsElement18setSideButton1LongEN17TyTButtonSettings12ButtonActionE
libdmrconf.so.0:_ZN11TyTCodeplug21ButtonSettingsElement18setSideButton2LongEN17TyTButtonSettings12ButtonActionE
libdmrconf.so.0:_ZN11TyTCodeplug21ButtonSettingsElement19setSideButton1ShortEN17TyTButtonSettings12ButtonActionE
libdmrconf.so.0:_ZN11TyTCodeplug21ButtonSettingsElement19setSideButton2ShortEN17TyTButtonSettings12ButtonActionE
libdmrconf.so.0:_ZN11TyTCodeplug21ButtonSettingsElement20setLongPressDurationEj
libdmrconf.so.0:_ZN11TyTCodeplug21ButtonSettingsElement5clearEv
libdmrconf.so.0:_ZN11TyTCodeplug21ButtonSettingsElementC1EPh
libdmrconf.so.0:_ZN11TyTCodeplug21ButtonSettingsElementC1EPhm
libdmrconf.so.0:_ZN11TyTCodeplug21ButtonSettingsElementC2EPh
libdmrconf.so.0:_ZN11TyTCodeplug21ButtonSettingsElementC2EPhm
libdmrconf.so.0:_ZN11TyTCodeplug21ButtonSettingsElementD0Ev
libdmrconf.so.0:_ZN11TyTCodeplug21ButtonSettingsElementD1Ev
libdmrconf.so.0:_ZN11TyTCodeplug21ButtonSettingsElementD2Ev
libdmrconf.so.0:_ZN11TyTCodeplug22EmergencySystemElement12setAlarmModeENS0_9AlarmModeE
libdmrconf.so.0:_ZN11TyTCodeplug22EmergencySystemElement12setAlarmTypeENS0_9AlarmTypeE
libdmrconf.so.0:_ZN11TyTCodeplug22EmergencySystemElement16setPoliteRetriesEj
libdmrconf.so.0:_ZN11TyTCodeplug22EmergencySystemElement17setHotMICDurationEj
libdmrconf.so.0:_ZN11TyTCodeplug22EmergencySystemElement18setImpoliteRetriesEj
libdmrconf.so.0:_ZN11TyTCodeplug22EmergencySystemElement21revertChannelSelectedEv
libdmrconf.so.0:_ZN11TyTCodeplug22EmergencySystemElement21setRevertChannelIndexEt
libdmrconf.so.0:_ZN11TyTCodeplug22EmergencySystemElement5clearEv
libdmrconf.so.0:_ZN11TyTCodeplug22EmergencySystemElement7setNameERK7QString
libdmrconf.so.0:_ZN11TyTCodeplug22EmergencySystemElementC1EPh
libdmrconf.so.0:_ZN11TyTCodeplug22EmergencySystemElementC1EPhm
libdmrconf.so.0:_ZN11TyTCodeplug22EmergencySystemElementC2EPh
libdmrconf.so.0:_ZN11TyTCodeplug22EmergencySystemElementC2EPhm
libdmrconf.so.0:_ZN11TyTCodeplug22EmergencySystemElementD0Ev
libdmrconf.so.0:_ZN11TyTCodeplug22EmergencySystemElementD1Ev
libdmrconf.so.0:_ZN11TyTCodeplug22EmergencySystemElementD2Ev
libdmrconf.so.0:_ZN11TyTCodeplug22GeneralSettingsElement10fromConfigEPK6Config
libdmrconf.so.0:_ZN11TyTCodeplug22GeneralSettingsElement12setRadioNameERK7QString
libdmrconf.so.0:_ZN11TyTCodeplug22GeneralSettingsElement12updateConfigEP6Config
libdmrconf.so.0:_ZN11TyTCodeplug22GeneralSettingsElement13setIntroLine1E7QString
libdmrconf.so.0:_ZN11TyTCodeplug22GeneralSettingsElement13setIntroLine2E7QString
libdmrconf.so.0:_ZN11TyTCodeplug22GeneralSettingsElement13setSaveModeRXEb
libdmrconf.so.0:_ZN11TyTCodeplug22GeneralSettingsElement14disableAllLEDsEb
libdmrconf.so.0:_ZN11TyTCodeplug22GeneralSettingsElement14setMonitorTypeEN20TyTSettingsExtension11MonitorTypeE
libdmrconf.so.0:_ZN11TyTCodeplug22GeneralSettingsElement15disableAllTonesEb
libdmrconf.so.0:_ZN11TyTCodeplug22GeneralSettingsElement15setSavePreambleEb
libdmrconf.so.0:_ZN11TyTCodeplug22GeneralSettingsElement16setBacklightTimeEj
libdmrconf.so.0:_ZN11TyTCodeplug22GeneralSettingsElement16setVOXSesitivityEj
libdmrconf.so.0:_ZN11TyTCodeplug22GeneralSettingsElement17setKeypadLockTimeEj
libdmrconf.so.0:_ZN11TyTCodeplug22GeneralSettingsElement17setPCProgPasswordERK7QString
libdmrconf.so.0:_ZN11TyTCodeplug22GeneralSettingsElement18enableIntroPictureEb
libdmrconf.so.0:_ZN11TyTCodeplug22GeneralSettingsElement18setPowerOnPasswordEj
libdmrconf.so.0:_ZN11TyTCodeplug22GeneralSettingsElement19enablePasswdAndLockEb
libdmrconf.so.0:_ZN11TyTCodeplug22GeneralSettingsElement20setGroupCallHangTimeEj
libdmrconf.so.0:_ZN11TyTCodeplug22GeneralSettingsElement20setRadioProgPasswordEj
libdmrconf.so.0:_ZN11TyTCodeplug22GeneralSettingsElement21pcProgPasswordDisableEv
libdmrconf.so.0:_ZN11TyTCodeplug22GeneralSettingsElement21setLowBatteryIntervalEj
libdmrconf.so.0:_ZN11TyTCodeplug22GeneralSettingsElement21setScanAnalogHangTimeEj
libdmrconf.so.0:_ZN11TyTCodeplug22GeneralSettingsElement21setTXPreambleDurationEj
libdmrconf.so.0:_ZN11TyTCodeplug22GeneralSettingsElement22backlightTimeSetAlwaysEv
libdmrconf.so.0:_ZN11TyTCodeplug22GeneralSettingsElement22setPrivateCallHangTimeEj
libdmrconf.so.0:_ZN11TyTCodeplug22GeneralSettingsElement22setScanDigitalHangTimeEj
libdmrconf.so.0:_ZN11TyTCodeplug22GeneralSettingsElement23keypadLockTimeSetManualEv
libdmrconf.so.0:_ZN11TyTCodeplug22GeneralSettingsElement23setChFreeIndicationToneEb
libdmrconf.so.0:_ZN11TyTCodeplug22GeneralSettingsElement24radioProgPasswordDisableEv
libdmrconf.so.0:_ZN11TyTCodeplug22GeneralSettingsElement24setCallAlertToneDurationEj
libdmrconf.so.0:_ZN11TyTCodeplug22GeneralSettingsElement25setLoneWorkerReminderTimeEj
libdmrconf.so.0:_ZN11TyTCodeplug22GeneralSettingsElement25setLoneWorkerResponseTimeEj
libdmrconf.so.0:_ZN11TyTCodeplug22GeneralSettingsElement26enableTalkPermitToneAnalogEb
libdmrconf.so.0:_ZN11TyTCodeplug22GeneralSettingsElement26setCallAlertToneContinuousEv
libdmrconf.so.0:_ZN11TyTCodeplug22GeneralSettingsElement27enableTalkPermitToneDigitalEb
libdmrconf.so.0:_ZN11TyTCodeplug22GeneralSettingsElement5clearEv
libdmrconf.so.0:_ZN11TyTCodeplug22GeneralSettingsElement8setDMRIdEj
libdmrconf.so.0:_ZN11TyTCodeplug22GeneralSettingsElementC1EPh
libdmrconf.so.0:_ZN11TyTCodeplug22GeneralSettingsElementC1EPhm
libdmrconf.so.0:_ZN11TyTCodeplug22GeneralSettingsElementC2EPh
libdmrconf.so.0:_ZN11TyTCodeplug22GeneralSettingsElementC2EPhm
libdmrconf.so.0:_ZN11TyTCodeplug22GeneralSettingsElementD0Ev
libdmrconf.so.0:_ZN11TyTCodeplug22GeneralSettingsElementD1Ev
libdmrconf.so.0:_ZN11TyTCodeplug22GeneralSettingsElementD2Ev
libdmrconf.so.0:_ZN11TyTCodeplug22OneTouchSettingElement13setActionTypeENS0_4TypeE
libdmrconf.so.0:_ZN11TyTCodeplug22OneTouchSettingElement15setContactIndexEt
libdmrconf.so.0:_ZN11TyTCodeplug22OneTouchSettingElement15setMessageIndexEh
libdmrconf.so.0:_ZN11TyTCodeplug22OneTouchSettingElement5clearEv
libdmrconf.so.0:_ZN11TyTCodeplug22OneTouchSettingElement9setActionENS0_6ActionE
libdmrconf.so.0:_ZN11TyTCodeplug22OneTouchSettingElementC1EPh
libdmrconf.so.0:_ZN11TyTCodeplug22OneTouchSettingElementC1EPhm
libdmrconf.so.0:_ZN11TyTCodeplug22OneTouchSettingElementC2EPh
libdmrconf.so.0:_ZN11TyTCodeplug22OneTouchSettingElementC2EPhm
libdmrconf.so.0:_ZN11TyTCodeplug22OneTouchSettingElementD0Ev
libdmrconf.so.0:_ZN11TyTCodeplug22OneTouchSettingElementD1Ev
libdmrconf.so.0:_ZN11TyTCodeplug22OneTouchSettingElementD2Ev
libdmrconf.so.0:_ZN11TyTCodeplug24EmergencySettingsElement12setTXTimeOutEj
libdmrconf.so.0:_ZN11TyTCodeplug24EmergencySettingsElement15setMessageLimitEj
libdmrconf.so.0:_ZN11TyTCodeplug24EmergencySettingsElement18enableRadioDisableEb
libdmrconf.so.0:_ZN11TyTCodeplug24EmergencySettingsElement19enableRemoteMonitorEb
libdmrconf.so.0:_ZN11TyTCodeplug24EmergencySettingsElement24setRemoteMonitorDurationEj
libdmrconf.so.0:_ZN11TyTCodeplug24EmergencySettingsElement28enableEmergencyRemoteMonitorEb
libdmrconf.so.0:_ZN11TyTCodeplug24EmergencySettingsElement5clearEv
libdmrconf.so.0:_ZN11TyTCodeplug24EmergencySettingsElementC1EPh
libdmrconf.so.0:_ZN11TyTCodeplug24EmergencySettingsElementC1EPhm
libdmrconf.so.0:_ZN11TyTCodeplug24EmergencySettingsElementC2EPh
libdmrconf.so.0:_ZN11TyTCodeplug24EmergencySettingsElementC2EPhm
libdmrconf.so.0:_ZN11TyTCodeplug24EmergencySettingsElementD0Ev
libdmrconf.so.0:_ZN11TyTCodeplug24EmergencySettingsElementD1Ev
libdmrconf.so.0:_ZN11TyTCodeplug24EmergencySettingsElementD2Ev
libdmrconf.so.0:_ZN11TyTCodeplug5clearEv
libdmrconf.so.0:_ZN11TyTCodeplug6decodeEP6ConfigRK10ErrorStack
libdmrconf.so.0:_ZN11TyTCodeplug6encodeEP6ConfigRKN8Codeplug5FlagsERK10ErrorStack
libdmrconf.so.0:_ZN11TyTCodeplugC1EP7QObject
libdmrconf.so.0:_ZN11TyTCodeplugC2EP7QObject
libdmrconf.so.0:_ZN11TyTCodeplugD0Ev
libdmrconf.so.0:_ZN11TyTCodeplugD1Ev
libdmrconf.so.0:_ZN11TyTCodeplugD2Ev
libdmrconf.so.0:_ZN11UV390Limits11qt_metacallEN11QMetaObject4CallEiPPv
libdmrconf.so.0:_ZN11UV390Limits11qt_metacastEPKc
libdmrconf.so.0:_ZN11UV390LimitsC1EP7QObject
libdmrconf.so.0:_ZN11UV390LimitsC2EP7QObject
libdmrconf.so.0:_ZN12AnytoneRadio11qt_metacallEN11QMetaObject4CallEiPPv
libdmrconf.so.0:_ZN12AnytoneRadio11qt_metacastEPKc
libdmrconf.so.0:_ZN12AnytoneRadio11startUploadEP6ConfigbRKN8Codeplug5FlagsERK10ErrorStack
libdmrconf.so.0:_ZN12AnytoneRadio13startDownloadEbRK10ErrorStack
libdmrconf.so.0:_ZN12AnytoneRadio15uploadCallsignsEv
libdmrconf.so.0:_ZN12AnytoneRadio21startUploadCallsignDBEP12UserDatabasebRKN10CallsignDB9SelectionERK10ErrorStack
libdmrconf.so.0:_ZN12AnytoneRadio3runEv
libdmrconf.so.0:_ZN12AnytoneRadio6uploadEv
libdmrconf.so.0:_ZN12AnytoneRadio8codeplugEv
libdmrconf.so.0:_ZN12AnytoneRadio8downloadEv
libdmrconf.so.0:_ZN12AnytoneRadioC1ERK7QStringP16AnytoneInterfaceP7QObject
libdmrconf.so.0:_ZN12AnytoneRadioC2ERK7QStringP16AnytoneInterfaceP7QObject
libdmrconf.so.0:_ZN12AnytoneRadioD0Ev
libdmrconf.so.0:_ZN12AnytoneRadioD1Ev
libdmrconf.so.0:_ZN12AnytoneRadioD2Ev
libdmrconf.so.0:_ZN12ConfigObject11qt_metacallEN11QMetaObject4CallEiPPv
libdmrconf.so.0:_ZN12ConfigObject11qt_metacastEPKc
libdmrconf.so.0:_ZN12ConfigObject12findIdPrefixEPK11QMetaObject
libdmrconf.so.0:_ZN12ConfigObject5labelERN10ConfigItem7ContextERK10ErrorStack
libdmrconf.so.0:_ZN12ConfigObject5parseERKN4YAML4NodeERN10ConfigItem7ContextERK10ErrorStack
libdmrconf.so.0:_ZN12ConfigObject7setNameERK7QString
libdmrconf.so.0:_ZN12ConfigObject8populateERN4YAML4NodeERKN10ConfigItem7ContextERK10ErrorStack
libdmrconf.so.0:_ZN12ConfigObjectC1EP7QObject
libdmrconf.so.0:_ZN12ConfigObjectC1ERK7QStringP7QObject
libdmrconf.so.0:_ZN12ConfigObjectC2EP7QObject
libdmrconf.so.0:_ZN12ConfigObjectC2ERK7QStringP7QObject
libdmrconf.so.0:_ZN12D578UVLimits11qt_metacallEN11QMetaObject4CallEiPPv
libdmrconf.so.0:_ZN12D578UVLimits11qt_metacastEPKc
libdmrconf.so.0:_ZN12D578UVLimitsC1ERKSt16initializer_listISt4pairI9FrequencyS2_EES6_RK7QStringP7QObject
libdmrconf.so.0:_ZN12D578UVLimitsC2ERKSt16initializer_listISt4pairI9FrequencyS2_EES6_RK7QStringP7QObject
libdmrconf.so.0:_ZN12D868UVLimits11qt_metacallEN11QMetaObject4CallEiPPv
libdmrconf.so.0:_ZN12D868UVLimits11qt_metacastEPKc
libdmrconf.so.0:_ZN12D868UVLimitsC1ERKSt16initializer_listISt4pairI9FrequencyS2_EES6_RK7QStringP7QObject
libdmrconf.so.0:_ZN12D868UVLimitsC2ERKSt16initializer_listISt4pairI9FrequencyS2_EES6_RK7QStringP7QObject
libdmrconf.so.0:_ZN12D878UVLimits11qt_metacallEN11QMetaObject4CallEiPPv
libdmrconf.so.0:_ZN12D878UVLimits11qt_metacastEPKc
libdmrconf.so.0:_ZN12D878UVLimitsC1ERKSt16initializer_listISt4pairI9FrequencyS2_EES6_RK7QStringP7QObject
libdmrconf.so.0:_ZN12D878UVLimitsC2ERKSt16initializer_listISt4pairI9FrequencyS2_EES6_RK7QStringP7QObject
libdmrconf.so.0:_ZN12DM1701Limits11qt_metacallEN11QMetaObject4CallEiPPv
libdmrconf.so.0:_ZN12DM1701Limits11qt_metacastEPKc
libdmrconf.so.0:_ZN12DM1701LimitsC1EP7QObject
libdmrconf.so.0:_ZN12DM1701LimitsC2EP7QObject
libdmrconf.so.0:_ZN12GD73Codeplug11ZoneElement6encodeEP4ZoneRN8Codeplug7ContextERK10ErrorStack
libdmrconf.so.0:_ZN12GD73Codeplug11ZoneElement6toZoneERN8Codeplug7ContextERK10ErrorStack
libdmrconf.so.0:_ZN12GD73Codeplug11ZoneElement7setNameERK7QString
libdmrconf.so.0:_ZN12GD73Codeplug11ZoneElement8linkZoneEP4ZoneRN8Codeplug7ContextERK10ErrorStack
libdmrconf.so.0:_ZN12GD73Codeplug11ZoneElementC1EPh
libdmrconf.so.0:_ZN12GD73Codeplug11ZoneElementC1EPhm
libdmrconf.so.0:_ZN12GD73Codeplug11ZoneElementC2EPh
libdmrconf.so.0:_ZN12GD73Codeplug11ZoneElementC2EPhm
libdmrconf.so.0:_ZN12GD73Codeplug11createZonesERN8Codeplug7ContextERK10ErrorStack
libdmrconf.so.0:_ZN12GD73Codeplug11encodeZonesERN8Codeplug7ContextERK10ErrorStack
libdmrconf.so.0:_ZN12GD73Codeplug11qt_metacallEN11QMetaObject4CallEiPPv
libdmrconf.so.0:_ZN12GD73Codeplug11qt_metacastEPKc
libdmrconf.so.0:_ZN12GD73Codeplug12linkChannelsERN8Codeplug7ContextERK10ErrorStack
libdmrconf.so.0:_ZN12GD73Codeplug13linkScanListsERN8Codeplug7ContextERK10ErrorStack
libdmrconf.so.0:_ZN12GD73Codeplug14ChannelElement11linkChannelEP7ChannelRN8Codeplug7ContextERK10ErrorStack
libdmrconf.so.0:_ZN12GD73Codeplug14ChannelElement11setTimeSlotEN10DMRChannel8TimeSlotE
libdmrconf.so.0:_ZN12GD73Codeplug14ChannelElement12enableRXOnlyEb
libdmrconf.so.0:_ZN12GD73Codeplug14ChannelElement12setBandwidthEN9FMChannel9BandwidthE
libdmrconf.so.0:_ZN12GD73Codeplug14ChannelElement12setColorCodeEj
libdmrconf.so.0:_ZN12GD73Codeplug14ChannelElement14setRXFrequencyERK9Frequency
libdmrconf.so.0:_ZN12GD73Codeplug14ChannelElement14setTXFrequencyERK9Frequency
libdmrconf.so.0:_ZN12GD73Codeplug14ChannelElement16enableTalkaroundEb
libdmrconf.so.0:_ZN12GD73Codeplug14ChannelElement16setScanListIndexEj
libdmrconf.so.0:_ZN12GD73Codeplug14ChannelElement17setGroupListIndexEj
libdmrconf.so.0:_ZN12GD73Codeplug14ChannelElement17setTXContactIndexEj
libdmrconf.so.0:_ZN12GD73Codeplug14ChannelElement18clearScanListIndexEv
libdmrconf.so.0:_ZN12GD73Codeplug14ChannelElement19clearTXContactIndexEv
libdmrconf.so.0:_ZN12GD73Codeplug14ChannelElement19enableScanAutoStartEb
libdmrconf.so.0:_ZN12GD73Codeplug14ChannelElement20setGroupListAllMatchEv
libdmrconf.so.0:_ZN12GD73Codeplug14ChannelElement21setEncryptionKeyIndexEj
libdmrconf.so.0:_ZN12GD73Codeplug14ChannelElement23clearEncryptionKeyIndexEv
libdmrconf.so.0:_ZN12GD73Codeplug14ChannelElement23setDTMFPTTSettingsIndexEj
libdmrconf.so.0:_ZN12GD73Codeplug14ChannelElement23setEmergencySystemIndexEj
libdmrconf.so.0:_ZN12GD73Codeplug14ChannelElement25clearDTMFPTTSettingsIndexEv
libdmrconf.so.0:_ZN12GD73Codeplug14ChannelElement25clearEmergencySystemIndexEv
libdmrconf.so.0:_ZN12GD73Codeplug14ChannelElement26setGroupListMatchesContactEv
libdmrconf.so.0:_ZN12GD73Codeplug14ChannelElement6encodeEP7ChannelRN8Codeplug7ContextERK10ErrorStack
libdmrconf.so.0:_ZN12GD73Codeplug14ChannelElement7setNameERK7QString
libdmrconf.so.0:_ZN12GD73Codeplug14ChannelElement7setTypeENS0_4TypeE
libdmrconf.so.0:_ZN12GD73Codeplug14ChannelElement8setAdmitENS0_5AdmitE
libdmrconf.so.0:_ZN12GD73Codeplug14ChannelElement8setPowerEN7Channel5PowerE
libdmrconf.so.0:_ZN12GD73Codeplug14ChannelElement9setRXToneEN9Signaling4CodeE
libdmrconf.so.0:_ZN12GD73Codeplug14ChannelElement9setTXToneEN9Signaling4CodeE
libdmrconf.so.0:_ZN12GD73Codeplug14ChannelElement9toChannelERN8Codeplug7ContextERK10ErrorStack
libdmrconf.so.0:_ZN12GD73Codeplug14ChannelElementC1EPh
libdmrconf.so.0:_ZN12GD73Codeplug14ChannelElementC1EPhm
libdmrconf.so.0:_ZN12GD73Codeplug14ChannelElementC2EPh
libdmrconf.so.0:_ZN12GD73Codeplug14ChannelElementC2EPhm
libdmrconf.so.0:_ZN12GD73Codeplug14ContactElement5setIDEj
libdmrconf.so.0:_ZN12GD73Codeplug14ContactElement6encodeEPK10DMRContactRN8Codeplug7ContextERK10ErrorStack
libdmrconf.so.0:_ZN12GD73Codeplug14ContactElement7setNameERK7QString
libdmrconf.so.0:_ZN12GD73Codeplug14ContactElement7setTypeEN10DMRContact4TypeE
libdmrconf.so.0:_ZN12GD73Codeplug14ContactElement9toContactERN8Codeplug7ContextERK10ErrorStack
libdmrconf.so.0:_ZN12GD73Codeplug14ContactElementC1EPh
libdmrconf.so.0:_ZN12GD73Codeplug14ContactElementC1EPhm
libdmrconf.so.0:_ZN12GD73Codeplug14ContactElementC2EPh
libdmrconf.so.0:_ZN12GD73Codeplug14ContactElementC2EPhm
libdmrconf.so.0:_ZN12GD73Codeplug14MessageElement6decodeERK10ErrorStack
libdmrconf.so.0:_ZN12GD73Codeplug14MessageElement6encodeEP11SMSTemplateRK10ErrorStack
libdmrconf.so.0:_ZN12GD73Codeplug14MessageElement7setTextERK7QString
libdmrconf.so.0:_ZN12GD73Codeplug14MessageElementC1EPh
libdmrconf.so.0:_ZN12GD73Codeplug14MessageElementC1EPhm
libdmrconf.so.0:_ZN12GD73Codeplug14MessageElementC2EPh
libdmrconf.so.0:_ZN12GD73Codeplug14MessageElementC2EPhm
libdmrconf.so.0:_ZN12GD73Codeplug14createChannelsERN8Codeplug7ContextERK10ErrorStack
libdmrconf.so.0:_ZN12GD73Codeplug14createContactsERN8Codeplug7ContextERK10ErrorStack
libdmrconf.so.0:_ZN12GD73Codeplug14createMessagesERN8Codeplug7ContextERK10ErrorStack
libdmrconf.so.0:_ZN12GD73Codeplug14decodeSettingsERN8Codeplug7ContextERK10ErrorStack
libdmrconf.so.0:_ZN12GD73Codeplug14encodeChannelsERN8Codeplug7ContextERK10ErrorStack
libdmrconf.so.0:_ZN12GD73Codeplug14encodeContactsERN8Codeplug7ContextERK10ErrorStack
libdmrconf.so.0:_ZN12GD73Codeplug14encodeMessagesERN8Codeplug7ContextERK10ErrorStack
libdmrconf.so.0:_ZN12GD73Codeplug14encodeSettingsERN8Codeplug7ContextERK10ErrorStack
libdmrconf.so.0:_ZN12GD73Codeplug14linkGroupListsERN8Codeplug7ContextERK10ErrorStack
libdmrconf.so.0:_ZN12GD73Codeplug15ScanListElement10toScanListERN8Codeplug7ContextERK10ErrorStack
libdmrconf.so.0:_ZN12GD73Codeplug15ScanListElement12linkScanListEP8ScanListRN8Codeplug7ContextERK10ErrorStack
libdmrconf.so.0:_ZN12GD73Codeplug15ScanListElement13setRXHoldTimeERK8Interval
libdmrconf.so.0:_ZN12GD73Codeplug15ScanListElement13setTXHoldTimeERK8Interval
libdmrconf.so.0:_ZN12GD73Codeplug15ScanListElement18setRevertZoneIndexEj
libdmrconf.so.0:_ZN12GD73Codeplug15ScanListElement19setPrimaryZoneIndexEj
libdmrconf.so.0:_ZN12GD73Codeplug15ScanListElement20clearRevertZoneIndexEv
libdmrconf.so.0:_ZN12GD73Codeplug15ScanListElement20setRevertChannelModeENS0_11ChannelModeE
libdmrconf.so.0:_ZN12GD73Codeplug15ScanListElement21clearPrimaryZoneIndexEv
libdmrconf.so.0:_ZN12GD73Codeplug15ScanListElement21setPrimaryChannelModeENS0_11ChannelModeE
libdmrconf.so.0:_ZN12GD73Codeplug15ScanListElement21setRevertChannelIndexEj
libdmrconf.so.0:_ZN12GD73Codeplug15ScanListElement21setSecondaryZoneIndexEj
libdmrconf.so.0:_ZN12GD73Codeplug15ScanListElement22setPrimaryChannelIndexEj
libdmrconf.so.0:_ZN12GD73Codeplug15ScanListElement23clearRevertChannelIndexEv
libdmrconf.so.0:_ZN12GD73Codeplug15ScanListElement23clearSecondaryZoneIndexEv
libdmrconf.so.0:_ZN12GD73Codeplug15ScanListElement23setSecondaryChannelModeENS0_11ChannelModeE
libdmrconf.so.0:_ZN12GD73Codeplug15ScanListElement24clearPrimaryChannelIndexEv
libdmrconf.so.0:_ZN12GD73Codeplug15ScanListElement24setSecondaryChannelIndexEj
libdmrconf.so.0:_ZN12GD73Codeplug15ScanListElement26clearSecondaryChannelIndexEv
libdmrconf.so.0:_ZN12GD73Codeplug15ScanListElement6encodeEP8ScanListRN8Codeplug7ContextERK10ErrorStack
libdmrconf.so.0:_ZN12GD73Codeplug15ScanListElement7setNameERK7QString
libdmrconf.so.0:_ZN12GD73Codeplug15ScanListElementC1EPh
libdmrconf.so.0:_ZN12GD73Codeplug15ScanListElementC1EPhm
libdmrconf.so.0:_ZN12GD73Codeplug15ScanListElementC2EPh
libdmrconf.so.0:_ZN12GD73Codeplug15ScanListElementC2EPhm
libdmrconf.so.0:_ZN12GD73Codeplug15SettingsElement10setSquelchEj
libdmrconf.so.0:_ZN12GD73Codeplug15SettingsElement11KeyFunction6decodeEh
libdmrconf.so.0:_ZN12GD73Codeplug15SettingsElement11KeyFunction6encodeEN33RadioddityButtonSettingsExtension8FunctionE
libdmrconf.so.0:_ZN12GD73Codeplug15SettingsElement11setLanguageENS0_8LanguageE
libdmrconf.so.0:_ZN12GD73Codeplug15SettingsElement12setFMMicGainEj
libdmrconf.so.0:_ZN12GD73Codeplug15SettingsElement12updateConfigERN8Codeplug7ContextERK10ErrorStack
libdmrconf.so.0:_ZN12GD73Codeplug15SettingsElement13enableKeyToneEb
libdmrconf.so.0:_ZN12GD73Codeplug15SettingsElement13setDMRMicGainEj
libdmrconf.so.0:_ZN12GD73Codeplug15SettingsElement14enableReadLockEb
libdmrconf.so.0:_ZN12GD73Codeplug15SettingsElement14setReadLockPinERK7QString
libdmrconf.so.0:_ZN12GD73Codeplug15SettingsElement15enablePowerSaveEb
libdmrconf.so.0:_ZN12GD73Codeplug15SettingsElement15enableWriteLockEb
libdmrconf.so.0:_ZN12GD73Codeplug15SettingsElement15setWriteLockPinERK7QString
libdmrconf.so.0:_ZN12GD73Codeplug15SettingsElement16setBootTextLine1ERK7QString
libdmrconf.so.0:_ZN12GD73Codeplug15SettingsElement16setBootTextLine2ERK7QString
libdmrconf.so.0:_ZN12GD73Codeplug15SettingsElement16setKeyToneVolumeEj
libdmrconf.so.0:_ZN12GD73Codeplug15SettingsElement17enableTXInterruptEb
libdmrconf.so.0:_ZN12GD73Codeplug15SettingsElement18setBootDisplayModeENS0_15BootDisplayModeE
libdmrconf.so.0:_ZN12GD73Codeplug15SettingsElement19setPowerSaveTimeoutERK8Interval
libdmrconf.so.0:_ZN12GD73Codeplug15SettingsElement20enableLowBatteryToneEb
libdmrconf.so.0:_ZN12GD73Codeplug15SettingsElement20setLongPressDurationERK8Interval
libdmrconf.so.0:_ZN12GD73Codeplug15SettingsElement21setChannelDisplayModeENS0_18ChannelDisplayModeE
libdmrconf.so.0:_ZN12GD73Codeplug15SettingsElement23setLowBatteryToneVolumeEj
libdmrconf.so.0:_ZN12GD73Codeplug15SettingsElement25setKeyFunctionLongPressP1EN33RadioddityButtonSettingsExtension8FunctionE
libdmrconf.so.0:_ZN12GD73Codeplug15SettingsElement25setKeyFunctionLongPressP2EN33RadioddityButtonSettingsExtension8FunctionE
libdmrconf.so.0:_ZN12GD73Codeplug15SettingsElement25setLoneWorkerRemindPeriodERK8Interval
libdmrconf.so.0:_ZN12GD73Codeplug15SettingsElement26setKeyFunctionShortPressP1EN33RadioddityButtonSettingsExtension8FunctionE
libdmrconf.so.0:_ZN12GD73Codeplug15SettingsElement26setKeyFunctionShortPressP2EN33RadioddityButtonSettingsExtension8FunctionE
libdmrconf.so.0:_ZN12GD73Codeplug15SettingsElement28setLoneWorkerResponseTimeoutERK8Interval
libdmrconf.so.0:_ZN12GD73Codeplug15SettingsElement6encodeERN8Codeplug7ContextERK10ErrorStack
libdmrconf.so.0:_ZN12GD73Codeplug15SettingsElement6setTOTERK8Interval
libdmrconf.so.0:_ZN12GD73Codeplug15SettingsElement6setVOXEj
libdmrconf.so.0:_ZN12GD73Codeplug15SettingsElement7setNameERK7QString
libdmrconf.so.0:_ZN12GD73Codeplug15SettingsElement8clearTOTEv
libdmrconf.so.0:_ZN12GD73Codeplug15SettingsElement8oneTouchEj
libdmrconf.so.0:_ZN12GD73Codeplug15SettingsElement8setDMRIDEj
libdmrconf.so.0:_ZN12GD73Codeplug15SettingsElementC1EPh
libdmrconf.so.0:_ZN12GD73Codeplug15SettingsElementC1EPhm
libdmrconf.so.0:_ZN12GD73Codeplug15SettingsElementC2EPh
libdmrconf.so.0:_ZN12GD73Codeplug15SettingsElementC2EPhm
libdmrconf.so.0:_ZN12GD73Codeplug15ZoneBankElement11createZonesERN8Codeplug7ContextERK10ErrorStack
libdmrconf.so.0:_ZN12GD73Codeplug15ZoneBankElement6encodeERN8Codeplug7ContextERK10ErrorStack
libdmrconf.so.0:_ZN12GD73Codeplug15ZoneBankElement9linkZonesERN8Codeplug7ContextERK10ErrorStack
libdmrconf.so.0:_ZN12GD73Codeplug15ZoneBankElementC1EPh
libdmrconf.so.0:_ZN12GD73Codeplug15ZoneBankElementC1EPhm
libdmrconf.so.0:_ZN12GD73Codeplug15ZoneBankElementC2EPh
libdmrconf.so.0:_ZN12GD73Codeplug15ZoneBankElementC2EPhm
libdmrconf.so.0:_ZN12GD73Codeplug15createScanListsERN8Codeplug7ContextERK10ErrorStack
libdmrconf.so.0:_ZN12GD73Codeplug15decodeTimestampERN8Codeplug7ContextERK10ErrorStack
libdmrconf.so.0:_ZN12GD73Codeplug15encodeScanListsERN8Codeplug7ContextERK10ErrorStack
libdmrconf.so.0:_ZN12GD73Codeplug15encodeTimestampERN8Codeplug7ContextERK10ErrorStack
libdmrconf.so.0:_ZN12GD73Codeplug16GroupListElement11toGroupListERN8Codeplug7ContextERK10ErrorStack
libdmrconf.so.0:_ZN12GD73Codeplug16GroupListElement13linkGroupListEP11RXGroupListRN8Codeplug7ContextERK10ErrorStack
libdmrconf.so.0:_ZN12GD73Codeplug16GroupListElement6encodeEP11RXGroupListRN8Codeplug7ContextERK10ErrorStack
libdmrconf.so.0:_ZN12GD73Codeplug16GroupListElement7setNameERK7QString
libdmrconf.so.0:_ZN12GD73Codeplug16GroupListElementC1EPh
libdmrconf.so.0:_ZN12GD73Codeplug16GroupListElementC1EPhm
libdmrconf.so.0:_ZN12GD73Codeplug16GroupListElementC2EPh
libdmrconf.so.0:_ZN12GD73Codeplug16GroupListElementC2EPhm
libdmrconf.so.0:_ZN12GD73Codeplug16createGroupListsERN8Codeplug7ContextERK10ErrorStack
libdmrconf.so.0:_ZN12GD73Codeplug16encodeGroupListsERN8Codeplug7ContextERK10ErrorStack
libdmrconf.so.0:_ZN12GD73Codeplug18ChannelBankElement12linkChannelsERN8Codeplug7ContextERK10ErrorStack
libdmrconf.so.0:_ZN12GD73Codeplug18ChannelBankElement14createChannelsERN8Codeplug7ContextERK10ErrorStack
libdmrconf.so.0:_ZN12GD73Codeplug18ChannelBankElement6encodeERN8Codeplug7ContextERK10ErrorStack
libdmrconf.so.0:_ZN12GD73Codeplug18ChannelBankElementC1EPh
libdmrconf.so.0:_ZN12GD73Codeplug18ChannelBankElementC1EPhm
libdmrconf.so.0:_ZN12GD73Codeplug18ChannelBankElementC2EPh
libdmrconf.so.0:_ZN12GD73Codeplug18ChannelBankElementC2EPhm
libdmrconf.so.0:_ZN12GD73Codeplug18ContactBankElement14createContactsERN8Codeplug7ContextERK10ErrorStack
libdmrconf.so.0:_ZN12GD73Codeplug18ContactBankElement6encodeERN8Codeplug7ContextERK10ErrorStack
libdmrconf.so.0:_ZN12GD73Codeplug18ContactBankElementC1EPh
libdmrconf.so.0:_ZN12GD73Codeplug18ContactBankElementC1EPhm
libdmrconf.so.0:_ZN12GD73Codeplug18ContactBankElementC2EPh
libdmrconf.so.0:_ZN12GD73Codeplug18ContactBankElementC2EPhm
libdmrconf.so.0:_ZN12GD73Codeplug18DMRSettingsElement12updateConfigERN8Codeplug7ContextERK10ErrorStack
libdmrconf.so.0:_ZN12GD73Codeplug18DMRSettingsElement14setTXPreamblesEj
libdmrconf.so.0:_ZN12GD73Codeplug18DMRSettingsElement15setCallHangTimeERK8Interval
libdmrconf.so.0:_ZN12GD73Codeplug18DMRSettingsElement16setActiveRetriesEj
libdmrconf.so.0:_ZN12GD73Codeplug18DMRSettingsElement17setActiveWaitTimeERK8Interval
libdmrconf.so.0:_ZN12GD73Codeplug18DMRSettingsElement22enableDecodeRadioCheckEb
libdmrconf.so.0:_ZN12GD73Codeplug18DMRSettingsElement23enableDecodeEnableRadioEb
libdmrconf.so.0:_ZN12GD73Codeplug18DMRSettingsElement24enableDecodeDisableRadioEb
libdmrconf.so.0:_ZN12GD73Codeplug18DMRSettingsElement6encodeERN8Codeplug7ContextERK10ErrorStack
libdmrconf.so.0:_ZN12GD73Codeplug18DMRSettingsElementC1EPh
libdmrconf.so.0:_ZN12GD73Codeplug18DMRSettingsElementC1EPhm
libdmrconf.so.0:_ZN12GD73Codeplug18DMRSettingsElementC2EPh
libdmrconf.so.0:_ZN12GD73Codeplug18DMRSettingsElementC2EPhm
libdmrconf.so.0:_ZN12GD73Codeplug18InformationElement12setTimestampERK9QDateTime
libdmrconf.so.0:_ZN12GD73Codeplug18InformationElement17setFrequencyRangeERK5RangeI9FrequencyE
libdmrconf.so.0:_ZN12GD73Codeplug18InformationElementC1EPh
libdmrconf.so.0:_ZN12GD73Codeplug18InformationElementC1EPhm
libdmrconf.so.0:_ZN12GD73Codeplug18InformationElementC2EPh
libdmrconf.so.0:_ZN12GD73Codeplug18InformationElementC2EPhm
libdmrconf.so.0:_ZN12GD73Codeplug18MessageBankElement14setMemberCountEj
libdmrconf.so.0:_ZN12GD73Codeplug18MessageBankElement6decodeEP12SMSExtensionRK10ErrorStack
libdmrconf.so.0:_ZN12GD73Codeplug18MessageBankElement6encodeEPK12SMSExtensionRK10ErrorStack
libdmrconf.so.0:_ZN12GD73Codeplug18MessageBankElement7messageEj
libdmrconf.so.0:_ZN12GD73Codeplug18MessageBankElementC1EPh
libdmrconf.so.0:_ZN12GD73Codeplug18MessageBankElementC1EPhm
libdmrconf.so.0:_ZN12GD73Codeplug18MessageBankElementC2EPh
libdmrconf.so.0:_ZN12GD73Codeplug18MessageBankElementC2EPhm
libdmrconf.so.0:_ZN12GD73Codeplug18createDTMFContactsERN8Codeplug7ContextERK10ErrorStack
libdmrconf.so.0:_ZN12GD73Codeplug19ScanListBankElement13linkScanListsERN8Codeplug7ContextERK10ErrorStack
libdmrconf.so.0:_ZN12GD73Codeplug19ScanListBankElement15createScanListsERN8Codeplug7ContextERK10ErrorStack
libdmrconf.so.0:_ZN12GD73Codeplug19ScanListBankElement6encodeERN8Codeplug7ContextERK10ErrorStack
libdmrconf.so.0:_ZN12GD73Codeplug19ScanListBankElementC1EPh
libdmrconf.so.0:_ZN12GD73Codeplug19ScanListBankElementC1EPhm
libdmrconf.so.0:_ZN12GD73Codeplug19ScanListBankElementC2EPh
libdmrconf.so.0:_ZN12GD73Codeplug19ScanListBankElementC2EPhm
libdmrconf.so.0:_ZN12GD73Codeplug20EncryptionKeyElement10setKeySizeEj
libdmrconf.so.0:_ZN12GD73Codeplug20EncryptionKeyElement19encodeEncryptionKeyEP18BasicEncryptionKeyRK10ErrorStack
libdmrconf.so.0:_ZN12GD73Codeplug20EncryptionKeyElement5clearEv
libdmrconf.so.0:_ZN12GD73Codeplug20EncryptionKeyElementC1EPh
libdmrconf.so.0:_ZN12GD73Codeplug20EncryptionKeyElementC1EPhm
libdmrconf.so.0:_ZN12GD73Codeplug20EncryptionKeyElementC2EPh
libdmrconf.so.0:_ZN12GD73Codeplug20EncryptionKeyElementC2EPhm
libdmrconf.so.0:_ZN12GD73Codeplug20GroupListBankElement14linkGroupListsERN8Codeplug7ContextERK10ErrorStack
libdmrconf.so.0:_ZN12GD73Codeplug20GroupListBankElement16createGroupListsERN8Codeplug7ContextERK10ErrorStack
libdmrconf.so.0:_ZN12GD73Codeplug20GroupListBankElement6encodeERN8Codeplug7ContextERK10ErrorStack
libdmrconf.so.0:_ZN12GD73Codeplug20GroupListBankElementC1EPh
libdmrconf.so.0:_ZN12GD73Codeplug20GroupListBankElementC1EPhm
libdmrconf.so.0:_ZN12GD73Codeplug20GroupListBankElementC2EPh
libdmrconf.so.0:_ZN12GD73Codeplug20GroupListBankElementC2EPhm
libdmrconf.so.0:_ZN12GD73Codeplug20createEncryptionKeysERN8Codeplug7ContextERK10ErrorStack
libdmrconf.so.0:_ZN12GD73Codeplug20encodeEncryptionKeysERN8Codeplug7ContextERK10ErrorStack
libdmrconf.so.0:_ZN12GD73Codeplug22OneTouchSettingElementC1EPh
libdmrconf.so.0:_ZN12GD73Codeplug22OneTouchSettingElementC1EPhm
libdmrconf.so.0:_ZN12GD73Codeplug22OneTouchSettingElementC2EPh
libdmrconf.so.0:_ZN12GD73Codeplug22OneTouchSettingElementC2EPhm
libdmrconf.so.0:_ZN12GD73Codeplug24EncryptionKeyBankElement20createEncryptionKeysERN8Codeplug7ContextERK10ErrorStack
libdmrconf.so.0:_ZN12GD73Codeplug24EncryptionKeyBankElement20encodeEncryptionKeysERN8Codeplug7ContextERK10ErrorStack
libdmrconf.so.0:_ZN12GD73Codeplug24EncryptionKeyBankElementC1EPh
libdmrconf.so.0:_ZN12GD73Codeplug24EncryptionKeyBankElementC1EPhm
libdmrconf.so.0:_ZN12GD73Codeplug24EncryptionKeyBankElementC2EPh
libdmrconf.so.0:_ZN12GD73Codeplug24EncryptionKeyBankElementC2EPhm
libdmrconf.so.0:_ZN12GD73Codeplug6decodeEP6ConfigRK10ErrorStack
libdmrconf.so.0:_ZN12GD73Codeplug6encodeEP6ConfigRKN8Codeplug5FlagsERK10ErrorStack
libdmrconf.so.0:_ZN12GD73Codeplug9linkZonesERN8Codeplug7ContextERK10ErrorStack
libdmrconf.so.0:_ZN12GD73CodeplugC1EP7QObject
libdmrconf.so.0:_ZN12GD73CodeplugC2EP7QObject
libdmrconf.so.0:_ZN12GD77Codeplug10clearZonesEv
libdmrconf.so.0:_ZN12GD77Codeplug11createZonesEP6ConfigRN8Codeplug7ContextERK10ErrorStack
libdmrconf.so.0:_ZN12GD77Codeplug11encodeZonesEP6ConfigRKN8Codeplug5FlagsERNS2_7ContextERK10ErrorStack
libdmrconf.so.0:_ZN12GD77Codeplug11qt_metacallEN11QMetaObject4CallEiPPv
libdmrconf.so.0:_ZN12GD77Codeplug11qt_metacastEPKc
libdmrconf.so.0:_ZN12GD77Codeplug12linkChannelsEP6ConfigRN8Codeplug7ContextERK10ErrorStack
libdmrconf.so.0:_ZN12GD77Codeplug13clearBootTextEv
libdmrconf.so.0:_ZN12GD77Codeplug13clearChannelsEv
libdmrconf.so.0:_ZN12GD77Codeplug13clearContactsEv
libdmrconf.so.0:_ZN12GD77Codeplug13clearMessagesEv
libdmrconf.so.0:_ZN12GD77Codeplug13linkScanListsEP6ConfigRN8Codeplug7ContextERK10ErrorStack
libdmrconf.so.0:_ZN12GD77Codeplug14ChannelElement11setARTSModeENS0_8ARTSModeE
libdmrconf.so.0:_ZN12GD77Codeplug14ChannelElement11setSTEAngleENS0_8STEAngleE
libdmrconf.so.0:_ZN12GD77Codeplug14ChannelElement12setPTTIDModeENS0_5PTTIdE
libdmrconf.so.0:_ZN12GD77Codeplug14ChannelElement14enableAutoscanEb
libdmrconf.so.0:_ZN12GD77Codeplug14ChannelElement16enableLoneWorkerEb
libdmrconf.so.0:_ZN12GD77Codeplug14ChannelElement18enableTightSquelchEb
libdmrconf.so.0:_ZN12GD77Codeplug14ChannelElement5clearEv
libdmrconf.so.0:_ZN12GD77Codeplug14ChannelElementC1EPh
libdmrconf.so.0:_ZN12GD77Codeplug14ChannelElementC1EPhm
libdmrconf.so.0:_ZN12GD77Codeplug14ChannelElementC2EPh
libdmrconf.so.0:_ZN12GD77Codeplug14ChannelElementC2EPhm
libdmrconf.so.0:_ZN12GD77Codeplug14ContactElement14fromContactObjEPK10DMRContactRN8Codeplug7ContextE
libdmrconf.so.0:_ZN12GD77Codeplug14ContactElement5clearEv
libdmrconf.so.0:_ZN12GD77Codeplug14ContactElement9markValidEb
libdmrconf.so.0:_ZN12GD77Codeplug14ContactElementC1EPh
libdmrconf.so.0:_ZN12GD77Codeplug14ContactElementC1EPhj
libdmrconf.so.0:_ZN12GD77Codeplug14ContactElementC2EPh
libdmrconf.so.0:_ZN12GD77Codeplug14ContactElementC2EPhj
libdmrconf.so.0:_ZN12GD77Codeplug14clearScanListsEv
libdmrconf.so.0:_ZN12GD77Codeplug14createChannelsEP6ConfigRN8Codeplug7ContextERK10ErrorStack
libdmrconf.so.0:_ZN12GD77Codeplug14createContactsEP6ConfigRN8Codeplug7ContextERK10ErrorStack
libdmrconf.so.0:_ZN12GD77Codeplug14decodeBootTextEP6ConfigRN8Codeplug7ContextERK10ErrorStack
libdmrconf.so.0:_ZN12GD77Codeplug14decodeMessagesERN8Codeplug7ContextERK10ErrorStack
libdmrconf.so.0:_ZN12GD77Codeplug14encodeBootTextEP6ConfigRKN8Codeplug5FlagsERNS2_7ContextERK10ErrorStack
libdmrconf.so.0:_ZN12GD77Codeplug14encodeChannelsEP6ConfigRKN8Codeplug5FlagsERNS2_7ContextERK10ErrorStack
libdmrconf.so.0:_ZN12GD77Codeplug14encodeContactsEP6ConfigRKN8Codeplug5FlagsERNS2_7ContextERK10ErrorStack
libdmrconf.so.0:_ZN12GD77Codeplug14encodeMessagesERN8Codeplug7ContextERKNS0_5FlagsERK10ErrorStack
libdmrconf.so.0:_ZN12GD77Codeplug14linkEncryptionEP6ConfigRN8Codeplug7ContextERK10ErrorStack
libdmrconf.so.0:_ZN12GD77Codeplug14linkGroupListsEP6ConfigRN8Codeplug7ContextERK10ErrorStack
libdmrconf.so.0:_ZN12GD77Codeplug15ScanListElement5clearEv
libdmrconf.so.0:_ZN12GD77Codeplug15ScanListElementC1EPh
libdmrconf.so.0:_ZN12GD77Codeplug15ScanListElementC1EPhj
libdmrconf.so.0:_ZN12GD77Codeplug15ScanListElementC2EPh
libdmrconf.so.0:_ZN12GD77Codeplug15ScanListElementC2EPhj
libdmrconf.so.0:_ZN12GD77Codeplug15clearEncryptionEv
libdmrconf.so.0:_ZN12GD77Codeplug15clearGroupListsEv
libdmrconf.so.0:_ZN12GD77Codeplug15createScanListsEP6ConfigRN8Codeplug7ContextERK10ErrorStack
libdmrconf.so.0:_ZN12GD77Codeplug15encodeScanListsEP6ConfigRKN8Codeplug5FlagsERNS2_7ContextERK10ErrorStack
libdmrconf.so.0:_ZN12GD77Codeplug16GroupListElementC1EPh
libdmrconf.so.0:_ZN12GD77Codeplug16GroupListElementC1EPhj
libdmrconf.so.0:_ZN12GD77Codeplug16GroupListElementC2EPh
libdmrconf.so.0:_ZN12GD77Codeplug16GroupListElementC2EPhj
libdmrconf.so.0:_ZN12GD77Codeplug16clearVFOSettingsEv
libdmrconf.so.0:_ZN12GD77Codeplug16createEncryptionEP6ConfigRN8Codeplug7ContextERK10ErrorStack
libdmrconf.so.0:_ZN12GD77Codeplug16createGroupListsEP6ConfigRN8Codeplug7ContextERK10ErrorStack
libdmrconf.so.0:_ZN12GD77Codeplug16encodeEncryptionEP6ConfigRKN8Codeplug5FlagsERNS2_7ContextERK10ErrorStack
libdmrconf.so.0:_ZN12GD77Codeplug16encodeGroupListsEP6ConfigRKN8Codeplug5FlagsERNS2_7ContextERK10ErrorStack
libdmrconf.so.0:_ZN12GD77Codeplug17clearBootSettingsEv
libdmrconf.so.0:_ZN12GD77Codeplug17clearDTMFContactsEv
libdmrconf.so.0:_ZN12GD77Codeplug17clearMenuSettingsEv
libdmrconf.so.0:_ZN12GD77Codeplug18createDTMFContactsEP6ConfigRN8Codeplug7ContextERK10ErrorStack
libdmrconf.so.0:_ZN12GD77Codeplug18encodeDTMFContactsEP6ConfigRKN8Codeplug5FlagsERNS2_7ContextERK10ErrorStack
libdmrconf.so.0:_ZN12GD77Codeplug19ScanListBankElement5clearEv
libdmrconf.so.0:_ZN12GD77Codeplug19ScanListBankElementC1EPh
libdmrconf.so.0:_ZN12GD77Codeplug19ScanListBankElementC1EPhj
libdmrconf.so.0:_ZN12GD77Codeplug19ScanListBankElementC2EPh
libdmrconf.so.0:_ZN12GD77Codeplug19ScanListBankElementC2EPhj
libdmrconf.so.0:_ZN12GD77Codeplug19clearButtonSettingsEv
libdmrconf.so.0:_ZN12GD77Codeplug20GroupListBankElementC1EPh
libdmrconf.so.0:_ZN12GD77Codeplug20GroupListBankElementC1EPhj
libdmrconf.so.0:_ZN12GD77Codeplug20GroupListBankElementC2EPh
libdmrconf.so.0:_ZN12GD77Codeplug20GroupListBankElementC2EPhj
libdmrconf.so.0:_ZN12GD77Codeplug20clearGeneralSettingsEv
libdmrconf.so.0:_ZN12GD77Codeplug20decodeButtonSettingsERN8Codeplug7ContextERK10ErrorStack
libdmrconf.so.0:_ZN12GD77Codeplug20encodeButtonSettingsERN8Codeplug7ContextERKNS0_5FlagsERK10ErrorStack
libdmrconf.so.0:_ZN12GD77Codeplug21decodeGeneralSettingsEP6ConfigRN8Codeplug7ContextERK10ErrorStack
libdmrconf.so.0:_ZN12GD77Codeplug21encodeGeneralSettingsEP6ConfigRKN8Codeplug5FlagsERNS2_7ContextERK10ErrorStack
libdmrconf.so.0:_ZN12GD77Codeplug9linkZonesEP6ConfigRN8Codeplug7ContextERK10ErrorStack
libdmrconf.so.0:_ZN12GD77CodeplugC1EP7QObject
libdmrconf.so.0:_ZN12GD77CodeplugC2EP7QObject
libdmrconf.so.0:_ZN12MD2017Limits11qt_metacallEN11QMetaObject4CallEiPPv
libdmrconf.so.0:_ZN12MD2017Limits11qt_metacastEPKc
libdmrconf.so.0:_ZN12MD2017LimitsC1EP7QObject
libdmrconf.so.0:_ZN12MD2017LimitsC2EP7QObject
libdmrconf.so.0:_ZN12RD5RCodeplug10clearZonesEv
libdmrconf.so.0:_ZN12RD5RCodeplug11createZonesEP6ConfigRN8Codeplug7ContextERK10ErrorStack
libdmrconf.so.0:_ZN12RD5RCodeplug11encodeZonesEP6ConfigRKN8Codeplug5FlagsERNS2_7ContextERK10ErrorStack
libdmrconf.so.0:_ZN12RD5RCodeplug11qt_metacallEN11QMetaObject4CallEiPPv
libdmrconf.so.0:_ZN12RD5RCodeplug11qt_metacastEPKc
libdmrconf.so.0:_ZN12RD5RCodeplug12linkChannelsEP6ConfigRN8Codeplug7ContextERK10ErrorStack
libdmrconf.so.0:_ZN12RD5RCodeplug13clearBootTextEv
libdmrconf.so.0:_ZN12RD5RCodeplug13clearChannelsEv
libdmrconf.so.0:_ZN12RD5RCodeplug13clearContactsEv
libdmrconf.so.0:_ZN12RD5RCodeplug13clearMessagesEv
libdmrconf.so.0:_ZN12RD5RCodeplug13linkScanListsEP6ConfigRN8Codeplug7ContextERK10ErrorStack
libdmrconf.so.0:_ZN12RD5RCodeplug14ChannelElement10setSquelchEj
libdmrconf.so.0:_ZN12RD5RCodeplug14ChannelElement14fromChannelObjEPK7ChannelRN8Codeplug7ContextE
libdmrconf.so.0:_ZN12RD5RCodeplug14ChannelElement5clearEv
libdmrconf.so.0:_ZN12RD5RCodeplug14ChannelElementC1EPh
libdmrconf.so.0:_ZN12RD5RCodeplug14ChannelElementC1EPhm
libdmrconf.so.0:_ZN12RD5RCodeplug14ChannelElementC2EPh
libdmrconf.so.0:_ZN12RD5RCodeplug14ChannelElementC2EPhm
libdmrconf.so.0:_ZN12RD5RCodeplug14clearScanListsEv
libdmrconf.so.0:_ZN12RD5RCodeplug14clearTimestampEv
libdmrconf.so.0:_ZN12RD5RCodeplug14createChannelsEP6ConfigRN8Codeplug7ContextERK10ErrorStack
libdmrconf.so.0:_ZN12RD5RCodeplug14createContactsEP6ConfigRN8Codeplug7ContextERK10ErrorStack
libdmrconf.so.0:_ZN12RD5RCodeplug14decodeBootTextEP6ConfigRN8Codeplug7ContextERK10ErrorStack
libdmrconf.so.0:_ZN12RD5RCodeplug14decodeElementsERN8Codeplug7ContextERK10ErrorStack
libdmrconf.so.0:_ZN12RD5RCodeplug14decodeMessagesERN8Codeplug7ContextERK10ErrorStack
libdmrconf.so.0:_ZN12RD5RCodeplug14encodeBootTextEP6ConfigRKN8Codeplug5FlagsERNS2_7ContextERK10ErrorStack
libdmrconf.so.0:_ZN12RD5RCodeplug14encodeChannelsEP6ConfigRKN8Codeplug5FlagsERNS2_7ContextERK10ErrorStack
libdmrconf.so.0:_ZN12RD5RCodeplug14encodeContactsEP6ConfigRKN8Codeplug5FlagsERNS2_7ContextERK10ErrorStack
libdmrconf.so.0:_ZN12RD5RCodeplug14encodeElementsERKN8Codeplug5FlagsERNS0_7ContextERK10ErrorStack
libdmrconf.so.0:_ZN12RD5RCodeplug14encodeMessagesERN8Codeplug7ContextERKNS0_5FlagsERK10ErrorStack
libdmrconf.so.0:_ZN12RD5RCodeplug14linkEncryptionEP6ConfigRN8Codeplug7ContextERK10ErrorStack
libdmrconf.so.0:_ZN12RD5RCodeplug14linkGroupListsEP6ConfigRN8Codeplug7ContextERK10ErrorStack
libdmrconf.so.0:_ZN12RD5RCodeplug15clearEncryptionEv
libdmrconf.so.0:_ZN12RD5RCodeplug15clearGroupListsEv
libdmrconf.so.0:_ZN12RD5RCodeplug15createScanListsEP6ConfigRN8Codeplug7ContextERK10ErrorStack
libdmrconf.so.0:_ZN12RD5RCodeplug15encodeScanListsEP6ConfigRKN8Codeplug5FlagsERNS2_7ContextERK10ErrorStack
libdmrconf.so.0:_ZN12RD5RCodeplug15encodeTimestampERK10ErrorStack
libdmrconf.so.0:_ZN12RD5RCodeplug16TimestampElement3setERK9QDateTime
libdmrconf.so.0:_ZN12RD5RCodeplug16TimestampElement5clearEv
libdmrconf.so.0:_ZN12RD5RCodeplug16TimestampElementC1EPh
libdmrconf.so.0:_ZN12RD5RCodeplug16TimestampElementC1EPhj
libdmrconf.so.0:_ZN12RD5RCodeplug16TimestampElementC2EPh
libdmrconf.so.0:_ZN12RD5RCodeplug16TimestampElementC2EPhj
libdmrconf.so.0:_ZN12RD5RCodeplug16TimestampElementD0Ev
libdmrconf.so.0:_ZN12RD5RCodeplug16TimestampElementD1Ev
libdmrconf.so.0:_ZN12RD5RCodeplug16TimestampElementD2Ev
libdmrconf.so.0:_ZN12RD5RCodeplug16clearVFOSettingsEv
libdmrconf.so.0:_ZN12RD5RCodeplug16createEncryptionEP6ConfigRN8Codeplug7ContextERK10ErrorStack
libdmrconf.so.0:_ZN12RD5RCodeplug16createGroupListsEP6ConfigRN8Codeplug7ContextERK10ErrorStack
libdmrconf.so.0:_ZN12RD5RCodeplug16encodeEncryptionEP6ConfigRKN8Codeplug5FlagsERNS2_7ContextERK10ErrorStack
libdmrconf.so.0:_ZN12RD5RCodeplug16encodeGroupListsEP6ConfigRKN8Codeplug5FlagsERNS2_7ContextERK10ErrorStack
libdmrconf.so.0:_ZN12RD5RCodeplug17EncryptionElement11setBasicKeyEjRK10QByteArray
libdmrconf.so.0:_ZN12RD5RCodeplug17EncryptionElementC1EPh
libdmrconf.so.0:_ZN12RD5RCodeplug17EncryptionElementC2EPh
libdmrconf.so.0:_ZN12RD5RCodeplug17clearBootSettingsEv
libdmrconf.so.0:_ZN12RD5RCodeplug17clearDTMFContactsEv
libdmrconf.so.0:_ZN12RD5RCodeplug17clearMenuSettingsEv
libdmrconf.so.0:_ZN12RD5RCodeplug18createDTMFContactsEP6ConfigRN8Codeplug7ContextERK10ErrorStack
libdmrconf.so.0:_ZN12RD5RCodeplug18encodeDTMFContactsEP6ConfigRKN8Codeplug5FlagsERNS2_7ContextERK10ErrorStack
libdmrconf.so.0:_ZN12RD5RCodeplug19clearButtonSettingsEv
libdmrconf.so.0:_ZN12RD5RCodeplug20clearGeneralSettingsEv
libdmrconf.so.0:_ZN12RD5RCodeplug20decodeButtonSettingsERN8Codeplug7ContextERK10ErrorStack
libdmrconf.so.0:_ZN12RD5RCodeplug20encodeButtonSettingsERN8Codeplug7ContextERKNS0_5FlagsERK10ErrorStack
libdmrconf.so.0:_ZN12RD5RCodeplug21decodeGeneralSettingsEP6ConfigRN8Codeplug7ContextERK10ErrorStack
libdmrconf.so.0:_ZN12RD5RCodeplug21encodeGeneralSettingsEP6ConfigRKN8Codeplug5FlagsERNS2_7ContextERK10ErrorStack
libdmrconf.so.0:_ZN12RD5RCodeplug5clearEv
libdmrconf.so.0:_ZN12RD5RCodeplug9linkZonesEP6ConfigRN8Codeplug7ContextERK10ErrorStack
libdmrconf.so.0:_ZN12RD5RCodeplugC1EP7QObject
libdmrconf.so.0:_ZN12RD5RCodeplugC2EP7QObject
libdmrconf.so.0:_ZN12RXGroupLists11qt_metacallEN11QMetaObject4CallEiPPv
libdmrconf.so.0:_ZN12RXGroupLists11qt_metacastEPKc
libdmrconf.so.0:_ZN12RXGroupLists13allocateChildERKN4YAML4NodeERN10ConfigItem7ContextERK10ErrorStack
libdmrconf.so.0:_ZN12RXGroupLists3addEP12ConfigObjectib
libdmrconf.so.0:_ZN12RXGroupListsC1EP7QObject
libdmrconf.so.0:_ZN12RXGroupListsC2EP7QObject
libdmrconf.so.0:_ZN12SMSExtension11qt_metacallEN11QMetaObject4CallEiPPv
libdmrconf.so.0:_ZN12SMSExtension11qt_metacastEPKc
libdmrconf.so.0:_ZN12SMSExtension9setFormatENS_6FormatE
libdmrconf.so.0:_ZN12SMSExtensionC1EP7QObject
libdmrconf.so.0:_ZN12SMSExtensionC2EP7QObject
libdmrconf.so.0:_ZN12SMSTemplates11qt_metacallEN11QMetaObject4CallEiPPv
libdmrconf.so.0:_ZN12SMSTemplates11qt_metacastEPKc
libdmrconf.so.0:_ZN12SMSTemplates13allocateChildERKN4YAML4NodeERN10ConfigItem7ContextERK10ErrorStack
libdmrconf.so.0:_ZN12SMSTemplatesC1EP7QObject
libdmrconf.so.0:_ZN12SMSTemplatesC2EP7QObject
libdmrconf.so.0:_ZN12TyTInterface10identifierERK10ErrorStack
libdmrconf.so.0:_ZN12TyTInterface10read_startEjjRK10ErrorStack
libdmrconf.so.0:_ZN12TyTInterface11erase_blockEjRK10ErrorStack
libdmrconf.so.0:_ZN12TyTInterface11qt_metacallEN11QMetaObject4CallEiPPv
libdmrconf.so.0:_ZN12TyTInterface11qt_metacastEPKc
libdmrconf.so.0:_ZN12TyTInterface11read_finishERK10ErrorStack
libdmrconf.so.0:_ZN12TyTInterface11set_addressEjRK10ErrorStack
libdmrconf.so.0:_ZN12TyTInterface11write_startEjjRK10ErrorStack
libdmrconf.so.0:_ZN12TyTInterface12write_finishERK10ErrorStack
libdmrconf.so.0:_ZN12TyTInterface13interfaceInfoEv
libdmrconf.so.0:_ZN12TyTInterface13md380_commandEhhRK10ErrorStack
libdmrconf.so.0:_ZN12TyTInterface4readEjjPhiRK10ErrorStack
libdmrconf.so.0:_ZN12TyTInterface5closeEv
libdmrconf.so.0:_ZN12TyTInterface5eraseEjjPFvjPvES0_RK10ErrorStack
libdmrconf.so.0:_ZN12TyTInterface5writeEjjPhiRK10ErrorStack
libdmrconf.so.0:_ZN12TyTInterface6detectEb
libdmrconf.so.0:_ZN12TyTInterface6rebootERK10ErrorStack
libdmrconf.so.0:_ZN12TyTInterface8identifyERK10ErrorStack
libdmrconf.so.0:_ZN12TyTInterfaceC1ERK19USBDeviceDescriptorRK10ErrorStackP7QObject
libdmrconf.so.0:_ZN12TyTInterfaceC2ERK19USBDeviceDescriptorRK10ErrorStackP7QObject
libdmrconf.so.0:_ZN12TyTInterfaceD0Ev
libdmrconf.so.0:_ZN12TyTInterfaceD1Ev
libdmrconf.so.0:_ZN12TyTInterfaceD2Ev
libdmrconf.so.0:_ZN12UserDatabase11qt_metacallEN11QMetaObject4CallEiPPv
libdmrconf.so.0:_ZN12UserDatabase11qt_metacastEPKc
libdmrconf.so.0:_ZN12UserDatabase16downloadFinishedEP13QNetworkReply
libdmrconf.so.0:_ZN12UserDatabase4UserC1ERK11QJsonObject
libdmrconf.so.0:_ZN12UserDatabase4UserC1Ev
libdmrconf.so.0:_ZN12UserDatabase4UserC2ERK11QJsonObject
libdmrconf.so.0:_ZN12UserDatabase4UserC2Ev
libdmrconf.so.0:_ZN12UserDatabase4loadERK7QString
libdmrconf.so.0:_ZN12UserDatabase4loadEv
libdmrconf.so.0:_ZN12UserDatabase5errorERK7QString
libdmrconf.so.0:_ZN12UserDatabase6loadedEv
libdmrconf.so.0:_ZN12UserDatabase8downloadEv
libdmrconf.so.0:_ZN12UserDatabase9sortUsersERK4QSetIjE
libdmrconf.so.0:_ZN12UserDatabase9sortUsersEj
libdmrconf.so.0:_ZN12UserDatabaseC1EjP7QObject
libdmrconf.so.0:_ZN12UserDatabaseC2EjP7QObject
libdmrconf.so.0:_ZN13AnalogChannel11qt_metacallEN11QMetaObject4CallEiPPv
libdmrconf.so.0:_ZN13AnalogChannel11qt_metacastEPKc
libdmrconf.so.0:_ZN13AnalogChannelC1EP7QObject
libdmrconf.so.0:_ZN13AnalogChannelC1ERKS_P7QObject
libdmrconf.so.0:_ZN13AnalogChannelC2EP7QObject
libdmrconf.so.0:_ZN13AnalogChannelC2ERKS_P7QObject
libdmrconf.so.0:_ZN13AnalogContact11qt_metacallEN11QMetaObject4CallEiPPv
libdmrconf.so.0:_ZN13AnalogContact11qt_metacastEPKc
libdmrconf.so.0:_ZN13AnalogContactC1EP7QObject
libdmrconf.so.0:_ZN13AnalogContactC1ERK7QStringbP7QObject
libdmrconf.so.0:_ZN13AnalogContactC2EP7QObject
libdmrconf.so.0:_ZN13AnalogContactC2ERK7QStringbP7QObject
libdmrconf.so.0:_ZN13AnytoneLimits11qt_metacallEN11QMetaObject4CallEiPPv
libdmrconf.so.0:_ZN13AnytoneLimits11qt_metacastEPKc
libdmrconf.so.0:_ZN13AnytoneLimitsC1ERK7QStringS2_bP7QObject
libdmrconf.so.0:_ZN13AnytoneLimitsC2ERK7QStringS2_bP7QObject
libdmrconf.so.0:_ZN13D878UV2Limits11qt_metacallEN11QMetaObject4CallEiPPv
libdmrconf.so.0:_ZN13D878UV2Limits11qt_metacastEPKc
libdmrconf.so.0:_ZN13D878UV2LimitsC1ERKSt16initializer_listISt4pairI9FrequencyS2_EES6_RK7QStringP7QObject
libdmrconf.so.0:_ZN13D878UV2LimitsC2ERKSt16initializer_listISt4pairI9FrequencyS2_EES6_RK7QStringP7QObject
libdmrconf.so.0:_ZN13EncryptionKey11qt_metacallEN11QMetaObject4CallEiPPv
libdmrconf.so.0:_ZN13EncryptionKey11qt_metacastEPKc
libdmrconf.so.0:_ZN13EncryptionKey5clearEv
libdmrconf.so.0:_ZN13EncryptionKey6setKeyERK10QByteArrayRK10ErrorStack
libdmrconf.so.0:_ZN13EncryptionKey7fromHexERK7QStringRK10ErrorStack
libdmrconf.so.0:_ZN13EncryptionKeyC1EP7QObject
libdmrconf.so.0:_ZN13EncryptionKeyC2EP7QObject
libdmrconf.so.0:_ZN13GD73Interface10identifierERK10ErrorStack
libdmrconf.so.0:_ZN13GD73Interface10read_startEjjRK10ErrorStack
libdmrconf.so.0:_ZN13GD73Interface11qt_metacallEN11QMetaObject4CallEiPPv
libdmrconf.so.0:_ZN13GD73Interface11qt_metacastEPKc
libdmrconf.so.0:_ZN13GD73Interface11read_finishERK10ErrorStack
libdmrconf.so.0:_ZN13GD73Interface11write_startEjjRK10ErrorStack
libdmrconf.so.0:_ZN13GD73Interface12write_finishERK10ErrorStack
libdmrconf.so.0:_ZN13GD73Interface4readEjjPhiRK10ErrorStack
libdmrconf.so.0:_ZN13GD73Interface5closeEv
libdmrconf.so.0:_ZN13GD73Interface5writeEjjPhiRK10ErrorStack
libdmrconf.so.0:_ZN13GD73InterfaceC1ERK19USBDeviceDescriptorRK10ErrorStackP7QObject
libdmrconf.so.0:_ZN13GD73InterfaceC2ERK19USBDeviceDescriptorRK10ErrorStackP7QObject
libdmrconf.so.0:_ZN13MD390Codeplug10clearZonesEv
libdmrconf.so.0:_ZN13MD390Codeplug11createZonesEP6ConfigRN8Codeplug7ContextERK10ErrorStack
libdmrconf.so.0:_ZN13MD390Codeplug11encodeZonesEP6ConfigRKN8Codeplug5FlagsERNS2_7ContextERK10ErrorStack
libdmrconf.so.0:_ZN13MD390Codeplug11qt_metacallEN11QMetaObject4CallEiPPv
libdmrconf.so.0:_ZN13MD390Codeplug11qt_metacastEPKc
libdmrconf.so.0:_ZN13MD390Codeplug12linkChannelsERN8Codeplug7ContextERK10ErrorStack
libdmrconf.so.0:_ZN13MD390Codeplug13clearChannelsEv
libdmrconf.so.0:_ZN13MD390Codeplug13clearContactsEv
libdmrconf.so.0:_ZN13MD390Codeplug13linkScanListsERN8Codeplug7ContextERK10ErrorStack
libdmrconf.so.0:_ZN13MD390Codeplug14ChannelElement14fromChannelObjEPK7ChannelRN8Codeplug7ContextE
libdmrconf.so.0:_ZN13MD390Codeplug14ChannelElement25enableCompressedUDPHeaderEb
libdmrconf.so.0:_ZN13MD390Codeplug14ChannelElement5clearEv
libdmrconf.so.0:_ZN13MD390Codeplug14ChannelElementC1EPh
libdmrconf.so.0:_ZN13MD390Codeplug14ChannelElementC1EPhm
libdmrconf.so.0:_ZN13MD390Codeplug14ChannelElementC2EPh
libdmrconf.so.0:_ZN13MD390Codeplug14ChannelElementC2EPhm
libdmrconf.so.0:_ZN13MD390Codeplug14clearScanListsEv
libdmrconf.so.0:_ZN13MD390Codeplug14clearTimestampEv
libdmrconf.so.0:_ZN13MD390Codeplug14createChannelsEP6ConfigRN8Codeplug7ContextERK10ErrorStack
libdmrconf.so.0:_ZN13MD390Codeplug14createContactsEP6ConfigRN8Codeplug7ContextERK10ErrorStack
libdmrconf.so.0:_ZN13MD390Codeplug14decodeElementsERN8Codeplug7ContextERK10ErrorStack
libdmrconf.so.0:_ZN13MD390Codeplug14encodeChannelsEP6ConfigRKN8Codeplug5FlagsERNS2_7ContextERK10ErrorStack
libdmrconf.so.0:_ZN13MD390Codeplug14encodeContactsEP6ConfigRKN8Codeplug5FlagsERNS2_7ContextERK10ErrorStack
libdmrconf.so.0:_ZN13MD390Codeplug14linkGroupListsERN8Codeplug7ContextERK10ErrorStack
libdmrconf.so.0:_ZN13MD390Codeplug15clearGroupListsEv
libdmrconf.so.0:_ZN13MD390Codeplug15createScanListsEP6ConfigRN8Codeplug7ContextERK10ErrorStack
libdmrconf.so.0:_ZN13MD390Codeplug15encodeScanListsEP6ConfigRKN8Codeplug5FlagsERNS2_7ContextERK10ErrorStack
libdmrconf.so.0:_ZN13MD390Codeplug15encodeTimestampEv
libdmrconf.so.0:_ZN13MD390Codeplug16clearPrivacyKeysEv
libdmrconf.so.0:_ZN13MD390Codeplug16createGroupListsEP6ConfigRN8Codeplug7ContextERK10ErrorStack
libdmrconf.so.0:_ZN13MD390Codeplug16encodeGroupListsEP6ConfigRKN8Codeplug5FlagsERNS2_7ContextERK10ErrorStack
libdmrconf.so.0:_ZN13MD390Codeplug17clearMenuSettingsEv
libdmrconf.so.0:_ZN13MD390Codeplug17clearTextMessagesEv
libdmrconf.so.0:_ZN13MD390Codeplug17decodePrivacyKeysEP6ConfigRN8Codeplug7ContextERK10ErrorStack
libdmrconf.so.0:_ZN13MD390Codeplug17encodePrivacyKeysEP6ConfigRKN8Codeplug5FlagsERNS2_7ContextERK10ErrorStack
libdmrconf.so.0:_ZN13MD390Codeplug18decodeTextMessagesERN8Codeplug7ContextERK10ErrorStack
libdmrconf.so.0:_ZN13MD390Codeplug18encodeTextMessagesERN8Codeplug7ContextERKNS0_5FlagsERK10ErrorStack
libdmrconf.so.0:_ZN13MD390Codeplug19MenuSettingsElement10fromConfigEPK6Config
libdmrconf.so.0:_ZN13MD390Codeplug19MenuSettingsElement12updateConfigEP6Config
libdmrconf.so.0:_ZN13MD390Codeplug19MenuSettingsElement20enableGPSInformationEb
libdmrconf.so.0:_ZN13MD390Codeplug19MenuSettingsElement5clearEv
libdmrconf.so.0:_ZN13MD390Codeplug19MenuSettingsElementC1EPh
libdmrconf.so.0:_ZN13MD390Codeplug19MenuSettingsElementC1EPhm
libdmrconf.so.0:_ZN13MD390Codeplug19MenuSettingsElementC2EPh
libdmrconf.so.0:_ZN13MD390Codeplug19MenuSettingsElementC2EPhm
libdmrconf.so.0:_ZN13MD390Codeplug19clearButtonSettingsEv
libdmrconf.so.0:_ZN13MD390Codeplug20clearGeneralSettingsEv
libdmrconf.so.0:_ZN13MD390Codeplug20encodeButtonSettingsEP6ConfigRKN8Codeplug5FlagsERNS2_7ContextERK10ErrorStack
libdmrconf.so.0:_ZN13MD390Codeplug21clearEmergencySystemsEv
libdmrconf.so.0:_ZN13MD390Codeplug21decodeButtonSetttingsEP6ConfigRK10ErrorStack
libdmrconf.so.0:_ZN13MD390Codeplug21decodeGeneralSettingsEP6ConfigRK10ErrorStack
libdmrconf.so.0:_ZN13MD390Codeplug21encodeGeneralSettingsEP6ConfigRKN8Codeplug5FlagsERNS2_7ContextERK10ErrorStack
libdmrconf.so.0:_ZN13MD390Codeplug22linkPositioningSystemsERN8Codeplug7ContextERK10ErrorStack
libdmrconf.so.0:_ZN13MD390Codeplug23clearPositioningSystemsEv
libdmrconf.so.0:_ZN13MD390Codeplug24createPositioningSystemsEP6ConfigRN8Codeplug7ContextERK10ErrorStack
libdmrconf.so.0:_ZN13MD390Codeplug24encodePositioningSystemsEP6ConfigRKN8Codeplug5FlagsERNS2_7ContextERK10ErrorStack
libdmrconf.so.0:_ZN13MD390Codeplug9linkZonesERN8Codeplug7ContextERK10ErrorStack
libdmrconf.so.0:_ZN13MD390CodeplugC1EP7QObject
libdmrconf.so.0:_ZN13MD390CodeplugC2EP7QObject
libdmrconf.so.0:_ZN13RadioSettings10disableTOTEv
libdmrconf.so.0:_ZN13RadioSettings10disableVOXEv
libdmrconf.so.0:_ZN13RadioSettings10setSquelchEj
libdmrconf.so.0:_ZN13RadioSettings11qt_metacallEN11QMetaObject4CallEiPPv
libdmrconf.so.0:_ZN13RadioSettings11qt_metacastEPKc
libdmrconf.so.0:_ZN13RadioSettings11setMicLevelEj
libdmrconf.so.0:_ZN13RadioSettings12enableSpeechEb
libdmrconf.so.0:_ZN13RadioSettings12setDefaultIdEP10DMRRadioID
libdmrconf.so.0:_ZN13RadioSettings13setIntroLine1ERK7QString
libdmrconf.so.0:_ZN13RadioSettings13setIntroLine2ERK7QString
libdmrconf.so.0:_ZN13RadioSettings15setTyTExtensionEP20TyTSettingsExtension
libdmrconf.so.0:_ZN13RadioSettings19onExtensionModifiedEv
libdmrconf.so.0:_ZN13RadioSettings19setAnytoneExtensionEP24AnytoneSettingsExtension
libdmrconf.so.0:_ZN13RadioSettings22setRadioddityExtensionEP27RadiodditySettingsExtension
libdmrconf.so.0:_ZN13RadioSettings4copyERK10ConfigItem
libdmrconf.so.0:_ZN13RadioSettings5clearEv
libdmrconf.so.0:_ZN13RadioSettings6setTOTEj
libdmrconf.so.0:_ZN13RadioSettings6setVOXEj
libdmrconf.so.0:_ZN13RadioSettings8setPowerEN7Channel5PowerE
libdmrconf.so.0:_ZN13RadioSettingsC1EP7QObject
libdmrconf.so.0:_ZN13RadioSettingsC2EP7QObject
libdmrconf.so.0:_ZN13TyTCallsignDB10clearIndexEv
libdmrconf.so.0:_ZN13TyTCallsignDB11qt_metacallEN11QMetaObject4CallEiPPv
libdmrconf.so.0:_ZN13TyTCallsignDB11qt_metacastEPKc
libdmrconf.so.0:_ZN13TyTCallsignDB12EntryElement3setERKN12UserDatabase4UserE
libdmrconf.so.0:_ZN13TyTCallsignDB12EntryElement5clearEv
libdmrconf.so.0:_ZN13TyTCallsignDB12EntryElementC1EPh
libdmrconf.so.0:_ZN13TyTCallsignDB12EntryElementC1EPhm
libdmrconf.so.0:_ZN13TyTCallsignDB12EntryElementC2EPh
libdmrconf.so.0:_ZN13TyTCallsignDB12EntryElementC2EPhm
libdmrconf.so.0:_ZN13TyTCallsignDB12EntryElementD0Ev
libdmrconf.so.0:_ZN13TyTCallsignDB12EntryElementD1Ev
libdmrconf.so.0:_ZN13TyTCallsignDB12EntryElementD2Ev
libdmrconf.so.0:_ZN13TyTCallsignDB12IndexElement13setIndexEntryEjjj
libdmrconf.so.0:_ZN13TyTCallsignDB12IndexElement13setNumEntriesEj
libdmrconf.so.0:_ZN13TyTCallsignDB12IndexElement5Entry3setEjj
libdmrconf.so.0:_ZN13TyTCallsignDB12IndexElement5Entry5clearEv
libdmrconf.so.0:_ZN13TyTCallsignDB12IndexElement5EntryC1EPh
libdmrconf.so.0:_ZN13TyTCallsignDB12IndexElement5EntryC1EPhm
libdmrconf.so.0:_ZN13TyTCallsignDB12IndexElement5EntryC2EPh
libdmrconf.so.0:_ZN13TyTCallsignDB12IndexElement5EntryC2EPhm
libdmrconf.so.0:_ZN13TyTCallsignDB12IndexElement5EntryD0Ev
libdmrconf.so.0:_ZN13TyTCallsignDB12IndexElement5EntryD1Ev
libdmrconf.so.0:_ZN13TyTCallsignDB12IndexElement5EntryD2Ev
libdmrconf.so.0:_ZN13TyTCallsignDB12IndexElement5clearEv
libdmrconf.so.0:_ZN13TyTCallsignDB12IndexElementC1EPh
libdmrconf.so.0:_ZN13TyTCallsignDB12IndexElementC1EPhm
libdmrconf.so.0:_ZN13TyTCallsignDB12IndexElementC2EPh
libdmrconf.so.0:_ZN13TyTCallsignDB12IndexElementC2EPhm
libdmrconf.so.0:_ZN13TyTCallsignDB12IndexElementD0Ev
libdmrconf.so.0:_ZN13TyTCallsignDB12IndexElementD1Ev
libdmrconf.so.0:_ZN13TyTCallsignDB12IndexElementD2Ev
libdmrconf.so.0:_ZN13TyTCallsignDB13setIndexEntryEjjj
libdmrconf.so.0:_ZN13TyTCallsignDB13setNumEntriesEj
libdmrconf.so.0:_ZN13TyTCallsignDB6encodeEP12UserDatabaseRKN10CallsignDB9SelectionERK10ErrorStack
libdmrconf.so.0:_ZN13TyTCallsignDB8allocateEj
libdmrconf.so.0:_ZN13TyTCallsignDB8setEntryEjRKN12UserDatabase4UserE
libdmrconf.so.0:_ZN13TyTCallsignDBC1EP7QObject
libdmrconf.so.0:_ZN13TyTCallsignDBC2EP7QObject
libdmrconf.so.0:_ZN13TyTCallsignDBD0Ev
libdmrconf.so.0:_ZN13TyTCallsignDBD1Ev
libdmrconf.so.0:_ZN13TyTCallsignDBD2Ev
libdmrconf.so.0:_ZN13USBDeviceInfoC1ENS_5ClassEttb
libdmrconf.so.0:_ZN13USBDeviceInfoC1ERKS_
libdmrconf.so.0:_ZN13USBDeviceInfoC1Ev
libdmrconf.so.0:_ZN13USBDeviceInfoC2ENS_5ClassEttb
libdmrconf.so.0:_ZN13USBDeviceInfoC2ERKS_
libdmrconf.so.0:_ZN13USBDeviceInfoC2Ev
libdmrconf.so.0:_ZN13USBDeviceInfoD0Ev
libdmrconf.so.0:_ZN13USBDeviceInfoD1Ev
libdmrconf.so.0:_ZN13USBDeviceInfoD2Ev
libdmrconf.so.0:_ZN13USBDeviceInfoaSERKS_
libdmrconf.so.0:_ZN13UV390Codeplug10clearZonesEv
libdmrconf.so.0:_ZN13UV390Codeplug11createZonesEP6ConfigRN8Codeplug7ContextERK10ErrorStack
libdmrconf.so.0:_ZN13UV390Codeplug11encodeZonesEP6ConfigRKN8Codeplug5FlagsERNS2_7ContextERK10ErrorStack
libdmrconf.so.0:_ZN13UV390Codeplug11qt_metacallEN11QMetaObject4CallEiPPv
libdmrconf.so.0:_ZN13UV390Codeplug11qt_metacastEPKc
libdmrconf.so.0:_ZN13UV390Codeplug12linkChannelsERN8Codeplug7ContextERK10ErrorStack
libdmrconf.so.0:_ZN13UV390Codeplug13clearChannelsEv
libdmrconf.so.0:_ZN13UV390Codeplug13clearContactsEv
libdmrconf.so.0:_ZN13UV390Codeplug13linkScanListsERN8Codeplug7ContextERK10ErrorStack
libdmrconf.so.0:_ZN13UV390Codeplug14ChannelElement10setSquelchEj
libdmrconf.so.0:_ZN13UV390Codeplug14ChannelElement14fromChannelObjEPK7ChannelRN8Codeplug7ContextE
libdmrconf.so.0:_ZN13UV390Codeplug14ChannelElement14setTurnOffFreqEN19TyTChannelExtension8KillToneE
libdmrconf.so.0:_ZN13UV390Codeplug14ChannelElement16enableDCDMLeaderEb
libdmrconf.so.0:_ZN13UV390Codeplug14ChannelElement17setInCallCriteriaEN19TyTChannelExtension15InCallCriterionE
libdmrconf.so.0:_ZN13UV390Codeplug14ChannelElement20enableAllowInterruptEb
libdmrconf.so.0:_ZN13UV390Codeplug14ChannelElement28enableDualCapacityDirectModeEb
libdmrconf.so.0:_ZN13UV390Codeplug14ChannelElement5clearEv
libdmrconf.so.0:_ZN13UV390Codeplug14ChannelElement8setPowerEN7Channel5PowerE
libdmrconf.so.0:_ZN13UV390Codeplug14ChannelElementC1EPh
libdmrconf.so.0:_ZN13UV390Codeplug14ChannelElementC1EPhm
libdmrconf.so.0:_ZN13UV390Codeplug14ChannelElementC2EPh
libdmrconf.so.0:_ZN13UV390Codeplug14ChannelElementC2EPhm
libdmrconf.so.0:_ZN13UV390Codeplug14clearScanListsEv
libdmrconf.so.0:_ZN13UV390Codeplug14clearTimestampEv
libdmrconf.so.0:_ZN13UV390Codeplug14createChannelsEP6ConfigRN8Codeplug7ContextERK10ErrorStack
libdmrconf.so.0:_ZN13UV390Codeplug14createContactsEP6ConfigRN8Codeplug7ContextERK10ErrorStack
libdmrconf.so.0:_ZN13UV390Codeplug14encodeChannelsEP6ConfigRKN8Codeplug5FlagsERNS2_7ContextERK10ErrorStack
libdmrconf.so.0:_ZN13UV390Codeplug14encodeContactsEP6ConfigRKN8Codeplug5FlagsERNS2_7ContextERK10ErrorStack
libdmrconf.so.0:_ZN13UV390Codeplug14linkGroupListsERN8Codeplug7ContextERK10ErrorStack
libdmrconf.so.0:_ZN13UV390Codeplug15clearGroupListsEv
libdmrconf.so.0:_ZN13UV390Codeplug15createScanListsEP6ConfigRN8Codeplug7ContextERK10ErrorStack
libdmrconf.so.0:_ZN13UV390Codeplug15encodeScanListsEP6ConfigRKN8Codeplug5FlagsERNS2_7ContextERK10ErrorStack
libdmrconf.so.0:_ZN13UV390Codeplug15encodeTimestampEv
libdmrconf.so.0:_ZN13UV390Codeplug16clearPrivacyKeysEv
libdmrconf.so.0:_ZN13UV390Codeplug16clearVFOSettingsEv
libdmrconf.so.0:_ZN13UV390Codeplug16createGroupListsEP6ConfigRN8Codeplug7ContextERK10ErrorStack
libdmrconf.so.0:_ZN13UV390Codeplug16encodeGroupListsEP6ConfigRKN8Codeplug5FlagsERNS2_7ContextERK10ErrorStack
libdmrconf.so.0:_ZN13UV390Codeplug17VFOChannelElement11setStepSizeEj
libdmrconf.so.0:_ZN13UV390Codeplug17VFOChannelElement7setNameERK7QString
libdmrconf.so.0:_ZN13UV390Codeplug17VFOChannelElementC1EPh
libdmrconf.so.0:_ZN13UV390Codeplug17VFOChannelElementC1EPhm
libdmrconf.so.0:_ZN13UV390Codeplug17VFOChannelElementC2EPh
libdmrconf.so.0:_ZN13UV390Codeplug17VFOChannelElementC2EPhm
libdmrconf.so.0:_ZN13UV390Codeplug17VFOChannelElementD0Ev
libdmrconf.so.0:_ZN13UV390Codeplug17VFOChannelElementD1Ev
libdmrconf.so.0:_ZN13UV390Codeplug17VFOChannelElementD2Ev
libdmrconf.so.0:_ZN13UV390Codeplug17clearBootSettingsEv
libdmrconf.so.0:_ZN13UV390Codeplug17clearMenuSettingsEv
libdmrconf.so.0:_ZN13UV390Codeplug17clearTextMessagesEv
libdmrconf.so.0:_ZN13UV390Codeplug17decodePrivacyKeysEP6ConfigRN8Codeplug7ContextERK10ErrorStack
libdmrconf.so.0:_ZN13UV390Codeplug17encodePrivacyKeysEP6ConfigRKN8Codeplug5FlagsERNS2_7ContextERK10ErrorStack
libdmrconf.so.0:_ZN13UV390Codeplug18decodeTextMessagesERN8Codeplug7ContextERK10ErrorStack
libdmrconf.so.0:_ZN13UV390Codeplug18encodeTextMessagesERN8Codeplug7ContextERKNS0_5FlagsERK10ErrorStack
libdmrconf.so.0:_ZN13UV390Codeplug19BootSettingsElement12setZoneIndexEj
libdmrconf.so.0:_ZN13UV390Codeplug19BootSettingsElement16setChannelIndexAEj
libdmrconf.so.0:_ZN13UV390Codeplug19BootSettingsElement16setChannelIndexBEj
libdmrconf.so.0:_ZN13UV390Codeplug19BootSettingsElement5clearEv
libdmrconf.so.0:_ZN13UV390Codeplug19BootSettingsElementC1EPh
libdmrconf.so.0:_ZN13UV390Codeplug19BootSettingsElementC1EPhm
libdmrconf.so.0:_ZN13UV390Codeplug19BootSettingsElementC2EPh
libdmrconf.so.0:_ZN13UV390Codeplug19BootSettingsElementC2EPhm
libdmrconf.so.0:_ZN13UV390Codeplug19BootSettingsElementD0Ev
libdmrconf.so.0:_ZN13UV390Codeplug19BootSettingsElementD1Ev
libdmrconf.so.0:_ZN13UV390Codeplug19BootSettingsElementD2Ev
libdmrconf.so.0:_ZN13UV390Codeplug19MenuSettingsElement12enableTXModeEb
libdmrconf.so.0:_ZN13UV390Codeplug19MenuSettingsElement13enableNewZoneEb
libdmrconf.so.0:_ZN13UV390Codeplug19MenuSettingsElement14enableEditZoneEb
libdmrconf.so.0:_ZN13UV390Codeplug19MenuSettingsElement15enableRecordingEb
libdmrconf.so.0:_ZN13UV390Codeplug19MenuSettingsElement17enableGPSSettingsEb
libdmrconf.so.0:_ZN13UV390Codeplug19MenuSettingsElement17enableNewScanListEb
libdmrconf.so.0:_ZN13UV390Codeplug19MenuSettingsElement18enableZoneSettingsEb
libdmrconf.so.0:_ZN13UV390Codeplug19MenuSettingsElement20enableGroupCallMatchEb
libdmrconf.so.0:_ZN13UV390Codeplug19MenuSettingsElement22enableMenuHangtimeItemEb
libdmrconf.so.0:_ZN13UV390Codeplug19MenuSettingsElement22enablePrivateCallMatchEb
libdmrconf.so.0:_ZN13UV390Codeplug19MenuSettingsElement5clearEv
libdmrconf.so.0:_ZN13UV390Codeplug19MenuSettingsElementC1EPh
libdmrconf.so.0:_ZN13UV390Codeplug19MenuSettingsElementC1EPhm
libdmrconf.so.0:_ZN13UV390Codeplug19MenuSettingsElementC2EPh
libdmrconf.so.0:_ZN13UV390Codeplug19MenuSettingsElementC2EPhm
libdmrconf.so.0:_ZN13UV390Codeplug19clearButtonSettingsEv
libdmrconf.so.0:_ZN13UV390Codeplug20clearGeneralSettingsEv
libdmrconf.so.0:_ZN13UV390Codeplug20encodeButtonSettingsEP6ConfigRKN8Codeplug5FlagsERNS2_7ContextERK10ErrorStack
libdmrconf.so.0:_ZN13UV390Codeplug21clearEmergencySystemsEv
libdmrconf.so.0:_ZN13UV390Codeplug21decodeButtonSetttingsEP6ConfigRK10ErrorStack
libdmrconf.so.0:_ZN13UV390Codeplug21decodeGeneralSettingsEP6ConfigRK10ErrorStack
libdmrconf.so.0:_ZN13UV390Codeplug21encodeGeneralSettingsEP6ConfigRKN8Codeplug5FlagsERNS2_7ContextERK10ErrorStack
libdmrconf.so.0:_ZN13UV390Codeplug22GeneralSettingsElement10fromConfigEPK6Config
libdmrconf.so.0:_ZN13UV390Codeplug22GeneralSettingsElement11setMICLevelEj
libdmrconf.so.0:_ZN13UV390Codeplug22GeneralSettingsElement12updateConfigEP6Config
libdmrconf.so.0:_ZN13UV390Codeplug22GeneralSettingsElement15setTransmitModeENS0_12TransmitModeE
libdmrconf.so.0:_ZN13UV390Codeplug22GeneralSettingsElement16enablePublicZoneEb
libdmrconf.so.0:_ZN13UV390Codeplug22GeneralSettingsElement17enableEditRadioIDEb
libdmrconf.so.0:_ZN13UV390Codeplug22GeneralSettingsElement17enableKeypadTonesEb
libdmrconf.so.0:_ZN13UV390Codeplug22GeneralSettingsElement18setAdditionalDMRIdEjj
libdmrconf.so.0:_ZN13UV390Codeplug22GeneralSettingsElement26enableChannelVoiceAnnounceEb
libdmrconf.so.0:_ZN13UV390Codeplug22GeneralSettingsElement5clearEv
libdmrconf.so.0:_ZN13UV390Codeplug22GeneralSettingsElementC1EPh
libdmrconf.so.0:_ZN13UV390Codeplug22GeneralSettingsElementC1EPhm
libdmrconf.so.0:_ZN13UV390Codeplug22GeneralSettingsElementC2EPh
libdmrconf.so.0:_ZN13UV390Codeplug22GeneralSettingsElementC2EPhm
libdmrconf.so.0:_ZN13UV390Codeplug22linkPositioningSystemsERN8Codeplug7ContextERK10ErrorStack
libdmrconf.so.0:_ZN13UV390Codeplug23clearPositioningSystemsEv
libdmrconf.so.0:_ZN13UV390Codeplug24createPositioningSystemsEP6ConfigRN8Codeplug7ContextERK10ErrorStack
libdmrconf.so.0:_ZN13UV390Codeplug24encodePositioningSystemsEP6ConfigRKN8Codeplug5FlagsERNS2_7ContextERK10ErrorStack
libdmrconf.so.0:_ZN13UV390Codeplug5clearEv
libdmrconf.so.0:_ZN13UV390Codeplug9linkZonesERN8Codeplug7ContextERK10ErrorStack
libdmrconf.so.0:_ZN13UV390CodeplugC1EP7QObject
libdmrconf.so.0:_ZN13UV390CodeplugC2EP7QObject
libdmrconf.so.0:_ZN13UV390CodeplugD0Ev
libdmrconf.so.0:_ZN13UV390CodeplugD1Ev
libdmrconf.so.0:_ZN13UV390CodeplugD2Ev
libdmrconf.so.0:_ZN13ZoneReference11qt_metacallEN11QMetaObject4CallEiPPv
libdmrconf.so.0:_ZN13ZoneReference11qt_metacastEPKc
libdmrconf.so.0:_ZN13ZoneReferenceC1EP7QObject
libdmrconf.so.0:_ZN13ZoneReferenceC2EP7QObject
libdmrconf.so.0:_ZN14ChannelRefList11qt_metacallEN11QMetaObject4CallEiPPv
libdmrconf.so.0:_ZN14ChannelRefList11qt_metacastEPKc
libdmrconf.so.0:_ZN14ChannelRefListC1EP7QObject
libdmrconf.so.0:_ZN14ChannelRefListC1ERK11QMetaObjectP7QObject
libdmrconf.so.0:_ZN14ChannelRefListC2EP7QObject
libdmrconf.so.0:_ZN14ChannelRefListC2ERK11QMetaObjectP7QObject
libdmrconf.so.0:_ZN14D578UVCodeplug11qt_metacallEN11QMetaObject4CallEiPPv
libdmrconf.so.0:_ZN14D578UVCodeplug11qt_metacastEPKc
libdmrconf.so.0:_ZN14D578UVCodeplug12linkChannelsERN8Codeplug7ContextERK10ErrorStack
libdmrconf.so.0:_ZN14D578UVCodeplug14ChannelElement13enableDataACKEb
libdmrconf.so.0:_ZN14D578UVCodeplug14ChannelElement13enableRoamingEb
libdmrconf.so.0:_ZN14D578UVCodeplug14ChannelElement15enableHandsFreeEb
libdmrconf.so.0:_ZN14D578UVCodeplug14ChannelElement19enableAnalogScamberEb
libdmrconf.so.0:_ZN14D578UVCodeplug14ChannelElement24setDMREncryptionKeyIndexEj
libdmrconf.so.0:_ZN14D578UVCodeplug14ChannelElementC1EPh
libdmrconf.so.0:_ZN14D578UVCodeplug14ChannelElementC1EPhj
libdmrconf.so.0:_ZN14D578UVCodeplug14ChannelElementC2EPh
libdmrconf.so.0:_ZN14D578UVCodeplug14ChannelElementC2EPhj
libdmrconf.so.0:_ZN14D578UVCodeplug14createChannelsERN8Codeplug7ContextERK10ErrorStack
libdmrconf.so.0:_ZN14D578UVCodeplug14encodeChannelsERKN8Codeplug5FlagsERNS0_7ContextERK10ErrorStack
libdmrconf.so.0:_ZN14D578UVCodeplug14encodeContactsERKN8Codeplug5FlagsERNS0_7ContextERK10ErrorStack
libdmrconf.so.0:_ZN14D578UVCodeplug15allocateAirBandEv
libdmrconf.so.0:_ZN14D578UVCodeplug15allocateBitmapsEv
libdmrconf.so.0:_ZN14D578UVCodeplug15allocateUpdatedEv
libdmrconf.so.0:_ZN14D578UVCodeplug16allocateContactsEv
libdmrconf.so.0:_ZN14D578UVCodeplug19linkGeneralSettingsERN8Codeplug7ContextERK10ErrorStack
libdmrconf.so.0:_ZN14D578UVCodeplug20AirBandBitmapElementC1EPh
libdmrconf.so.0:_ZN14D578UVCodeplug20AirBandBitmapElementC1EPhm
libdmrconf.so.0:_ZN14D578UVCodeplug20AirBandBitmapElementC2EPh
libdmrconf.so.0:_ZN14D578UVCodeplug20AirBandBitmapElementC2EPhm
libdmrconf.so.0:_ZN14D578UVCodeplug21AirBandChannelElement12setFrequencyE9Frequency
libdmrconf.so.0:_ZN14D578UVCodeplug21AirBandChannelElement5clearEv
libdmrconf.so.0:_ZN14D578UVCodeplug21AirBandChannelElement7setNameERK7QString
libdmrconf.so.0:_ZN14D578UVCodeplug21AirBandChannelElementC1EPh
libdmrconf.so.0:_ZN14D578UVCodeplug21AirBandChannelElementC1EPhm
libdmrconf.so.0:_ZN14D578UVCodeplug21AirBandChannelElementC2EPh
libdmrconf.so.0:_ZN14D578UVCodeplug21AirBandChannelElementC2EPhm
libdmrconf.so.0:_ZN14D578UVCodeplug21HotKeySettingsElementC1EPh
libdmrconf.so.0:_ZN14D578UVCodeplug21HotKeySettingsElementC1EPhm
libdmrconf.so.0:_ZN14D578UVCodeplug21HotKeySettingsElementC2EPh
libdmrconf.so.0:_ZN14D578UVCodeplug21HotKeySettingsElementC2EPhm
libdmrconf.so.0:_ZN14D578UVCodeplug21decodeGeneralSettingsERN8Codeplug7ContextERK10ErrorStack
libdmrconf.so.0:_ZN14D578UVCodeplug21encodeGeneralSettingsERKN8Codeplug5FlagsERNS0_7ContextERK10ErrorStack
libdmrconf.so.0:_ZN14D578UVCodeplug22GeneralSettingsElement10fromConfigERKN8Codeplug5FlagsERNS1_7ContextE
libdmrconf.so.0:_ZN14D578UVCodeplug22GeneralSettingsElement10setSTETypeEN24AnytoneSettingsExtension7STETypeE
libdmrconf.so.0:_ZN14D578UVCodeplug22GeneralSettingsElement11KeyFunction6decodeEh
libdmrconf.so.0:_ZN14D578UVCodeplug22GeneralSettingsElement11KeyFunction6encodeEN27AnytoneKeySettingsExtension11KeyFunctionE
libdmrconf.so.0:_ZN14D578UVCodeplug22GeneralSettingsElement11setLanguageEN31AnytoneDisplaySettingsExtension8LanguageE
libdmrconf.so.0:_ZN14D578UVCodeplug22GeneralSettingsElement12enableWFMVFOEb
libdmrconf.so.0:_ZN14D578UVCodeplug22GeneralSettingsElement12linkSettingsEP13RadioSettingsRN8Codeplug7ContextERK10ErrorStack
libdmrconf.so.0:_ZN14D578UVCodeplug22GeneralSettingsElement12setBTMicGainEj
libdmrconf.so.0:_ZN14D578UVCodeplug22GeneralSettingsElement12setBTRXDelayE8Interval
libdmrconf.so.0:_ZN14D578UVCodeplug22GeneralSettingsElement12setSMSFormatEN27AnytoneDMRSettingsExtension9SMSFormatE
libdmrconf.so.0:_ZN14D578UVCodeplug22GeneralSettingsElement12updateConfigERN8Codeplug7ContextE
libdmrconf.so.0:_ZN14D578UVCodeplug22GeneralSettingsElement13enableKeyToneEb
libdmrconf.so.0:_ZN14D578UVCodeplug22GeneralSettingsElement13enableRoamingEb
libdmrconf.so.0:_ZN14D578UVCodeplug22GeneralSettingsElement13setBTHoldTimeE8Interval
libdmrconf.so.0:_ZN14D578UVCodeplug22GeneralSettingsElement13setBrightnessEj
libdmrconf.so.0:_ZN14D578UVCodeplug22GeneralSettingsElement13setDMRMicGainEj
libdmrconf.so.0:_ZN14D578UVCodeplug22GeneralSettingsElement13setFMCallHoldEj
libdmrconf.so.0:_ZN14D578UVCodeplug22GeneralSettingsElement14enableKnobLockEb
libdmrconf.so.0:_ZN14D578UVCodeplug22GeneralSettingsElement14enableSMSAlertEb
libdmrconf.so.0:_ZN14D578UVCodeplug22GeneralSettingsElement14enableVFOModeAEb
libdmrconf.so.0:_ZN14D578UVCodeplug22GeneralSettingsElement14enableVFOModeBEb
libdmrconf.so.0:_ZN14D578UVCodeplug22GeneralSettingsElement14setGPSTimeZoneERK9QTimeZone
libdmrconf.so.0:_ZN14D578UVCodeplug22GeneralSettingsElement14setMemoryZoneAEj
libdmrconf.so.0:_ZN14D578UVCodeplug22GeneralSettingsElement14setMemoryZoneBEj
libdmrconf.so.0:_ZN14D578UVCodeplug22GeneralSettingsElement14setVFOScanTypeEN24AnytoneSettingsExtension11VFOScanTypeE
libdmrconf.so.0:_ZN14D578UVCodeplug22GeneralSettingsElement15enableBluetoothEb
libdmrconf.so.0:_ZN14D578UVCodeplug22GeneralSettingsElement15enableCallAlertEb
libdmrconf.so.0:_ZN14D578UVCodeplug22GeneralSettingsElement15enableRecordingEb
libdmrconf.so.0:_ZN14D578UVCodeplug22GeneralSettingsElement15setFuncKey1LongEN27AnytoneKeySettingsExtension11KeyFunctionE
libdmrconf.so.0:_ZN14D578UVCodeplug22GeneralSettingsElement15setFuncKey2LongEN27AnytoneKeySettingsExtension11KeyFunctionE
libdmrconf.so.0:_ZN14D578UVCodeplug22GeneralSettingsElement15setFuncKey3LongEN27AnytoneKeySettingsExtension11KeyFunctionE
libdmrconf.so.0:_ZN14D578UVCodeplug22GeneralSettingsElement15setFuncKey4LongEN27AnytoneKeySettingsExtension11KeyFunctionE
libdmrconf.so.0:_ZN14D578UVCodeplug22GeneralSettingsElement15setFuncKey5LongEN27AnytoneKeySettingsExtension11KeyFunctionE
libdmrconf.so.0:_ZN14D578UVCodeplug22GeneralSettingsElement15setFuncKey6LongEN27AnytoneKeySettingsExtension11KeyFunctionE
libdmrconf.so.0:_ZN14D578UVCodeplug22GeneralSettingsElement15setFuncKeyALongEN27AnytoneKeySettingsExtension11KeyFunctionE
libdmrconf.so.0:_ZN14D578UVCodeplug22GeneralSettingsElement15setFuncKeyBLongEN27AnytoneKeySettingsExtension11KeyFunctionE
libdmrconf.so.0:_ZN14D578UVCodeplug22GeneralSettingsElement15setFuncKeyCLongEN27AnytoneKeySettingsExtension11KeyFunctionE
libdmrconf.so.0:_ZN14D578UVCodeplug22GeneralSettingsElement15setFuncKeyDLongEN27AnytoneKeySettingsExtension11KeyFunctionE
libdmrconf.so.0:_ZN14D578UVCodeplug22GeneralSettingsElement15setMenuExitTimeE8Interval
libdmrconf.so.0:_ZN14D578UVCodeplug22GeneralSettingsElement15setPreWaveDelayE8Interval
libdmrconf.so.0:_ZN14D578UVCodeplug22GeneralSettingsElement15setSTEFrequencyEd
libdmrconf.so.0:_ZN14D578UVCodeplug22GeneralSettingsElement16enableGPSMessageEb
libdmrconf.so.0:_ZN14D578UVCodeplug22GeneralSettingsElement16enableKeypadLockEb
libdmrconf.so.0:_ZN14D578UVCodeplug22GeneralSettingsElement16enableSubChannelEb
libdmrconf.so.0:_ZN14D578UVCodeplug22GeneralSettingsElement16enableWFMMonitorEb
libdmrconf.so.0:_ZN14D578UVCodeplug22GeneralSettingsElement16setAutoRoamDelayE8Interval
libdmrconf.so.0:_ZN14D578UVCodeplug22GeneralSettingsElement16setBTSpeakerGainEj
libdmrconf.so.0:_ZN14D578UVCodeplug22GeneralSettingsElement16setFuncKey1ShortEN27AnytoneKeySettingsExtension11KeyFunctionE
libdmrconf.so.0:_ZN14D578UVCodeplug22GeneralSettingsElement16setFuncKey2ShortEN27AnytoneKeySettingsExtension11KeyFunctionE
libdmrconf.so.0:_ZN14D578UVCodeplug22GeneralSettingsElement16setFuncKey3ShortEN27AnytoneKeySettingsExtension11KeyFunctionE
libdmrconf.so.0:_ZN14D578UVCodeplug22GeneralSettingsElement16setFuncKey4ShortEN27AnytoneKeySettingsExtension11KeyFunctionE
libdmrconf.so.0:_ZN14D578UVCodeplug22GeneralSettingsElement16setFuncKey5ShortEN27AnytoneKeySettingsExtension11KeyFunctionE
libdmrconf.so.0:_ZN14D578UVCodeplug22GeneralSettingsElement16setFuncKey6ShortEN27AnytoneKeySettingsExtension11KeyFunctionE
libdmrconf.so.0:_ZN14D578UVCodeplug22GeneralSettingsElement16setFuncKeyAShortEN27AnytoneKeySettingsExtension11KeyFunctionE
libdmrconf.so.0:_ZN14D578UVCodeplug22GeneralSettingsElement16setFuncKeyBShortEN27AnytoneKeySettingsExtension11KeyFunctionE
libdmrconf.so.0:_ZN14D578UVCodeplug22GeneralSettingsElement16setFuncKeyCShortEN27AnytoneKeySettingsExtension11KeyFunctionE
libdmrconf.so.0:_ZN14D578UVCodeplug22GeneralSettingsElement16setFuncKeyDShortEN27AnytoneKeySettingsExtension11KeyFunctionE
libdmrconf.so.0:_ZN14D578UVCodeplug22GeneralSettingsElement16setTBSTFrequencyE9Frequency
libdmrconf.so.0:_ZN14D578UVCodeplug22GeneralSettingsElement17disableBTHoldTimeEv
libdmrconf.so.0:_ZN14D578UVCodeplug22GeneralSettingsElement17enableDisplayCallEb
libdmrconf.so.0:_ZN14D578UVCodeplug22GeneralSettingsElement17enableFilterOwnIDEb
libdmrconf.so.0:_ZN14D578UVCodeplug22GeneralSettingsElement17enableStartupToneEb
libdmrconf.so.0:_ZN14D578UVCodeplug22GeneralSettingsElement17setAutoRoamPeriodE8Interval
libdmrconf.so.0:_ZN14D578UVCodeplug22GeneralSettingsElement17setCallToneMelodyERK6Melody
libdmrconf.so.0:_ZN14D578UVCodeplug22GeneralSettingsElement17setIdleToneMelodyERK6Melody
libdmrconf.so.0:_ZN14D578UVCodeplug22GeneralSettingsElement17setWakeHeadPeriodE8Interval
libdmrconf.so.0:_ZN14D578UVCodeplug22GeneralSettingsElement18enableDMRResetToneEb
libdmrconf.so.0:_ZN14D578UVCodeplug22GeneralSettingsElement18enableDisplayClockEb
libdmrconf.so.0:_ZN14D578UVCodeplug22GeneralSettingsElement18enableFMTalkPermitEb
libdmrconf.so.0:_ZN14D578UVCodeplug22GeneralSettingsElement18enableSidekeysLockEb
libdmrconf.so.0:_ZN14D578UVCodeplug22GeneralSettingsElement18setGPSUpdatePeriodE8Interval
libdmrconf.so.0:_ZN14D578UVCodeplug22GeneralSettingsElement18setResetToneMelodyERK6Melody
libdmrconf.so.0:_ZN14D578UVCodeplug22GeneralSettingsElement18setTransmitTimeoutEj
libdmrconf.so.0:_ZN14D578UVCodeplug22GeneralSettingsElement18setWFMChannelIndexEj
libdmrconf.so.0:_ZN14D578UVCodeplug22GeneralSettingsElement19enableCallEndPromptEb
libdmrconf.so.0:_ZN14D578UVCodeplug22GeneralSettingsElement19enableDMRTalkPermitEb
libdmrconf.so.0:_ZN14D578UVCodeplug22GeneralSettingsElement19enableEnhancedAudioEb
libdmrconf.so.0:_ZN14D578UVCodeplug22GeneralSettingsElement19enableKeyLockForcedEb
libdmrconf.so.0:_ZN14D578UVCodeplug22GeneralSettingsElement19enablePluginRecToneEb
libdmrconf.so.0:_ZN14D578UVCodeplug22GeneralSettingsElement19enableRemoteMonitorEb
libdmrconf.so.0:_ZN14D578UVCodeplug22GeneralSettingsElement19enableShowLastHeardEb
libdmrconf.so.0:_ZN14D578UVCodeplug22GeneralSettingsElement19setCallDisplayColorEN31AnytoneDisplaySettingsExtension5ColorE
libdmrconf.so.0:_ZN14D578UVCodeplug22GeneralSettingsElement19setChannelNameColorEN31AnytoneDisplaySettingsExtension5ColorE
libdmrconf.so.0:_ZN14D578UVCodeplug22GeneralSettingsElement19setMaxSpeakerVolumeEj
libdmrconf.so.0:_ZN14D578UVCodeplug22GeneralSettingsElement19setMonitorSlotMatchEN27AnytoneDMRSettingsExtension9SlotMatchE
libdmrconf.so.0:_ZN14D578UVCodeplug22GeneralSettingsElement19setStandbyTextColorEN31AnytoneDisplaySettingsExtension5ColorE
libdmrconf.so.0:_ZN14D578UVCodeplug22GeneralSettingsElement20enableActiveChannelBEb
libdmrconf.so.0:_ZN14D578UVCodeplug22GeneralSettingsElement20enableDefaultChannelEb
libdmrconf.so.0:_ZN14D578UVCodeplug22GeneralSettingsElement20enableGetGPSPositionEb
libdmrconf.so.0:_ZN14D578UVCodeplug22GeneralSettingsElement20enableKeepLastCallerEb
libdmrconf.so.0:_ZN14D578UVCodeplug22GeneralSettingsElement20enableMonitorIDMatchEb
libdmrconf.so.0:_ZN14D578UVCodeplug22GeneralSettingsElement20enableRemoteStunKillEb
libdmrconf.so.0:_ZN14D578UVCodeplug22GeneralSettingsElement20setDefaultZoneIndexAEj
libdmrconf.so.0:_ZN14D578UVCodeplug22GeneralSettingsElement20setDefaultZoneIndexBEj
libdmrconf.so.0:_ZN14D578UVCodeplug22GeneralSettingsElement20setGroupCallHangTimeE8Interval
libdmrconf.so.0:_ZN14D578UVCodeplug22GeneralSettingsElement20setLongPressDurationE8Interval
libdmrconf.so.0:_ZN14D578UVCodeplug22GeneralSettingsElement21enableIdleChannelToneEb
libdmrconf.so.0:_ZN14D578UVCodeplug22GeneralSettingsElement21enableSeparateDisplayEb
libdmrconf.so.0:_ZN14D578UVCodeplug22GeneralSettingsElement21setBTHoldTimeInfiniteEv
libdmrconf.so.0:_ZN14D578UVCodeplug22GeneralSettingsElement21setPriorityZoneAIndexEj
libdmrconf.so.0:_ZN14D578UVCodeplug22GeneralSettingsElement21setPriorityZoneBIndexEj
libdmrconf.so.0:_ZN14D578UVCodeplug22GeneralSettingsElement22enableBTAndInternalMicEb
libdmrconf.so.0:_ZN14D578UVCodeplug22GeneralSettingsElement22enableGPSUnitsImperialEb
libdmrconf.so.0:_ZN14D578UVCodeplug22GeneralSettingsElement22setPrivateCallHangTimeE8Interval
libdmrconf.so.0:_ZN14D578UVCodeplug22GeneralSettingsElement23setDefaultChannelAIndexEj
libdmrconf.so.0:_ZN14D578UVCodeplug22GeneralSettingsElement23setDefaultChannelAToVFOEv
libdmrconf.so.0:_ZN14D578UVCodeplug22GeneralSettingsElement23setDefaultChannelBIndexEj
libdmrconf.so.0:_ZN14D578UVCodeplug22GeneralSettingsElement23setDefaultChannelBToVFOEv
libdmrconf.so.0:_ZN14D578UVCodeplug22GeneralSettingsElement23setTransmitTimeoutRekeyE8Interval
libdmrconf.so.0:_ZN14D578UVCodeplug22GeneralSettingsElement24enableFMSendIDAndContactEb
libdmrconf.so.0:_ZN14D578UVCodeplug22GeneralSettingsElement24enableRepeaterRangeCheckEb
libdmrconf.so.0:_ZN14D578UVCodeplug22GeneralSettingsElement24enableShowCurrentContactEb
libdmrconf.so.0:_ZN14D578UVCodeplug22GeneralSettingsElement24enableVolumeChangePromptEb
libdmrconf.so.0:_ZN14D578UVCodeplug22GeneralSettingsElement24setLastCallerDisplayModeEN31AnytoneDisplaySettingsExtension21LastCallerDisplayModeE
libdmrconf.so.0:_ZN14D578UVCodeplug22GeneralSettingsElement24setRoamingStartConditionEN31AnytoneRoamingSettingsExtension9RoamStartE
libdmrconf.so.0:_ZN14D578UVCodeplug22GeneralSettingsElement25enableMonitorTimeSlotHoldEb
libdmrconf.so.0:_ZN14D578UVCodeplug22GeneralSettingsElement25setAutoRepeaterDirectionAEN36AnytoneAutoRepeaterSettingsExtension9DirectionE
libdmrconf.so.0:_ZN14D578UVCodeplug22GeneralSettingsElement25setAutoRepeaterDirectionBEN36AnytoneAutoRepeaterSettingsExtension9DirectionE
libdmrconf.so.0:_ZN14D578UVCodeplug22GeneralSettingsElement25setMaxVFOScanFrequencyUHFE9Frequency
libdmrconf.so.0:_ZN14D578UVCodeplug22GeneralSettingsElement25setMaxVFOScanFrequencyVHFE9Frequency
libdmrconf.so.0:_ZN14D578UVCodeplug22GeneralSettingsElement25setMinVFOScanFrequencyUHFE9Frequency
libdmrconf.so.0:_ZN14D578UVCodeplug22GeneralSettingsElement25setMinVFOScanFrequencyVHFE9Frequency
libdmrconf.so.0:_ZN14D578UVCodeplug22GeneralSettingsElement25setStandbyBackgroundColorEN31AnytoneDisplaySettingsExtension5ColorE
libdmrconf.so.0:_ZN14D578UVCodeplug22GeneralSettingsElement26enableBTAndInternalSpeakerEb
libdmrconf.so.0:_ZN14D578UVCodeplug22GeneralSettingsElement26enableDisplayChannelNumberEb
libdmrconf.so.0:_ZN14D578UVCodeplug22GeneralSettingsElement26setDefaultRoamingZoneIndexEj
libdmrconf.so.0:_ZN14D578UVCodeplug22GeneralSettingsElement26setRepeaterRangeCheckCountEj
libdmrconf.so.0:_ZN14D578UVCodeplug22GeneralSettingsElement27enableMonitorColorCodeMatchEb
libdmrconf.so.0:_ZN14D578UVCodeplug22GeneralSettingsElement29setRepeaterRangeCheckIntervalE8Interval
libdmrconf.so.0:_ZN14D578UVCodeplug22GeneralSettingsElement30setAutoRepeaterMaxFrequencyUHFE9Frequency
libdmrconf.so.0:_ZN14D578UVCodeplug22GeneralSettingsElement30setAutoRepeaterMaxFrequencyVHFE9Frequency
libdmrconf.so.0:_ZN14D578UVCodeplug22GeneralSettingsElement30setAutoRepeaterMinFrequencyUHFE9Frequency
libdmrconf.so.0:_ZN14D578UVCodeplug22GeneralSettingsElement30setAutoRepeaterMinFrequencyVHFE9Frequency
libdmrconf.so.0:_ZN14D578UVCodeplug22GeneralSettingsElement31enableRepeaterCheckNotificationEb
libdmrconf.so.0:_ZN14D578UVCodeplug22GeneralSettingsElement32setRepeaterCheckNumNotificationsEj
libdmrconf.so.0:_ZN14D578UVCodeplug22GeneralSettingsElement37setAutoRepeaterOffsetFrequenyIndexUHFEj
libdmrconf.so.0:_ZN14D578UVCodeplug22GeneralSettingsElement37setAutoRepeaterOffsetFrequenyIndexVHFEj
libdmrconf.so.0:_ZN14D578UVCodeplug22GeneralSettingsElement40clearAutoRepeaterOffsetFrequencyIndexUHFEv
libdmrconf.so.0:_ZN14D578UVCodeplug22GeneralSettingsElement40clearAutoRepeaterOffsetFrequencyIndexVHFEv
libdmrconf.so.0:_ZN14D578UVCodeplug22GeneralSettingsElement8TimeZone6decodeEh
libdmrconf.so.0:_ZN14D578UVCodeplug22GeneralSettingsElement8TimeZone6encodeERK9QTimeZone
libdmrconf.so.0:_ZN14D578UVCodeplug22GeneralSettingsElement9enableGPSEb
libdmrconf.so.0:_ZN14D578UVCodeplug22GeneralSettingsElement9enableWFMEb
libdmrconf.so.0:_ZN14D578UVCodeplug22GeneralSettingsElementC1EPh
libdmrconf.so.0:_ZN14D578UVCodeplug22GeneralSettingsElementC1EPhj
libdmrconf.so.0:_ZN14D578UVCodeplug22GeneralSettingsElementC2EPh
libdmrconf.so.0:_ZN14D578UVCodeplug22GeneralSettingsElementC2EPhj
libdmrconf.so.0:_ZN14D578UVCodeplug22allocateHotKeySettingsEv
libdmrconf.so.0:_ZN14D578UVCodeplug23allocateGeneralSettingsEv
libdmrconf.so.0:_ZN14D578UVCodeplugC1EP7QObject
libdmrconf.so.0:_ZN14D578UVCodeplugC1ERK7QStringP7QObject
libdmrconf.so.0:_ZN14D578UVCodeplugC2EP7QObject
libdmrconf.so.0:_ZN14D578UVCodeplugC2ERK7QStringP7QObject
libdmrconf.so.0:_ZN14D868UVCodeplug10decodeZoneEiP4ZoneRN8Codeplug7ContextERK10ErrorStack
libdmrconf.so.0:_ZN14D868UVCodeplug10encodeZoneEiP4ZoneRKN8Codeplug5FlagsERNS2_7ContextERK10ErrorStack
libdmrconf.so.0:_ZN14D868UVCodeplug10setBitmapsERN8Codeplug7ContextE
libdmrconf.so.0:_ZN14D868UVCodeplug10setRadioIDERN8Codeplug7ContextERK10ErrorStack
libdmrconf.so.0:_ZN14D868UVCodeplug11createZonesERN8Codeplug7ContextERK10ErrorStack
libdmrconf.so.0:_ZN14D868UVCodeplug11encodeZonesERKN8Codeplug5FlagsERNS0_7ContextERK10ErrorStack
libdmrconf.so.0:_ZN14D868UVCodeplug11qt_metacallEN11QMetaObject4CallEiPPv
libdmrconf.so.0:_ZN14D868UVCodeplug11qt_metacastEPKc
libdmrconf.so.0:_ZN14D868UVCodeplug12linkChannelsERN8Codeplug7ContextERK10ErrorStack
libdmrconf.so.0:_ZN14D868UVCodeplug13allocateZonesEv
libdmrconf.so.0:_ZN14D868UVCodeplug13encodeRadioIDERKN8Codeplug5FlagsERNS0_7ContextERK10ErrorStack
libdmrconf.so.0:_ZN14D868UVCodeplug13linkScanListsERN8Codeplug7ContextERK10ErrorStack
libdmrconf.so.0:_ZN14D868UVCodeplug14ChannelElement13enableDataACKEb
libdmrconf.so.0:_ZN14D868UVCodeplug14ChannelElement13enableRangingEb
libdmrconf.so.0:_ZN14D868UVCodeplug14ChannelElement14fromChannelObjEPK7ChannelRN8Codeplug7ContextE
libdmrconf.so.0:_ZN14D868UVCodeplug14ChannelElement15enableRandomKeyEb
libdmrconf.so.0:_ZN14D868UVCodeplug14ChannelElement17enableThroughModeEb
libdmrconf.so.0:_ZN14D868UVCodeplug14ChannelElement19enableTXDigitalAPRSEb
libdmrconf.so.0:_ZN14D868UVCodeplug14ChannelElement24setDMREncryptionKeyIndexEj
libdmrconf.so.0:_ZN14D868UVCodeplug14ChannelElement25setDigitalAPRSSystemIndexEj
libdmrconf.so.0:_ZN14D868UVCodeplug14ChannelElement27enableMultipleKeyEncryptionEb
libdmrconf.so.0:_ZN14D868UVCodeplug14ChannelElement9enableSMSEb
libdmrconf.so.0:_ZN14D868UVCodeplug14ChannelElementC1EPh
libdmrconf.so.0:_ZN14D868UVCodeplug14ChannelElementC1EPhj
libdmrconf.so.0:_ZN14D868UVCodeplug14ChannelElementC2EPh
libdmrconf.so.0:_ZN14D868UVCodeplug14ChannelElementC2EPhj
libdmrconf.so.0:_ZN14D868UVCodeplug14createChannelsERN8Codeplug7ContextERK10ErrorStack
libdmrconf.so.0:_ZN14D868UVCodeplug14createContactsERN8Codeplug7ContextERK10ErrorStack
libdmrconf.so.0:_ZN14D868UVCodeplug14decodeElementsERN8Codeplug7ContextERK10ErrorStack
libdmrconf.so.0:_ZN14D868UVCodeplug14encodeChannelsERKN8Codeplug5FlagsERNS0_7ContextERK10ErrorStack
libdmrconf.so.0:_ZN14D868UVCodeplug14encodeContactsERKN8Codeplug5FlagsERNS0_7ContextERK10ErrorStack
libdmrconf.so.0:_ZN14D868UVCodeplug14encodeElementsERKN8Codeplug5FlagsERNS0_7ContextERK10ErrorStack
libdmrconf.so.0:_ZN14D868UVCodeplug14linkGPSSystemsERN8Codeplug7ContextERK10ErrorStack
libdmrconf.so.0:_ZN14D868UVCodeplug15allocateBitmapsEv
libdmrconf.so.0:_ZN14D868UVCodeplug15allocateUpdatedEv
libdmrconf.so.0:_ZN14D868UVCodeplug15createScanListsERN8Codeplug7ContextERK10ErrorStack
libdmrconf.so.0:_ZN14D868UVCodeplug15encodeScanListsERKN8Codeplug5FlagsERNS0_7ContextERK10ErrorStack
libdmrconf.so.0:_ZN14D868UVCodeplug15linkSMSMessagesERN8Codeplug7ContextERK10ErrorStack
libdmrconf.so.0:_ZN14D868UVCodeplug16allocate2ToneIDsEv
libdmrconf.so.0:_ZN14D868UVCodeplug16allocate5ToneIDsEv
libdmrconf.so.0:_ZN14D868UVCodeplug16allocateChannelsEv
libdmrconf.so.0:_ZN14D868UVCodeplug16allocateContactsEv
libdmrconf.so.0:_ZN14D868UVCodeplug16allocateRadioIDsEv
libdmrconf.so.0:_ZN14D868UVCodeplug16createGPSSystemsERN8Codeplug7ContextERK10ErrorStack
libdmrconf.so.0:_ZN14D868UVCodeplug16encodeGPSSystemsERKN8Codeplug5FlagsERNS0_7ContextERK10ErrorStack
libdmrconf.so.0:_ZN14D868UVCodeplug16linkRXGroupListsERN8Codeplug7ContextERK10ErrorStack
libdmrconf.so.0:_ZN14D868UVCodeplug17allocateScanListsEv
libdmrconf.so.0:_ZN14D868UVCodeplug17createSMSMessagesERN8Codeplug7ContextERK10ErrorStack
libdmrconf.so.0:_ZN14D868UVCodeplug17encodeSMSMessagesERKN8Codeplug5FlagsERNS0_7ContextERK10ErrorStack
libdmrconf.so.0:_ZN14D868UVCodeplug18allocateGPSSystemsEv
libdmrconf.so.0:_ZN14D868UVCodeplug18createRXGroupListsERN8Codeplug7ContextERK10ErrorStack
libdmrconf.so.0:_ZN14D868UVCodeplug18decodeBootSettingsERN8Codeplug7ContextERK10ErrorStack
libdmrconf.so.0:_ZN14D868UVCodeplug18encodeBootSettingsERKN8Codeplug5FlagsERNS0_7ContextERK10ErrorStack
libdmrconf.so.0:_ZN14D868UVCodeplug18encodeRXGroupListsERKN8Codeplug5FlagsERNS0_7ContextERK10ErrorStack
libdmrconf.so.0:_ZN14D868UVCodeplug19allocateDTMFNumbersEv
libdmrconf.so.0:_ZN14D868UVCodeplug19allocateForDecodingEv
libdmrconf.so.0:_ZN14D868UVCodeplug19allocateForEncodingEv
libdmrconf.so.0:_ZN14D868UVCodeplug19allocateSMSMessagesEv
libdmrconf.so.0:_ZN14D868UVCodeplug19allocateVFOSettingsEv
libdmrconf.so.0:_ZN14D868UVCodeplug19linkGeneralSettingsERN8Codeplug7ContextERK10ErrorStack
libdmrconf.so.0:_ZN14D868UVCodeplug20allocateBootSettingsEv
libdmrconf.so.0:_ZN14D868UVCodeplug20allocateDTMFSettingsEv
libdmrconf.so.0:_ZN14D868UVCodeplug20allocateRXGroupListsEv
libdmrconf.so.0:_ZN14D868UVCodeplug20createAnalogContactsERN8Codeplug7ContextERK10ErrorStack
libdmrconf.so.0:_ZN14D868UVCodeplug20encodeAnalogContactsERKN8Codeplug5FlagsERNS0_7ContextERK10ErrorStack
libdmrconf.so.0:_ZN14D868UVCodeplug21allocate2ToneSettingsEv
libdmrconf.so.0:_ZN14D868UVCodeplug21allocate5ToneSettingsEv
libdmrconf.so.0:_ZN14D868UVCodeplug21allocateAlarmSettingsEv
libdmrconf.so.0:_ZN14D868UVCodeplug21decodeGeneralSettingsERN8Codeplug7ContextERK10ErrorStack
libdmrconf.so.0:_ZN14D868UVCodeplug21encodeGeneralSettingsERKN8Codeplug5FlagsERNS0_7ContextERK10ErrorStack
libdmrconf.so.0:_ZN14D868UVCodeplug22GeneralSettingsElement10fromConfigERKN8Codeplug5FlagsERNS1_7ContextE
libdmrconf.so.0:_ZN14D868UVCodeplug22GeneralSettingsElement11KeyFunction6decodeEh
libdmrconf.so.0:_ZN14D868UVCodeplug22GeneralSettingsElement11KeyFunction6encodeEN27AnytoneKeySettingsExtension11KeyFunctionE
libdmrconf.so.0:_ZN14D868UVCodeplug22GeneralSettingsElement11setVOXDelayE8Interval
libdmrconf.so.0:_ZN14D868UVCodeplug22GeneralSettingsElement11setVOXLevelEj
libdmrconf.so.0:_ZN14D868UVCodeplug22GeneralSettingsElement12linkSettingsEP13RadioSettingsRN8Codeplug7ContextERK10ErrorStack
libdmrconf.so.0:_ZN14D868UVCodeplug22GeneralSettingsElement12setPowerSaveEN33AnytonePowerSaveSettingsExtension9PowerSaveE
libdmrconf.so.0:_ZN14D868UVCodeplug22GeneralSettingsElement12setVOXSourceEN29AnytoneAudioSettingsExtension9VoxSourceE
libdmrconf.so.0:_ZN14D868UVCodeplug22GeneralSettingsElement12updateConfigERN8Codeplug7ContextE
libdmrconf.so.0:_ZN14D868UVCodeplug22GeneralSettingsElement13enableKeyToneEb
libdmrconf.so.0:_ZN14D868UVCodeplug22GeneralSettingsElement13setBrightnessEj
libdmrconf.so.0:_ZN14D868UVCodeplug22GeneralSettingsElement13setDMRMicGainEj
libdmrconf.so.0:_ZN14D868UVCodeplug22GeneralSettingsElement14enableKnobLockEb
libdmrconf.so.0:_ZN14D868UVCodeplug22GeneralSettingsElement14enableSMSAlertEb
libdmrconf.so.0:_ZN14D868UVCodeplug22GeneralSettingsElement14enableVFOModeAEb
libdmrconf.so.0:_ZN14D868UVCodeplug22GeneralSettingsElement14enableVFOModeBEb
libdmrconf.so.0:_ZN14D868UVCodeplug22GeneralSettingsElement14setGPSTimeZoneERK9QTimeZone
libdmrconf.so.0:_ZN14D868UVCodeplug22GeneralSettingsElement14setMemoryZoneAEj
libdmrconf.so.0:_ZN14D868UVCodeplug22GeneralSettingsElement14setMemoryZoneBEj
libdmrconf.so.0:_ZN14D868UVCodeplug22GeneralSettingsElement14setVFOScanTypeEN24AnytoneSettingsExtension11VFOScanTypeE
libdmrconf.so.0:_ZN14D868UVCodeplug22GeneralSettingsElement15enableCallAlertEb
libdmrconf.so.0:_ZN14D868UVCodeplug22GeneralSettingsElement15enableRecordingEb
libdmrconf.so.0:_ZN14D868UVCodeplug22GeneralSettingsElement15setFuncKey1LongEN27AnytoneKeySettingsExtension11KeyFunctionE
libdmrconf.so.0:_ZN14D868UVCodeplug22GeneralSettingsElement15setFuncKey2LongEN27AnytoneKeySettingsExtension11KeyFunctionE
libdmrconf.so.0:_ZN14D868UVCodeplug22GeneralSettingsElement15setFuncKeyALongEN27AnytoneKeySettingsExtension11KeyFunctionE
libdmrconf.so.0:_ZN14D868UVCodeplug22GeneralSettingsElement15setFuncKeyBLongEN27AnytoneKeySettingsExtension11KeyFunctionE
libdmrconf.so.0:_ZN14D868UVCodeplug22GeneralSettingsElement15setFuncKeyCLongEN27AnytoneKeySettingsExtension11KeyFunctionE
libdmrconf.so.0:_ZN14D868UVCodeplug22GeneralSettingsElement15setKeyToneLevelEj
libdmrconf.so.0:_ZN14D868UVCodeplug22GeneralSettingsElement15setMenuExitTimeE8Interval
libdmrconf.so.0:_ZN14D868UVCodeplug22GeneralSettingsElement16enableKeypadLockEb
libdmrconf.so.0:_ZN14D868UVCodeplug22GeneralSettingsElement16enableSubChannelEb
libdmrconf.so.0:_ZN14D868UVCodeplug22GeneralSettingsElement16setFuncKey1ShortEN27AnytoneKeySettingsExtension11KeyFunctionE
libdmrconf.so.0:_ZN14D868UVCodeplug22GeneralSettingsElement16setFuncKey2ShortEN27AnytoneKeySettingsExtension11KeyFunctionE
libdmrconf.so.0:_ZN14D868UVCodeplug22GeneralSettingsElement16setFuncKeyAShortEN27AnytoneKeySettingsExtension11KeyFunctionE
libdmrconf.so.0:_ZN14D868UVCodeplug22GeneralSettingsElement16setFuncKeyBShortEN27AnytoneKeySettingsExtension11KeyFunctionE
libdmrconf.so.0:_ZN14D868UVCodeplug22GeneralSettingsElement16setFuncKeyCShortEN27AnytoneKeySettingsExtension11KeyFunctionE
libdmrconf.so.0:_ZN14D868UVCodeplug22GeneralSettingsElement17enableDisplayCallEb
libdmrconf.so.0:_ZN14D868UVCodeplug22GeneralSettingsElement17enableStartupToneEb
libdmrconf.so.0:_ZN14D868UVCodeplug22GeneralSettingsElement17setCallToneMelodyERK6Melody
libdmrconf.so.0:_ZN14D868UVCodeplug22GeneralSettingsElement17setIdleToneMelodyERK6Melody
libdmrconf.so.0:_ZN14D868UVCodeplug22GeneralSettingsElement17setRecodringDelayEj
libdmrconf.so.0:_ZN14D868UVCodeplug22GeneralSettingsElement18enableDMRResetToneEb
libdmrconf.so.0:_ZN14D868UVCodeplug22GeneralSettingsElement18enableDisplayClockEb
libdmrconf.so.0:_ZN14D868UVCodeplug22GeneralSettingsElement18enableFMTalkPermitEb
libdmrconf.so.0:_ZN14D868UVCodeplug22GeneralSettingsElement18enableSidekeysLockEb
libdmrconf.so.0:_ZN14D868UVCodeplug22GeneralSettingsElement18setGPSUpdatePeriodE8Interval
libdmrconf.so.0:_ZN14D868UVCodeplug22GeneralSettingsElement18setResetToneMelodyERK6Melody
libdmrconf.so.0:_ZN14D868UVCodeplug22GeneralSettingsElement19enableCallEndPromptEb
libdmrconf.so.0:_ZN14D868UVCodeplug22GeneralSettingsElement19enableDMRTalkPermitEb
libdmrconf.so.0:_ZN14D868UVCodeplug22GeneralSettingsElement19enableEnhancedAudioEb
libdmrconf.so.0:_ZN14D868UVCodeplug22GeneralSettingsElement19enableKeyLockForcedEb
libdmrconf.so.0:_ZN14D868UVCodeplug22GeneralSettingsElement19enableShowLastHeardEb
libdmrconf.so.0:_ZN14D868UVCodeplug22GeneralSettingsElement19setCallDisplayColorEN31AnytoneDisplaySettingsExtension5ColorE
libdmrconf.so.0:_ZN14D868UVCodeplug22GeneralSettingsElement19setMaxSpeakerVolumeEj
libdmrconf.so.0:_ZN14D868UVCodeplug22GeneralSettingsElement20enableActiveChannelBEb
libdmrconf.so.0:_ZN14D868UVCodeplug22GeneralSettingsElement20enableDefaultChannelEb
libdmrconf.so.0:_ZN14D868UVCodeplug22GeneralSettingsElement20enableGetGPSPositionEb
libdmrconf.so.0:_ZN14D868UVCodeplug22GeneralSettingsElement20enableKeepLastCallerEb
libdmrconf.so.0:_ZN14D868UVCodeplug22GeneralSettingsElement20setDefaultZoneIndexAEj
libdmrconf.so.0:_ZN14D868UVCodeplug22GeneralSettingsElement20setDefaultZoneIndexBEj
libdmrconf.so.0:_ZN14D868UVCodeplug22GeneralSettingsElement20setLongPressDurationE8Interval
libdmrconf.so.0:_ZN14D868UVCodeplug22GeneralSettingsElement21enableIdleChannelToneEb
libdmrconf.so.0:_ZN14D868UVCodeplug22GeneralSettingsElement21setMaxHeadPhoneVolumeEj
libdmrconf.so.0:_ZN14D868UVCodeplug22GeneralSettingsElement22enableGPSUnitsImperialEb
libdmrconf.so.0:_ZN14D868UVCodeplug22GeneralSettingsElement22setRXBacklightDurationE8Interval
libdmrconf.so.0:_ZN14D868UVCodeplug22GeneralSettingsElement23setDefaultChannelAIndexEj
libdmrconf.so.0:_ZN14D868UVCodeplug22GeneralSettingsElement23setDefaultChannelAToVFOEv
libdmrconf.so.0:_ZN14D868UVCodeplug22GeneralSettingsElement23setDefaultChannelBIndexEj
libdmrconf.so.0:_ZN14D868UVCodeplug22GeneralSettingsElement23setDefaultChannelBToVFOEv
libdmrconf.so.0:_ZN14D868UVCodeplug22GeneralSettingsElement24enableBacklightPermanentEv
libdmrconf.so.0:_ZN14D868UVCodeplug22GeneralSettingsElement24enableShowCurrentContactEb
libdmrconf.so.0:_ZN14D868UVCodeplug22GeneralSettingsElement24enableVolumeChangePromptEb
libdmrconf.so.0:_ZN14D868UVCodeplug22GeneralSettingsElement24setLastCallerDisplayModeEN31AnytoneDisplaySettingsExtension21LastCallerDisplayModeE
libdmrconf.so.0:_ZN14D868UVCodeplug22GeneralSettingsElement25setAutoRepeaterDirectionAEN36AnytoneAutoRepeaterSettingsExtension9DirectionE
libdmrconf.so.0:_ZN14D868UVCodeplug22GeneralSettingsElement25setAutoRepeaterDirectionBEN36AnytoneAutoRepeaterSettingsExtension9DirectionE
libdmrconf.so.0:_ZN14D868UVCodeplug22GeneralSettingsElement25setKeyToneLevelAdjustableEv
libdmrconf.so.0:_ZN14D868UVCodeplug22GeneralSettingsElement25setMaxVFOScanFrequencyUHFE9Frequency
libdmrconf.so.0:_ZN14D868UVCodeplug22GeneralSettingsElement25setMaxVFOScanFrequencyVHFE9Frequency
libdmrconf.so.0:_ZN14D868UVCodeplug22GeneralSettingsElement25setMinVFOScanFrequencyUHFE9Frequency
libdmrconf.so.0:_ZN14D868UVCodeplug22GeneralSettingsElement25setMinVFOScanFrequencyVHFE9Frequency
libdmrconf.so.0:_ZN14D868UVCodeplug22GeneralSettingsElement30setAutoRepeaterMaxFrequencyUHFE9Frequency
libdmrconf.so.0:_ZN14D868UVCodeplug22GeneralSettingsElement30setAutoRepeaterMaxFrequencyVHFE9Frequency
libdmrconf.so.0:_ZN14D868UVCodeplug22GeneralSettingsElement30setAutoRepeaterMinFrequencyUHFE9Frequency
libdmrconf.so.0:_ZN14D868UVCodeplug22GeneralSettingsElement30setAutoRepeaterMinFrequencyVHFE9Frequency
libdmrconf.so.0:_ZN14D868UVCodeplug22GeneralSettingsElement37setAutoRepeaterOffsetFrequenyIndexUHFEj
libdmrconf.so.0:_ZN14D868UVCodeplug22GeneralSettingsElement37setAutoRepeaterOffsetFrequenyIndexVHFEj
libdmrconf.so.0:_ZN14D868UVCodeplug22GeneralSettingsElement40clearAutoRepeaterOffsetFrequencyIndexUHFEv
libdmrconf.so.0:_ZN14D868UVCodeplug22GeneralSettingsElement40clearAutoRepeaterOffsetFrequencyIndexVHFEv
libdmrconf.so.0:_ZN14D868UVCodeplug22GeneralSettingsElement5clearEv
libdmrconf.so.0:_ZN14D868UVCodeplug22GeneralSettingsElement9enableGPSEb
libdmrconf.so.0:_ZN14D868UVCodeplug22GeneralSettingsElementC1EPh
libdmrconf.so.0:_ZN14D868UVCodeplug22GeneralSettingsElementC1EPhj
libdmrconf.so.0:_ZN14D868UVCodeplug22GeneralSettingsElementC2EPh
libdmrconf.so.0:_ZN14D868UVCodeplug22GeneralSettingsElementC2EPhj
libdmrconf.so.0:_ZN14D868UVCodeplug22allocate2ToneFunctionsEv
libdmrconf.so.0:_ZN14D868UVCodeplug22allocate5ToneFunctionsEv
libdmrconf.so.0:_ZN14D868UVCodeplug22allocateAnalogContactsEv
libdmrconf.so.0:_ZN14D868UVCodeplug22allocateHotKeySettingsEv
libdmrconf.so.0:_ZN14D868UVCodeplug23allocateGeneralSettingsEv
libdmrconf.so.0:_ZN14D868UVCodeplug23allocateZoneChannelListEv
libdmrconf.so.0:_ZN14D868UVCodeplug27allocateFMBroadcastSettingsEv
libdmrconf.so.0:_ZN14D868UVCodeplug31decodeRepeaterOffsetFrequenciesERN8Codeplug7ContextERK10ErrorStack
libdmrconf.so.0:_ZN14D868UVCodeplug31encodeRepeaterOffsetFrequenciesERKN8Codeplug5FlagsERNS0_7ContextERK10ErrorStack
libdmrconf.so.0:_ZN14D868UVCodeplug33allocateRepeaterOffsetFrequenciesEv
libdmrconf.so.0:_ZN14D868UVCodeplug5CTCSS6decodeEh
libdmrconf.so.0:_ZN14D868UVCodeplug5CTCSS6encodeEN9Signaling4CodeE
libdmrconf.so.0:_ZN14D868UVCodeplug5Color6decodeEh
libdmrconf.so.0:_ZN14D868UVCodeplug5Color6encodeEN31AnytoneDisplaySettingsExtension5ColorE
libdmrconf.so.0:_ZN14D868UVCodeplug8linkZoneEiP4ZonebRN8Codeplug7ContextERK10ErrorStack
libdmrconf.so.0:_ZN14D868UVCodeplug9linkZonesERN8Codeplug7ContextERK10ErrorStack
libdmrconf.so.0:_ZN14D868UVCodeplugC1EP7QObject
libdmrconf.so.0:_ZN14D868UVCodeplugC1ERK7QStringP7QObject
libdmrconf.so.0:_ZN14D868UVCodeplugC2EP7QObject
libdmrconf.so.0:_ZN14D868UVCodeplugC2ERK7QStringP7QObject
libdmrconf.so.0:_ZN14D878UVCodeplug10decodeZoneEiP4ZoneRN8Codeplug7ContextERK10ErrorStack
libdmrconf.so.0:_ZN14D878UVCodeplug10encodeZoneEiP4ZoneRKN8Codeplug5FlagsERNS2_7ContextERK10ErrorStack
libdmrconf.so.0:_ZN14D878UVCodeplug10setBitmapsERN8Codeplug7ContextE
libdmrconf.so.0:_ZN14D878UVCodeplug11linkRoamingERN8Codeplug7ContextERK10ErrorStack
libdmrconf.so.0:_ZN14D878UVCodeplug11qt_metacallEN11QMetaObject4CallEiPPv
libdmrconf.so.0:_ZN14D878UVCodeplug11qt_metacastEPKc
libdmrconf.so.0:_ZN14D878UVCodeplug12linkChannelsERN8Codeplug7ContextERK10ErrorStack
libdmrconf.so.0:_ZN14D878UVCodeplug13allocateZonesEv
libdmrconf.so.0:_ZN14D878UVCodeplug13createRoamingERN8Codeplug7ContextERK10ErrorStack
libdmrconf.so.0:_ZN14D878UVCodeplug13encodeRoamingERKN8Codeplug5FlagsERNS0_7ContextERK10ErrorStack
libdmrconf.so.0:_ZN14D878UVCodeplug14ChannelElement13enableDataACKEb
libdmrconf.so.0:_ZN14D878UVCodeplug14ChannelElement13enableRoamingEb
libdmrconf.so.0:_ZN14D878UVCodeplug14ChannelElement14fromChannelObjEPK7ChannelRN8Codeplug7ContextE
libdmrconf.so.0:_ZN14D878UVCodeplug14ChannelElement15setPTTIDSettingENS0_5PTTIdE
libdmrconf.so.0:_ZN14D878UVCodeplug14ChannelElement18enableTXAnalogAPRSEb
libdmrconf.so.0:_ZN14D878UVCodeplug14ChannelElement19enableTXDigitalAPRSEb
libdmrconf.so.0:_ZN14D878UVCodeplug14ChannelElement22setFrequencyCorrectionEi
libdmrconf.so.0:_ZN14D878UVCodeplug14ChannelElement23setAnalogAPRSPTTSettingENS0_7APRSPTTE
libdmrconf.so.0:_ZN14D878UVCodeplug14ChannelElement23setFMAPRSFrequencyIndexEj
libdmrconf.so.0:_ZN14D878UVCodeplug14ChannelElement24setDigitalAPRSPTTSettingENS0_7APRSPTTE
libdmrconf.so.0:_ZN14D878UVCodeplug14ChannelElement25setDigitalAPRSSystemIndexEj
libdmrconf.so.0:_ZN14D878UVCodeplug14ChannelElement5clearEv
libdmrconf.so.0:_ZN14D878UVCodeplug14ChannelElementC1EPh
libdmrconf.so.0:_ZN14D878UVCodeplug14ChannelElementC1EPhj
libdmrconf.so.0:_ZN14D878UVCodeplug14ChannelElementC2EPh
libdmrconf.so.0:_ZN14D878UVCodeplug14ChannelElementC2EPhj
libdmrconf.so.0:_ZN14D878UVCodeplug14createChannelsERN8Codeplug7ContextERK10ErrorStack
libdmrconf.so.0:_ZN14D878UVCodeplug14decodeElementsERN8Codeplug7ContextERK10ErrorStack
libdmrconf.so.0:_ZN14D878UVCodeplug14encodeChannelsERKN8Codeplug5FlagsERNS0_7ContextERK10ErrorStack
libdmrconf.so.0:_ZN14D878UVCodeplug14encodeElementsERKN8Codeplug5FlagsERNS0_7ContextERK10ErrorStack
libdmrconf.so.0:_ZN14D878UVCodeplug14linkGPSSystemsERN8Codeplug7ContextERK10ErrorStack
libdmrconf.so.0:_ZN14D878UVCodeplug15allocateBitmapsEv
libdmrconf.so.0:_ZN14D878UVCodeplug15allocateRoamingEv
libdmrconf.so.0:_ZN14D878UVCodeplug15allocateUpdatedEv
libdmrconf.so.0:_ZN14D878UVCodeplug16RadioInfoElement16enableBandSelectEb
libdmrconf.so.0:_ZN14D878UVCodeplug16RadioInfoElement17setFrequencyRangeENS0_14FrequencyRangeE
libdmrconf.so.0:_ZN14D878UVCodeplug16RadioInfoElement18setProgramPasswordERK7QString
libdmrconf.so.0:_ZN14D878UVCodeplug16RadioInfoElement19enableInternationalEb
libdmrconf.so.0:_ZN14D878UVCodeplug16RadioInfoElement21setBandSelectPasswordERK7QString
libdmrconf.so.0:_ZN14D878UVCodeplug16RadioInfoElement5clearEv
libdmrconf.so.0:_ZN14D878UVCodeplug16RadioInfoElementC1EPh
libdmrconf.so.0:_ZN14D878UVCodeplug16RadioInfoElementC1EPhj
libdmrconf.so.0:_ZN14D878UVCodeplug16RadioInfoElementC2EPh
libdmrconf.so.0:_ZN14D878UVCodeplug16RadioInfoElementC2EPhj
libdmrconf.so.0:_ZN14D878UVCodeplug16allocateChannelsEv
libdmrconf.so.0:_ZN14D878UVCodeplug16createGPSSystemsERN8Codeplug7ContextERK10ErrorStack
libdmrconf.so.0:_ZN14D878UVCodeplug16encodeGPSSystemsERKN8Codeplug5FlagsERNS0_7ContextERK10ErrorStack
libdmrconf.so.0:_ZN14D878UVCodeplug18RoamingZoneElement11clearMemberEj
libdmrconf.so.0:_ZN14D878UVCodeplug18RoamingZoneElement15fromRoamingZoneEP11RoamingZoneRN8Codeplug7ContextERK10ErrorStack
libdmrconf.so.0:_ZN14D878UVCodeplug18RoamingZoneElement15linkRoamingZoneEP11RoamingZoneRN8Codeplug7ContextERK10ErrorStack
libdmrconf.so.0:_ZN14D878UVCodeplug18RoamingZoneElement5clearEv
libdmrconf.so.0:_ZN14D878UVCodeplug18RoamingZoneElement7setNameERK7QString
libdmrconf.so.0:_ZN14D878UVCodeplug18RoamingZoneElement9setMemberEjj
libdmrconf.so.0:_ZN14D878UVCodeplug18RoamingZoneElementC1EPh
libdmrconf.so.0:_ZN14D878UVCodeplug18RoamingZoneElementC1EPhj
libdmrconf.so.0:_ZN14D878UVCodeplug18RoamingZoneElementC2EPh
libdmrconf.so.0:_ZN14D878UVCodeplug18RoamingZoneElementC2EPhj
libdmrconf.so.0:_ZN14D878UVCodeplug18allocateGPSSystemsEv
libdmrconf.so.0:_ZN14D878UVCodeplug19APRSSettingsElement12setFMTXDelayE8Interval
libdmrconf.so.0:_ZN14D878UVCodeplug19APRSSettingsElement13disableAutoTXEv
libdmrconf.so.0:_ZN14D878UVCodeplug19APRSSettingsElement14setDMRCallTypeEjN10DMRContact4TypeE
libdmrconf.so.0:_ZN14D878UVCodeplug19APRSSettingsElement14setDMRTimeSlotEjN10DMRChannel8TimeSlotE
libdmrconf.so.0:_ZN14D878UVCodeplug19APRSSettingsElement14setDestinationERK7QStringj
libdmrconf.so.0:_ZN14D878UVCodeplug19APRSSettingsElement14setDisplayTimeE8Interval
libdmrconf.so.0:_ZN14D878UVCodeplug19APRSSettingsElement14setFMFrequencyEj9Frequency
libdmrconf.so.0:_ZN14D878UVCodeplug19APRSSettingsElement14toFMAPRSSystemERN8Codeplug7ContextERKNS_27FMAPRSFrequencyNamesElementERK10ErrorStack
libdmrconf.so.0:_ZN14D878UVCodeplug19APRSSettingsElement15enableFMPassAllEb
libdmrconf.so.0:_ZN14D878UVCodeplug19APRSSettingsElement16clearFMFrequencyEj
libdmrconf.so.0:_ZN14D878UVCodeplug19APRSSettingsElement16enableDMRRoamingEb
libdmrconf.so.0:_ZN14D878UVCodeplug19APRSSettingsElement16enableReportItemEb
libdmrconf.so.0:_ZN14D878UVCodeplug19APRSSettingsElement16enableReportMicEEb
libdmrconf.so.0:_ZN14D878UVCodeplug19APRSSettingsElement16enableReportNMEAEb
libdmrconf.so.0:_ZN14D878UVCodeplug19APRSSettingsElement16fromFMAPRSSystemEPK10APRSSystemRN8Codeplug7ContextERNS_27FMAPRSFrequencyNamesElementERK10ErrorStack
libdmrconf.so.0:_ZN14D878UVCodeplug19APRSSettingsElement16linkFMAPRSSystemEP10APRSSystemRN8Codeplug7ContextE
libdmrconf.so.0:_ZN14D878UVCodeplug19APRSSettingsElement16setFixedLocationER14QGeoCoordinate
libdmrconf.so.0:_ZN14D878UVCodeplug19APRSSettingsElement17enableReportOtherEb
libdmrconf.so.0:_ZN14D878UVCodeplug19APRSSettingsElement17setAutoTXIntervalE8Interval
libdmrconf.so.0:_ZN14D878UVCodeplug19APRSSettingsElement17setDMRDestinationEjj
libdmrconf.so.0:_ZN14D878UVCodeplug19APRSSettingsElement17setFMChannelWidthEN30AnytoneFMAPRSSettingsExtension9BandwidthE
libdmrconf.so.0:_ZN14D878UVCodeplug19APRSSettingsElement17setFMPreWaveDelayE8Interval
libdmrconf.so.0:_ZN14D878UVCodeplug19APRSSettingsElement18enableReportObjectEb
libdmrconf.so.0:_ZN14D878UVCodeplug19APRSSettingsElement18enableReportStatusEb
libdmrconf.so.0:_ZN14D878UVCodeplug19APRSSettingsElement18fromDMRAPRSSystemsERN8Codeplug7ContextE
libdmrconf.so.0:_ZN14D878UVCodeplug19APRSSettingsElement18setDMRChannelIndexEjj
libdmrconf.so.0:_ZN14D878UVCodeplug19APRSSettingsElement18setDMRPreWaveDelayE8Interval
libdmrconf.so.0:_ZN14D878UVCodeplug19APRSSettingsElement19dmrTimeSlotOverrideEj
libdmrconf.so.0:_ZN14D878UVCodeplug19APRSSettingsElement19enableReportMessageEb
libdmrconf.so.0:_ZN14D878UVCodeplug19APRSSettingsElement19enableReportWeatherEb
libdmrconf.so.0:_ZN14D878UVCodeplug19APRSSettingsElement19setManualTXIntervalE8Interval
libdmrconf.so.0:_ZN14D878UVCodeplug19APRSSettingsElement20disableFixedLocationEv
libdmrconf.so.0:_ZN14D878UVCodeplug19APRSSettingsElement20enableReportPositionEb
libdmrconf.so.0:_ZN14D878UVCodeplug19APRSSettingsElement20fromDMRAPRSSystemObjEjP9GPSSystemRN8Codeplug7ContextE
libdmrconf.so.0:_ZN14D878UVCodeplug19APRSSettingsElement21setDMRChannelSelectedEj
libdmrconf.so.0:_ZN14D878UVCodeplug19APRSSettingsElement23setDisplayTimeInifiniteEv
libdmrconf.so.0:_ZN14D878UVCodeplug19APRSSettingsElement24clearDMRTimeSlotOverrideEj
libdmrconf.so.0:_ZN14D878UVCodeplug19APRSSettingsElement5clearEv
libdmrconf.so.0:_ZN14D878UVCodeplug19APRSSettingsElement7setIconEN10APRSSystem4IconE
libdmrconf.so.0:_ZN14D878UVCodeplug19APRSSettingsElement7setPathERK7QString
libdmrconf.so.0:_ZN14D878UVCodeplug19APRSSettingsElement8setPowerEN7Channel5PowerE
libdmrconf.so.0:_ZN14D878UVCodeplug19APRSSettingsElement9setSourceERK7QStringj
libdmrconf.so.0:_ZN14D878UVCodeplug19APRSSettingsElement9setTXToneEN9Signaling4CodeE
libdmrconf.so.0:_ZN14D878UVCodeplug19APRSSettingsElementC1EPh
libdmrconf.so.0:_ZN14D878UVCodeplug19APRSSettingsElementC1EPhj
libdmrconf.so.0:_ZN14D878UVCodeplug19APRSSettingsElementC2EPh
libdmrconf.so.0:_ZN14D878UVCodeplug19APRSSettingsElementC2EPhj
libdmrconf.so.0:_ZN14D878UVCodeplug19allocateForDecodingEv
libdmrconf.so.0:_ZN14D878UVCodeplug19allocateForEncodingEv
libdmrconf.so.0:_ZN14D878UVCodeplug19linkGeneralSettingsERN8Codeplug7ContextERK10ErrorStack
libdmrconf.so.0:_ZN14D878UVCodeplug21RoamingChannelElement11fromChannelEPK14RoamingChannel
libdmrconf.so.0:_ZN14D878UVCodeplug21RoamingChannelElement11setTimeSlotEN10DMRChannel8TimeSlotE
libdmrconf.so.0:_ZN14D878UVCodeplug21RoamingChannelElement12setColorCodeEj
libdmrconf.so.0:_ZN14D878UVCodeplug21RoamingChannelElement14setRXFrequencyEj
libdmrconf.so.0:_ZN14D878UVCodeplug21RoamingChannelElement14setTXFrequencyEj
libdmrconf.so.0:_ZN14D878UVCodeplug21RoamingChannelElement16disableColorCodeEv
libdmrconf.so.0:_ZN14D878UVCodeplug21RoamingChannelElement5clearEv
libdmrconf.so.0:_ZN14D878UVCodeplug21RoamingChannelElement7setNameERK7QString
libdmrconf.so.0:_ZN14D878UVCodeplug21RoamingChannelElement9toChannelERN8Codeplug7ContextE
libdmrconf.so.0:_ZN14D878UVCodeplug21RoamingChannelElementC1EPh
libdmrconf.so.0:_ZN14D878UVCodeplug21RoamingChannelElementC1EPhj
libdmrconf.so.0:_ZN14D878UVCodeplug21RoamingChannelElementC2EPh
libdmrconf.so.0:_ZN14D878UVCodeplug21RoamingChannelElementC2EPhj
libdmrconf.so.0:_ZN14D878UVCodeplug21decodeGeneralSettingsERN8Codeplug7ContextERK10ErrorStack
libdmrconf.so.0:_ZN14D878UVCodeplug21encodeGeneralSettingsERKN8Codeplug5FlagsERNS0_7ContextERK10ErrorStack
libdmrconf.so.0:_ZN14D878UVCodeplug22GeneralSettingsElement10fromConfigERKN8Codeplug5FlagsERNS1_7ContextE
libdmrconf.so.0:_ZN14D878UVCodeplug22GeneralSettingsElement10setSTETypeEN24AnytoneSettingsExtension7STETypeE
libdmrconf.so.0:_ZN14D878UVCodeplug22GeneralSettingsElement11KeyFunction6decodeEh
libdmrconf.so.0:_ZN14D878UVCodeplug22GeneralSettingsElement11KeyFunction6encodeEN27AnytoneKeySettingsExtension11KeyFunctionE
libdmrconf.so.0:_ZN14D878UVCodeplug22GeneralSettingsElement11setLanguageEN31AnytoneDisplaySettingsExtension8LanguageE
libdmrconf.so.0:_ZN14D878UVCodeplug22GeneralSettingsElement12enableWFMVFOEb
libdmrconf.so.0:_ZN14D878UVCodeplug22GeneralSettingsElement12linkSettingsEP13RadioSettingsRN8Codeplug7ContextERK10ErrorStack
libdmrconf.so.0:_ZN14D878UVCodeplug22GeneralSettingsElement12setBTMicGainEj
libdmrconf.so.0:_ZN14D878UVCodeplug22GeneralSettingsElement12setBTRXDelayE8Interval
libdmrconf.so.0:_ZN14D878UVCodeplug22GeneralSettingsElement12setMuteDelayE8Interval
libdmrconf.so.0:_ZN14D878UVCodeplug22GeneralSettingsElement12setSMSFormatEN27AnytoneDMRSettingsExtension9SMSFormatE
libdmrconf.so.0:_ZN14D878UVCodeplug22GeneralSettingsElement12updateConfigERN8Codeplug7ContextE
libdmrconf.so.0:_ZN14D878UVCodeplug22GeneralSettingsElement13enableManDownEb
libdmrconf.so.0:_ZN14D878UVCodeplug22GeneralSettingsElement13enableProModeEb
libdmrconf.so.0:_ZN14D878UVCodeplug22GeneralSettingsElement13enableRoamingEb
libdmrconf.so.0:_ZN14D878UVCodeplug22GeneralSettingsElement13setBTHoldTimeE8Interval
libdmrconf.so.0:_ZN14D878UVCodeplug22GeneralSettingsElement13setFMCallHoldEj
libdmrconf.so.0:_ZN14D878UVCodeplug22GeneralSettingsElement14enableKnobLockEb
libdmrconf.so.0:_ZN14D878UVCodeplug22GeneralSettingsElement14setGPSTimeZoneERK9QTimeZone
libdmrconf.so.0:_ZN14D878UVCodeplug22GeneralSettingsElement15enableBluetoothEb
libdmrconf.so.0:_ZN14D878UVCodeplug22GeneralSettingsElement15enableBootResetEb
libdmrconf.so.0:_ZN14D878UVCodeplug22GeneralSettingsElement15setFuncKey1LongEN27AnytoneKeySettingsExtension11KeyFunctionE
libdmrconf.so.0:_ZN14D878UVCodeplug22GeneralSettingsElement15setFuncKey2LongEN27AnytoneKeySettingsExtension11KeyFunctionE
libdmrconf.so.0:_ZN14D878UVCodeplug22GeneralSettingsElement15setFuncKeyALongEN27AnytoneKeySettingsExtension11KeyFunctionE
libdmrconf.so.0:_ZN14D878UVCodeplug22GeneralSettingsElement15setFuncKeyBLongEN27AnytoneKeySettingsExtension11KeyFunctionE
libdmrconf.so.0:_ZN14D878UVCodeplug22GeneralSettingsElement15setFuncKeyCLongEN27AnytoneKeySettingsExtension11KeyFunctionE
libdmrconf.so.0:_ZN14D878UVCodeplug22GeneralSettingsElement15setKeyToneLevelEj
libdmrconf.so.0:_ZN14D878UVCodeplug22GeneralSettingsElement15setManDownDelayE8Interval
libdmrconf.so.0:_ZN14D878UVCodeplug22GeneralSettingsElement15setPreWaveDelayE8Interval
libdmrconf.so.0:_ZN14D878UVCodeplug22GeneralSettingsElement15setSTEFrequencyEd
libdmrconf.so.0:_ZN14D878UVCodeplug22GeneralSettingsElement16enableGPSMessageEb
libdmrconf.so.0:_ZN14D878UVCodeplug22GeneralSettingsElement16enableKeypadLockEb
libdmrconf.so.0:_ZN14D878UVCodeplug22GeneralSettingsElement16enableWFMMonitorEb
libdmrconf.so.0:_ZN14D878UVCodeplug22GeneralSettingsElement16setAutoRoamDelayE8Interval
libdmrconf.so.0:_ZN14D878UVCodeplug22GeneralSettingsElement16setBTSpeakerGainEj
libdmrconf.so.0:_ZN14D878UVCodeplug22GeneralSettingsElement16setFuncKey1ShortEN27AnytoneKeySettingsExtension11KeyFunctionE
libdmrconf.so.0:_ZN14D878UVCodeplug22GeneralSettingsElement16setFuncKey2ShortEN27AnytoneKeySettingsExtension11KeyFunctionE
libdmrconf.so.0:_ZN14D878UVCodeplug22GeneralSettingsElement16setFuncKeyAShortEN27AnytoneKeySettingsExtension11KeyFunctionE
libdmrconf.so.0:_ZN14D878UVCodeplug22GeneralSettingsElement16setFuncKeyBShortEN27AnytoneKeySettingsExtension11KeyFunctionE
libdmrconf.so.0:_ZN14D878UVCodeplug22GeneralSettingsElement16setFuncKeyCShortEN27AnytoneKeySettingsExtension11KeyFunctionE
libdmrconf.so.0:_ZN14D878UVCodeplug22GeneralSettingsElement16setTBSTFrequencyE9Frequency
libdmrconf.so.0:_ZN14D878UVCodeplug22GeneralSettingsElement17disableBTHoldTimeEv
libdmrconf.so.0:_ZN14D878UVCodeplug22GeneralSettingsElement17enableFilterOwnIDEb
libdmrconf.so.0:_ZN14D878UVCodeplug22GeneralSettingsElement17setAutoRoamPeriodE8Interval
libdmrconf.so.0:_ZN14D878UVCodeplug22GeneralSettingsElement17setWakeHeadPeriodE8Interval
libdmrconf.so.0:_ZN14D878UVCodeplug22GeneralSettingsElement18enableBootGPSCheckEb
libdmrconf.so.0:_ZN14D878UVCodeplug22GeneralSettingsElement18enableSidekeysLockEb
libdmrconf.so.0:_ZN14D878UVCodeplug22GeneralSettingsElement18setGPSUpdatePeriodE8Interval
libdmrconf.so.0:_ZN14D878UVCodeplug22GeneralSettingsElement18setTransmitTimeoutEj
libdmrconf.so.0:_ZN14D878UVCodeplug22GeneralSettingsElement18setWFMChannelIndexEj
libdmrconf.so.0:_ZN14D878UVCodeplug22GeneralSettingsElement19enableKeyLockForcedEb
libdmrconf.so.0:_ZN14D878UVCodeplug22GeneralSettingsElement19enablePluginRecToneEb
libdmrconf.so.0:_ZN14D878UVCodeplug22GeneralSettingsElement19enableRemoteMonitorEb
libdmrconf.so.0:_ZN14D878UVCodeplug22GeneralSettingsElement19enableShowLastHeardEb
libdmrconf.so.0:_ZN14D878UVCodeplug22GeneralSettingsElement19setCallDisplayColorEN31AnytoneDisplaySettingsExtension5ColorE
libdmrconf.so.0:_ZN14D878UVCodeplug22GeneralSettingsElement19setChannelNameColorEN31AnytoneDisplaySettingsExtension5ColorE
libdmrconf.so.0:_ZN14D878UVCodeplug22GeneralSettingsElement19setDTMFToneDurationEj
libdmrconf.so.0:_ZN14D878UVCodeplug22GeneralSettingsElement19setMonitorSlotMatchEN27AnytoneDMRSettingsExtension9SlotMatchE
libdmrconf.so.0:_ZN14D878UVCodeplug22GeneralSettingsElement19setStandbyTextColorEN31AnytoneDisplaySettingsExtension5ColorE
libdmrconf.so.0:_ZN14D878UVCodeplug22GeneralSettingsElement19setVFOFrequencyStepE9Frequency
libdmrconf.so.0:_ZN14D878UVCodeplug22GeneralSettingsElement20enableDefaultChannelEb
libdmrconf.so.0:_ZN14D878UVCodeplug22GeneralSettingsElement20enableKeepLastCallerEb
libdmrconf.so.0:_ZN14D878UVCodeplug22GeneralSettingsElement20enableMonitorIDMatchEb
libdmrconf.so.0:_ZN14D878UVCodeplug22GeneralSettingsElement20enableRemoteStunKillEb
libdmrconf.so.0:_ZN14D878UVCodeplug22GeneralSettingsElement20setDefaultZoneIndexAEj
libdmrconf.so.0:_ZN14D878UVCodeplug22GeneralSettingsElement20setDefaultZoneIndexBEj
libdmrconf.so.0:_ZN14D878UVCodeplug22GeneralSettingsElement20setGroupCallHangTimeE8Interval
libdmrconf.so.0:_ZN14D878UVCodeplug22GeneralSettingsElement21enableSeparateDisplayEb
libdmrconf.so.0:_ZN14D878UVCodeplug22GeneralSettingsElement21setBTHoldTimeInfiniteEv
libdmrconf.so.0:_ZN14D878UVCodeplug22GeneralSettingsElement21setPriorityZoneAIndexEj
libdmrconf.so.0:_ZN14D878UVCodeplug22GeneralSettingsElement21setPriorityZoneBIndexEj
libdmrconf.so.0:_ZN14D878UVCodeplug22GeneralSettingsElement22enableBTAndInternalMicEb
libdmrconf.so.0:_ZN14D878UVCodeplug22GeneralSettingsElement22enableGPSUnitsImperialEb
libdmrconf.so.0:_ZN14D878UVCodeplug22GeneralSettingsElement22setPrivateCallHangTimeE8Interval
libdmrconf.so.0:_ZN14D878UVCodeplug22GeneralSettingsElement22setRXBacklightDurationE8Interval
libdmrconf.so.0:_ZN14D878UVCodeplug22GeneralSettingsElement22setTXBacklightDurationE8Interval
libdmrconf.so.0:_ZN14D878UVCodeplug22GeneralSettingsElement23setDefaultChannelAIndexEj
libdmrconf.so.0:_ZN14D878UVCodeplug22GeneralSettingsElement23setDefaultChannelAToVFOEv
libdmrconf.so.0:_ZN14D878UVCodeplug22GeneralSettingsElement23setDefaultChannelBIndexEj
libdmrconf.so.0:_ZN14D878UVCodeplug22GeneralSettingsElement23setDefaultChannelBToVFOEv
libdmrconf.so.0:_ZN14D878UVCodeplug22GeneralSettingsElement24enableFMSendIDAndContactEb
libdmrconf.so.0:_ZN14D878UVCodeplug22GeneralSettingsElement24enableRepeaterRangeCheckEb
libdmrconf.so.0:_ZN14D878UVCodeplug22GeneralSettingsElement24enableShowCurrentContactEb
libdmrconf.so.0:_ZN14D878UVCodeplug22GeneralSettingsElement24setRoamingStartConditionEN31AnytoneRoamingSettingsExtension9RoamStartE
libdmrconf.so.0:_ZN14D878UVCodeplug22GeneralSettingsElement25enableMaintainCallChannelEb
libdmrconf.so.0:_ZN14D878UVCodeplug22GeneralSettingsElement25enableMonitorTimeSlotHoldEb
libdmrconf.so.0:_ZN14D878UVCodeplug22GeneralSettingsElement25setAutoRepeaterDirectionBEN36AnytoneAutoRepeaterSettingsExtension9DirectionE
libdmrconf.so.0:_ZN14D878UVCodeplug22GeneralSettingsElement25setKeyToneLevelAdjustableEv
libdmrconf.so.0:_ZN14D878UVCodeplug22GeneralSettingsElement25setStandbyBackgroundImageENS0_15BackgroundImageE
libdmrconf.so.0:_ZN14D878UVCodeplug22GeneralSettingsElement26enableBTAndInternalSpeakerEb
libdmrconf.so.0:_ZN14D878UVCodeplug22GeneralSettingsElement26enableDisplayChannelNumberEb
libdmrconf.so.0:_ZN14D878UVCodeplug22GeneralSettingsElement26setDefaultRoamingZoneIndexEj
libdmrconf.so.0:_ZN14D878UVCodeplug22GeneralSettingsElement26setRepeaterRangeCheckCountEj
libdmrconf.so.0:_ZN14D878UVCodeplug22GeneralSettingsElement27enableMonitorColorCodeMatchEb
libdmrconf.so.0:_ZN14D878UVCodeplug22GeneralSettingsElement29setRepeaterRangeCheckIntervalE8Interval
libdmrconf.so.0:_ZN14D878UVCodeplug22GeneralSettingsElement30setAutoRepeaterMaxFrequencyUHFE9Frequency
libdmrconf.so.0:_ZN14D878UVCodeplug22GeneralSettingsElement30setAutoRepeaterMaxFrequencyVHFE9Frequency
libdmrconf.so.0:_ZN14D878UVCodeplug22GeneralSettingsElement30setAutoRepeaterMinFrequencyUHFE9Frequency
libdmrconf.so.0:_ZN14D878UVCodeplug22GeneralSettingsElement30setAutoRepeaterMinFrequencyVHFE9Frequency
libdmrconf.so.0:_ZN14D878UVCodeplug22GeneralSettingsElement31enableRepeaterCheckNotificationEb
libdmrconf.so.0:_ZN14D878UVCodeplug22GeneralSettingsElement32setRepeaterCheckNumNotificationsEj
libdmrconf.so.0:_ZN14D878UVCodeplug22GeneralSettingsElement5clearEv
libdmrconf.so.0:_ZN14D878UVCodeplug22GeneralSettingsElement8TimeZone6decodeEh
libdmrconf.so.0:_ZN14D878UVCodeplug22GeneralSettingsElement8TimeZone6encodeERK9QTimeZone
libdmrconf.so.0:_ZN14D878UVCodeplug22GeneralSettingsElementC1EPh
libdmrconf.so.0:_ZN14D878UVCodeplug22GeneralSettingsElementC1EPhj
libdmrconf.so.0:_ZN14D878UVCodeplug22GeneralSettingsElementC2EPh
libdmrconf.so.0:_ZN14D878UVCodeplug22GeneralSettingsElementC2EPhj
libdmrconf.so.0:_ZN14D878UVCodeplug23AESEncryptionKeyElement5clearEv
libdmrconf.so.0:_ZN14D878UVCodeplug23AESEncryptionKeyElement6setKeyERK10QByteArray
libdmrconf.so.0:_ZN14D878UVCodeplug23AESEncryptionKeyElement8setIndexEj
libdmrconf.so.0:_ZN14D878UVCodeplug23AESEncryptionKeyElementC1EPh
libdmrconf.so.0:_ZN14D878UVCodeplug23AESEncryptionKeyElementC1EPhj
libdmrconf.so.0:_ZN14D878UVCodeplug23AESEncryptionKeyElementC2EPh
libdmrconf.so.0:_ZN14D878UVCodeplug23AESEncryptionKeyElementC2EPhj
libdmrconf.so.0:_ZN14D878UVCodeplug23ExtendedSettingsElement10enableATPCEb
libdmrconf.so.0:_ZN14D878UVCodeplug23ExtendedSettingsElement10fromConfigERKN8Codeplug5FlagsERNS1_7ContextERK10ErrorStack
libdmrconf.so.0:_ZN14D878UVCodeplug23ExtendedSettingsElement10linkConfigERN8Codeplug7ContextERK10ErrorStack
libdmrconf.so.0:_ZN14D878UVCodeplug23ExtendedSettingsElement10setGPSModeEN27AnytoneGPSSettingsExtension7GPSModeE
libdmrconf.so.0:_ZN14D878UVCodeplug23ExtendedSettingsElement12setFMMicGainEj
libdmrconf.so.0:_ZN14D878UVCodeplug23ExtendedSettingsElement12updateConfigERN8Codeplug7ContextERK10ErrorStack
libdmrconf.so.0:_ZN14D878UVCodeplug23ExtendedSettingsElement13setDateFormatEN31AnytoneDisplaySettingsExtension10DateFormatE
libdmrconf.so.0:_ZN14D878UVCodeplug23ExtendedSettingsElement13setEncryptionEN27AnytoneDMRSettingsExtension14EncryptionTypeE
libdmrconf.so.0:_ZN14D878UVCodeplug23ExtendedSettingsElement14setSTEDurationE8Interval
libdmrconf.so.0:_ZN14D878UVCodeplug23ExtendedSettingsElement16enableFMIdleToneEb
libdmrconf.so.0:_ZN14D878UVCodeplug23ExtendedSettingsElement16enableGPSRoamingEb
libdmrconf.so.0:_ZN14D878UVCodeplug23ExtendedSettingsElement17setZoneANameColorEN31AnytoneDisplaySettingsExtension5ColorE
libdmrconf.so.0:_ZN14D878UVCodeplug23ExtendedSettingsElement17setZoneBNameColorEN31AnytoneDisplaySettingsExtension5ColorE
libdmrconf.so.0:_ZN14D878UVCodeplug23ExtendedSettingsElement18enableShowTimeSlotEb
libdmrconf.so.0:_ZN14D878UVCodeplug23ExtendedSettingsElement19enableShowColorCodeEb
libdmrconf.so.0:_ZN14D878UVCodeplug23ExtendedSettingsElement20setAllCallToneMelodyERK6Melody
libdmrconf.so.0:_ZN14D878UVCodeplug23ExtendedSettingsElement20setCallEndToneMelodyERK6Melody
libdmrconf.so.0:_ZN14D878UVCodeplug23ExtendedSettingsElement20setChannelBNameColorEN31AnytoneDisplaySettingsExtension5ColorE
libdmrconf.so.0:_ZN14D878UVCodeplug23ExtendedSettingsElement20setTalkerAliasSourceEN27AnytoneDMRSettingsExtension17TalkerAliasSourceE
libdmrconf.so.0:_ZN14D878UVCodeplug23ExtendedSettingsElement21enableSendTalkerAliasEb
libdmrconf.so.0:_ZN14D878UVCodeplug23ExtendedSettingsElement21enableShowChannelTypeEb
libdmrconf.so.0:_ZN14D878UVCodeplug23ExtendedSettingsElement21enableTOTNotificationEb
libdmrconf.so.0:_ZN14D878UVCodeplug23ExtendedSettingsElement22setTalkerAliasEncodingEN27AnytoneDMRSettingsExtension19TalkerAliasEncodingE
libdmrconf.so.0:_ZN14D878UVCodeplug23ExtendedSettingsElement23enableBluetoothPTTLatchEb
libdmrconf.so.0:_ZN14D878UVCodeplug23ExtendedSettingsElement25setBluetoothPTTSleepDelayE8Interval
libdmrconf.so.0:_ZN14D878UVCodeplug23ExtendedSettingsElement27setManDialGroupCallHangTimeE8Interval
libdmrconf.so.0:_ZN14D878UVCodeplug23ExtendedSettingsElement29enableResetAutoShutdownOnCallEb
libdmrconf.so.0:_ZN14D878UVCodeplug23ExtendedSettingsElement29setManDialPrivateCallHangTimeE8Interval
libdmrconf.so.0:_ZN14D878UVCodeplug23ExtendedSettingsElement30setAutoRepeaterUHF2OffsetIndexEj
libdmrconf.so.0:_ZN14D878UVCodeplug23ExtendedSettingsElement30setAutoRepeaterVHF2OffsetIndexEj
libdmrconf.so.0:_ZN14D878UVCodeplug23ExtendedSettingsElement31setAutoRepeaterUHF2MaxFrequencyE9Frequency
libdmrconf.so.0:_ZN14D878UVCodeplug23ExtendedSettingsElement31setAutoRepeaterUHF2MinFrequencyE9Frequency
libdmrconf.so.0:_ZN14D878UVCodeplug23ExtendedSettingsElement31setAutoRepeaterVHF2MaxFrequencyE9Frequency
libdmrconf.so.0:_ZN14D878UVCodeplug23ExtendedSettingsElement31setAutoRepeaterVHF2MinFrequencyE9Frequency
libdmrconf.so.0:_ZN14D878UVCodeplug23ExtendedSettingsElement32clearAutoRepeaterUHF2OffsetIndexEv
libdmrconf.so.0:_ZN14D878UVCodeplug23ExtendedSettingsElement32clearAutoRepeaterVHF2OffsetIndexEv
libdmrconf.so.0:_ZN14D878UVCodeplug23ExtendedSettingsElement33setInfiniteBluetoothPTTSleepDelayEv
libdmrconf.so.0:_ZN14D878UVCodeplug23ExtendedSettingsElement35setManDialGroupCallHangTimeInfiniteEv
libdmrconf.so.0:_ZN14D878UVCodeplug23ExtendedSettingsElement37setManDialPrivateCallHangTimeInfiniteEv
libdmrconf.so.0:_ZN14D878UVCodeplug23ExtendedSettingsElement5clearEv
libdmrconf.so.0:_ZN14D878UVCodeplug23ExtendedSettingsElementC1EPh
libdmrconf.so.0:_ZN14D878UVCodeplug23ExtendedSettingsElementC1EPhj
libdmrconf.so.0:_ZN14D878UVCodeplug23ExtendedSettingsElementC2EPh
libdmrconf.so.0:_ZN14D878UVCodeplug23ExtendedSettingsElementC2EPhj
libdmrconf.so.0:_ZN14D878UVCodeplug23HiddenZoneBitmapElementC1EPh
libdmrconf.so.0:_ZN14D878UVCodeplug23HiddenZoneBitmapElementC1EPhm
libdmrconf.so.0:_ZN14D878UVCodeplug23HiddenZoneBitmapElementC2EPh
libdmrconf.so.0:_ZN14D878UVCodeplug23HiddenZoneBitmapElementC2EPhm
libdmrconf.so.0:_ZN14D878UVCodeplug23allocateGeneralSettingsEv
libdmrconf.so.0:_ZN14D878UVCodeplug24AnalogAPRSMessageElement10setMessageERK7QString
libdmrconf.so.0:_ZN14D878UVCodeplug24AnalogAPRSMessageElement5clearEv
libdmrconf.so.0:_ZN14D878UVCodeplug24AnalogAPRSMessageElementC1EPh
libdmrconf.so.0:_ZN14D878UVCodeplug24AnalogAPRSMessageElementC1EPhm
libdmrconf.so.0:_ZN14D878UVCodeplug24AnalogAPRSMessageElementC2EPh
libdmrconf.so.0:_ZN14D878UVCodeplug24AnalogAPRSMessageElementC2EPhm
libdmrconf.so.0:_ZN14D878UVCodeplug24AnalogAPRSRXEntryElement5clearEv
libdmrconf.so.0:_ZN14D878UVCodeplug24AnalogAPRSRXEntryElement7setCallERK7QStringj
libdmrconf.so.0:_ZN14D878UVCodeplug24AnalogAPRSRXEntryElementC1EPh
libdmrconf.so.0:_ZN14D878UVCodeplug24AnalogAPRSRXEntryElementC1EPhj
libdmrconf.so.0:_ZN14D878UVCodeplug24AnalogAPRSRXEntryElementC2EPh
libdmrconf.so.0:_ZN14D878UVCodeplug24AnalogAPRSRXEntryElementC2EPhj
libdmrconf.so.0:_ZN14D878UVCodeplug24RoamingZoneBitmapElementC1EPh
libdmrconf.so.0:_ZN14D878UVCodeplug24RoamingZoneBitmapElementC1EPhm
libdmrconf.so.0:_ZN14D878UVCodeplug24RoamingZoneBitmapElementC2EPh
libdmrconf.so.0:_ZN14D878UVCodeplug24RoamingZoneBitmapElementC2EPhm
libdmrconf.so.0:_ZN14D878UVCodeplug27FMAPRSFrequencyNamesElement5clearEv
libdmrconf.so.0:_ZN14D878UVCodeplug27FMAPRSFrequencyNamesElement7setNameEjRK7QString
libdmrconf.so.0:_ZN14D878UVCodeplug27FMAPRSFrequencyNamesElementC1EPh
libdmrconf.so.0:_ZN14D878UVCodeplug27FMAPRSFrequencyNamesElementC1EPhm
libdmrconf.so.0:_ZN14D878UVCodeplug27FMAPRSFrequencyNamesElementC2EPh
libdmrconf.so.0:_ZN14D878UVCodeplug27FMAPRSFrequencyNamesElementC2EPhm
libdmrconf.so.0:_ZN14D878UVCodeplug27RoamingChannelBitmapElementC1EPh
libdmrconf.so.0:_ZN14D878UVCodeplug27RoamingChannelBitmapElementC1EPhm
libdmrconf.so.0:_ZN14D878UVCodeplug27RoamingChannelBitmapElementC2EPh
libdmrconf.so.0:_ZN14D878UVCodeplug27RoamingChannelBitmapElementC2EPhm
libdmrconf.so.0:_ZN14D878UVCodeplug9NameColor6decodeEh
libdmrconf.so.0:_ZN14D878UVCodeplug9NameColor6encodeEN31AnytoneDisplaySettingsExtension5ColorE
libdmrconf.so.0:_ZN14D878UVCodeplug9TextColor6decodeEh
libdmrconf.so.0:_ZN14D878UVCodeplug9TextColor6encodeEN31AnytoneDisplaySettingsExtension5ColorE
libdmrconf.so.0:_ZN14D878UVCodeplugC1EP7QObject
libdmrconf.so.0:_ZN14D878UVCodeplugC1ERK7QStringP7QObject
libdmrconf.so.0:_ZN14D878UVCodeplugC2EP7QObject
libdmrconf.so.0:_ZN14D878UVCodeplugC2ERK7QStringP7QObject
libdmrconf.so.0:_ZN14DM1701Codeplug10clearZonesEv
libdmrconf.so.0:_ZN14DM1701Codeplug11createZonesEP6ConfigRN8Codeplug7ContextERK10ErrorStack
libdmrconf.so.0:_ZN14DM1701Codeplug11encodeZonesEP6ConfigRKN8Codeplug5FlagsERNS2_7ContextERK10ErrorStack
libdmrconf.so.0:_ZN14DM1701Codeplug11qt_metacallEN11QMetaObject4CallEiPPv
libdmrconf.so.0:_ZN14DM1701Codeplug11qt_metacastEPKc
libdmrconf.so.0:_ZN14DM1701Codeplug12linkChannelsERN8Codeplug7ContextERK10ErrorStack
libdmrconf.so.0:_ZN14DM1701Codeplug13clearChannelsEv
libdmrconf.so.0:_ZN14DM1701Codeplug13clearContactsEv
libdmrconf.so.0:_ZN14DM1701Codeplug13linkScanListsERN8Codeplug7ContextERK10ErrorStack
libdmrconf.so.0:_ZN14DM1701Codeplug14ChannelElement14fromChannelObjEPK7ChannelRN8Codeplug7ContextE
libdmrconf.so.0:_ZN14DM1701Codeplug14ChannelElement18enableReverseBurstEb
libdmrconf.so.0:_ZN14DM1701Codeplug14ChannelElement18enableTightSquelchEb
libdmrconf.so.0:_ZN14DM1701Codeplug14ChannelElement5clearEv
libdmrconf.so.0:_ZN14DM1701Codeplug14ChannelElement8setPowerEN7Channel5PowerE
libdmrconf.so.0:_ZN14DM1701Codeplug14ChannelElementC1EPh
libdmrconf.so.0:_ZN14DM1701Codeplug14ChannelElementC1EPhm
libdmrconf.so.0:_ZN14DM1701Codeplug14ChannelElementC2EPh
libdmrconf.so.0:_ZN14DM1701Codeplug14ChannelElementC2EPhm
libdmrconf.so.0:_ZN14DM1701Codeplug14ZoneExtElement11fromZoneObjEPK4ZoneRN8Codeplug7ContextE
libdmrconf.so.0:_ZN14DM1701Codeplug14ZoneExtElement11linkZoneObjEP4ZoneRN8Codeplug7ContextE
libdmrconf.so.0:_ZN14DM1701Codeplug14ZoneExtElement15setMemberIndexAEjt
libdmrconf.so.0:_ZN14DM1701Codeplug14ZoneExtElement15setMemberIndexBEjt
libdmrconf.so.0:_ZN14DM1701Codeplug14ZoneExtElement5clearEv
libdmrconf.so.0:_ZN14DM1701Codeplug14ZoneExtElementC1EPh
libdmrconf.so.0:_ZN14DM1701Codeplug14ZoneExtElementC1EPhm
libdmrconf.so.0:_ZN14DM1701Codeplug14ZoneExtElementC2EPh
libdmrconf.so.0:_ZN14DM1701Codeplug14ZoneExtElementC2EPhm
libdmrconf.so.0:_ZN14DM1701Codeplug14ZoneExtElementD0Ev
libdmrconf.so.0:_ZN14DM1701Codeplug14ZoneExtElementD1Ev
libdmrconf.so.0:_ZN14DM1701Codeplug14ZoneExtElementD2Ev
libdmrconf.so.0:_ZN14DM1701Codeplug14clearScanListsEv
libdmrconf.so.0:_ZN14DM1701Codeplug14clearTimestampEv
libdmrconf.so.0:_ZN14DM1701Codeplug14createChannelsEP6ConfigRN8Codeplug7ContextERK10ErrorStack
libdmrconf.so.0:_ZN14DM1701Codeplug14createContactsEP6ConfigRN8Codeplug7ContextERK10ErrorStack
libdmrconf.so.0:_ZN14DM1701Codeplug14encodeChannelsEP6ConfigRKN8Codeplug5FlagsERNS2_7ContextERK10ErrorStack
libdmrconf.so.0:_ZN14DM1701Codeplug14encodeContactsEP6ConfigRKN8Codeplug5FlagsERNS2_7ContextERK10ErrorStack
libdmrconf.so.0:_ZN14DM1701Codeplug14linkGroupListsERN8Codeplug7ContextERK10ErrorStack
libdmrconf.so.0:_ZN14DM1701Codeplug15clearGroupListsEv
libdmrconf.so.0:_ZN14DM1701Codeplug15createScanListsEP6ConfigRN8Codeplug7ContextERK10ErrorStack
libdmrconf.so.0:_ZN14DM1701Codeplug15encodeScanListsEP6ConfigRKN8Codeplug5FlagsERNS2_7ContextERK10ErrorStack
libdmrconf.so.0:_ZN14DM1701Codeplug15encodeTimestampEv
libdmrconf.so.0:_ZN14DM1701Codeplug16clearPrivacyKeysEv
libdmrconf.so.0:_ZN14DM1701Codeplug16clearVFOSettingsEv
libdmrconf.so.0:_ZN14DM1701Codeplug16createGroupListsEP6ConfigRN8Codeplug7ContextERK10ErrorStack
libdmrconf.so.0:_ZN14DM1701Codeplug16encodeGroupListsEP6ConfigRKN8Codeplug5FlagsERNS2_7ContextERK10ErrorStack
libdmrconf.so.0:_ZN14DM1701Codeplug17VFOChannelElement11setStepSizeEj
libdmrconf.so.0:_ZN14DM1701Codeplug17VFOChannelElement7setNameERK7QString
libdmrconf.so.0:_ZN14DM1701Codeplug17VFOChannelElementC1EPh
libdmrconf.so.0:_ZN14DM1701Codeplug17VFOChannelElementC1EPhm
libdmrconf.so.0:_ZN14DM1701Codeplug17VFOChannelElementC2EPh
libdmrconf.so.0:_ZN14DM1701Codeplug17VFOChannelElementC2EPhm
libdmrconf.so.0:_ZN14DM1701Codeplug17VFOChannelElementD0Ev
libdmrconf.so.0:_ZN14DM1701Codeplug17VFOChannelElementD1Ev
libdmrconf.so.0:_ZN14DM1701Codeplug17VFOChannelElementD2Ev
libdmrconf.so.0:_ZN14DM1701Codeplug17clearMenuSettingsEv
libdmrconf.so.0:_ZN14DM1701Codeplug17clearTextMessagesEv
libdmrconf.so.0:_ZN14DM1701Codeplug17decodePrivacyKeysEP6ConfigRN8Codeplug7ContextERK10ErrorStack
libdmrconf.so.0:_ZN14DM1701Codeplug17encodePrivacyKeysEP6ConfigRKN8Codeplug5FlagsERNS2_7ContextERK10ErrorStack
libdmrconf.so.0:_ZN14DM1701Codeplug18decodeTextMessagesERN8Codeplug7ContextERK10ErrorStack
libdmrconf.so.0:_ZN14DM1701Codeplug18encodeTextMessagesERN8Codeplug7ContextERKNS0_5FlagsERK10ErrorStack
libdmrconf.so.0:_ZN14DM1701Codeplug19clearButtonSettingsEv
libdmrconf.so.0:_ZN14DM1701Codeplug20clearGeneralSettingsEv
libdmrconf.so.0:_ZN14DM1701Codeplug20encodeButtonSettingsEP6ConfigRKN8Codeplug5FlagsERNS2_7ContextERK10ErrorStack
libdmrconf.so.0:_ZN14DM1701Codeplug21ButtonSettingsElement10fromConfigEPK6Config
libdmrconf.so.0:_ZN14DM1701Codeplug21ButtonSettingsElement12updateConfigEP6Config
libdmrconf.so.0:_ZN14DM1701Codeplug21ButtonSettingsElement18setProgButton1LongEN17TyTButtonSettings12ButtonActionE
libdmrconf.so.0:_ZN14DM1701Codeplug21ButtonSettingsElement18setProgButton2LongEN17TyTButtonSettings12ButtonActionE
libdmrconf.so.0:_ZN14DM1701Codeplug21ButtonSettingsElement18setSideButton3LongEN17TyTButtonSettings12ButtonActionE
libdmrconf.so.0:_ZN14DM1701Codeplug21ButtonSettingsElement19setProgButton1ShortEN17TyTButtonSettings12ButtonActionE
libdmrconf.so.0:_ZN14DM1701Codeplug21ButtonSettingsElement19setProgButton2ShortEN17TyTButtonSettings12ButtonActionE
libdmrconf.so.0:_ZN14DM1701Codeplug21ButtonSettingsElement19setSideButton3ShortEN17TyTButtonSettings12ButtonActionE
libdmrconf.so.0:_ZN14DM1701Codeplug21ButtonSettingsElement5clearEv
libdmrconf.so.0:_ZN14DM1701Codeplug21ButtonSettingsElementC1EPh
libdmrconf.so.0:_ZN14DM1701Codeplug21ButtonSettingsElementC1EPhm
libdmrconf.so.0:_ZN14DM1701Codeplug21ButtonSettingsElementC2EPh
libdmrconf.so.0:_ZN14DM1701Codeplug21ButtonSettingsElementC2EPhm
libdmrconf.so.0:_ZN14DM1701Codeplug21clearEmergencySystemsEv
libdmrconf.so.0:_ZN14DM1701Codeplug21decodeButtonSetttingsEP6ConfigRK10ErrorStack
libdmrconf.so.0:_ZN14DM1701Codeplug21decodeGeneralSettingsEP6ConfigRK10ErrorStack
libdmrconf.so.0:_ZN14DM1701Codeplug21encodeGeneralSettingsEP6ConfigRKN8Codeplug5FlagsERNS2_7ContextERK10ErrorStack
libdmrconf.so.0:_ZN14DM1701Codeplug22GeneralSettingsElement10fromConfigEPK6Config
libdmrconf.so.0:_ZN14DM1701Codeplug22GeneralSettingsElement11setTimeZoneERK9QTimeZone
libdmrconf.so.0:_ZN14DM1701Codeplug22GeneralSettingsElement12updateConfigEP6Config
libdmrconf.so.0:_ZN14DM1701Codeplug22GeneralSettingsElement17enableChannelModeEb
libdmrconf.so.0:_ZN14DM1701Codeplug22GeneralSettingsElement18enableChannelModeAEb
libdmrconf.so.0:_ZN14DM1701Codeplug22GeneralSettingsElement18enableChannelModeBEb
libdmrconf.so.0:_ZN14DM1701Codeplug22GeneralSettingsElement18setChannelHangTimeEj
libdmrconf.so.0:_ZN14DM1701Codeplug22GeneralSettingsElement20enableGroupCallMatchEb
libdmrconf.so.0:_ZN14DM1701Codeplug22GeneralSettingsElement22enablePrivateCallMatchEb
libdmrconf.so.0:_ZN14DM1701Codeplug22GeneralSettingsElement5clearEv
libdmrconf.so.0:_ZN14DM1701Codeplug22GeneralSettingsElementC1EPh
libdmrconf.so.0:_ZN14DM1701Codeplug22GeneralSettingsElementC1EPhm
libdmrconf.so.0:_ZN14DM1701Codeplug22GeneralSettingsElementC2EPh
libdmrconf.so.0:_ZN14DM1701Codeplug22GeneralSettingsElementC2EPhm
libdmrconf.so.0:_ZN14DM1701Codeplug22linkPositioningSystemsERN8Codeplug7ContextERK10ErrorStack
libdmrconf.so.0:_ZN14DM1701Codeplug23clearPositioningSystemsEv
libdmrconf.so.0:_ZN14DM1701Codeplug24createPositioningSystemsEP6ConfigRN8Codeplug7ContextERK10ErrorStack
libdmrconf.so.0:_ZN14DM1701Codeplug24encodePositioningSystemsEP6ConfigRKN8Codeplug5FlagsERNS2_7ContextERK10ErrorStack
libdmrconf.so.0:_ZN14DM1701Codeplug9linkZonesERN8Codeplug7ContextERK10ErrorStack
libdmrconf.so.0:_ZN14DM1701CodeplugC1EP7QObject
libdmrconf.so.0:_ZN14DM1701CodeplugC2EP7QObject
libdmrconf.so.0:_ZN14DM1701CodeplugD0Ev
libdmrconf.so.0:_ZN14DM1701CodeplugD1Ev
libdmrconf.so.0:_ZN14DM1701CodeplugD2Ev
libdmrconf.so.0:_ZN14DMR6X2UVLimits11qt_metacallEN11QMetaObject4CallEiPPv
libdmrconf.so.0:_ZN14DMR6X2UVLimits11qt_metacastEPKc
libdmrconf.so.0:_ZN14DMR6X2UVLimitsC1ERKSt16initializer_listISt4pairI9FrequencyS2_EES6_RK7QStringP7QObject
libdmrconf.so.0:_ZN14DMR6X2UVLimitsC2ERKSt16initializer_listISt4pairI9FrequencyS2_EES6_RK7QStringP7QObject
libdmrconf.so.0:_ZN14DR1801UVLimits11qt_metacallEN11QMetaObject4CallEiPPv
libdmrconf.so.0:_ZN14DR1801UVLimits11qt_metacastEPKc
libdmrconf.so.0:_ZN14DR1801UVLimitsC1EP7QObject
libdmrconf.so.0:_ZN14DR1801UVLimitsC2EP7QObject
libdmrconf.so.0:_ZN14DefaultRadioID11qt_metacallEN11QMetaObject4CallEiPPv
libdmrconf.so.0:_ZN14DefaultRadioID11qt_metacastEPKc
libdmrconf.so.0:_ZN14DefaultRadioID3getEv
libdmrconf.so.0:_ZN14DefaultRadioIDC1EP7QObject
libdmrconf.so.0:_ZN14DefaultRadioIDC2EP7QObject
libdmrconf.so.0:_ZN14DigitalChannel11qt_metacallEN11QMetaObject4CallEiPPv
libdmrconf.so.0:_ZN14DigitalChannel11qt_metacastEPKc
libdmrconf.so.0:_ZN14DigitalChannelC1EP7QObject
libdmrconf.so.0:_ZN14DigitalChannelC1ERKS_P7QObject
libdmrconf.so.0:_ZN14DigitalChannelC2EP7QObject
libdmrconf.so.0:_ZN14DigitalChannelC2ERKS_P7QObject
libdmrconf.so.0:_ZN14DigitalContact11qt_metacallEN11QMetaObject4CallEiPPv
libdmrconf.so.0:_ZN14DigitalContact11qt_metacastEPKc
libdmrconf.so.0:_ZN14DigitalContactC1EP7QObject
libdmrconf.so.0:_ZN14DigitalContactC1ERK7QStringbP7QObject
libdmrconf.so.0:_ZN14DigitalContactC2EP7QObject
libdmrconf.so.0:_ZN14DigitalContactC2ERK7QStringbP7QObject
libdmrconf.so.0:_ZN14EncryptionKeys11qt_metacallEN11QMetaObject4CallEiPPv
libdmrconf.so.0:_ZN14EncryptionKeys11qt_metacastEPKc
libdmrconf.so.0:_ZN14EncryptionKeys13allocateChildERKN4YAML4NodeERN10ConfigItem7ContextERK10ErrorStack
libdmrconf.so.0:_ZN14EncryptionKeys3addEP12ConfigObjectib
libdmrconf.so.0:_ZN14EncryptionKeysC1EP7QObject
libdmrconf.so.0:_ZN14EncryptionKeysC2EP7QObject
libdmrconf.so.0:_ZN14FileLogHandler11qt_metacallEN11QMetaObject4CallEiPPv
libdmrconf.so.0:_ZN14FileLogHandler11qt_metacastEPKc
libdmrconf.so.0:_ZN14FileLogHandler11setMinLevelEN10LogMessage5LevelE
libdmrconf.so.0:_ZN14FileLogHandler6handleERK10LogMessage
libdmrconf.so.0:_ZN14FileLogHandlerC1ERK7QStringN10LogMessage5LevelEP7QObject
libdmrconf.so.0:_ZN14FileLogHandlerC2ERK7QStringN10LogMessage5LevelEP7QObject
libdmrconf.so.0:_ZN14FileLogHandlerD0Ev
libdmrconf.so.0:_ZN14FileLogHandlerD1Ev
libdmrconf.so.0:_ZN14FileLogHandlerD2Ev
libdmrconf.so.0:_ZN14GD73FileReader4readERK7QStringP12GD73CodeplugRK10ErrorStack
libdmrconf.so.0:_ZN14GD77CallsignDB11qt_metacallEN11QMetaObject4CallEiPPv
libdmrconf.so.0:_ZN14GD77CallsignDB11qt_metacastEPKc
libdmrconf.so.0:_ZN14GD77CallsignDB14userdb_entry_t5clearEv
libdmrconf.so.0:_ZN14GD77CallsignDB14userdb_entry_t7setNameERK7QString
libdmrconf.so.0:_ZN14GD77CallsignDB14userdb_entry_t9fromEntryERKN12UserDatabase4UserE
libdmrconf.so.0:_ZN14GD77CallsignDB14userdb_entry_t9setNumberEj
libdmrconf.so.0:_ZN14GD77CallsignDB14userdb_entry_tC1Ev
libdmrconf.so.0:_ZN14GD77CallsignDB14userdb_entry_tC2Ev
libdmrconf.so.0:_ZN14GD77CallsignDB6encodeEP12UserDatabaseRKN10CallsignDB9SelectionERK10ErrorStack
libdmrconf.so.0:_ZN14GD77CallsignDB8userdb_t5clearEv
libdmrconf.so.0:_ZN14GD77CallsignDB8userdb_t7setSizeEj
libdmrconf.so.0:_ZN14GD77CallsignDB8userdb_tC1Ev
libdmrconf.so.0:_ZN14GD77CallsignDB8userdb_tC2Ev
libdmrconf.so.0:_ZN14GD77CallsignDBC1EP7QObject
libdmrconf.so.0:_ZN14GD77CallsignDBC2EP7QObject
libdmrconf.so.0:_ZN14GD77CallsignDBD0Ev
libdmrconf.so.0:_ZN14GD77CallsignDBD1Ev
libdmrconf.so.0:_ZN14GD77CallsignDBD2Ev
libdmrconf.so.0:_ZN14GD77FileReader4readERK7QStringP12GD77CodeplugRK10ErrorStack
libdmrconf.so.0:_ZN14MD2017Codeplug10clearZonesEv
libdmrconf.so.0:_ZN14MD2017Codeplug11createZonesEP6ConfigRN8Codeplug7ContextERK10ErrorStack
libdmrconf.so.0:_ZN14MD2017Codeplug11encodeZonesEP6ConfigRKN8Codeplug5FlagsERNS2_7ContextERK10ErrorStack
libdmrconf.so.0:_ZN14MD2017Codeplug11qt_metacallEN11QMetaObject4CallEiPPv
libdmrconf.so.0:_ZN14MD2017Codeplug11qt_metacastEPKc
libdmrconf.so.0:_ZN14MD2017Codeplug12linkChannelsERN8Codeplug7ContextERK10ErrorStack
libdmrconf.so.0:_ZN14MD2017Codeplug13clearChannelsEv
libdmrconf.so.0:_ZN14MD2017Codeplug13clearContactsEv
libdmrconf.so.0:_ZN14MD2017Codeplug13linkScanListsERN8Codeplug7ContextERK10ErrorStack
libdmrconf.so.0:_ZN14MD2017Codeplug14ContactElementC1EPh
libdmrconf.so.0:_ZN14MD2017Codeplug14ContactElementC1EPhm
libdmrconf.so.0:_ZN14MD2017Codeplug14ContactElementC2EPh
libdmrconf.so.0:_ZN14MD2017Codeplug14ContactElementC2EPhm
libdmrconf.so.0:_ZN14MD2017Codeplug14clearScanListsEv
libdmrconf.so.0:_ZN14MD2017Codeplug14clearTimestampEv
libdmrconf.so.0:_ZN14MD2017Codeplug14createChannelsEP6ConfigRN8Codeplug7ContextERK10ErrorStack
libdmrconf.so.0:_ZN14MD2017Codeplug14createContactsEP6ConfigRN8Codeplug7ContextERK10ErrorStack
libdmrconf.so.0:_ZN14MD2017Codeplug14encodeChannelsEP6ConfigRKN8Codeplug5FlagsERNS2_7ContextERK10ErrorStack
libdmrconf.so.0:_ZN14MD2017Codeplug14encodeContactsEP6ConfigRKN8Codeplug5FlagsERNS2_7ContextERK10ErrorStack
libdmrconf.so.0:_ZN14MD2017Codeplug14linkGroupListsERN8Codeplug7ContextERK10ErrorStack
libdmrconf.so.0:_ZN14MD2017Codeplug15clearGroupListsEv
libdmrconf.so.0:_ZN14MD2017Codeplug15createScanListsEP6ConfigRN8Codeplug7ContextERK10ErrorStack
libdmrconf.so.0:_ZN14MD2017Codeplug15encodeScanListsEP6ConfigRKN8Codeplug5FlagsERNS2_7ContextERK10ErrorStack
libdmrconf.so.0:_ZN14MD2017Codeplug15encodeTimestampEv
libdmrconf.so.0:_ZN14MD2017Codeplug16clearPrivacyKeysEv
libdmrconf.so.0:_ZN14MD2017Codeplug16clearVFOSettingsEv
libdmrconf.so.0:_ZN14MD2017Codeplug16createGroupListsEP6ConfigRN8Codeplug7ContextERK10ErrorStack
libdmrconf.so.0:_ZN14MD2017Codeplug16encodeGroupListsEP6ConfigRKN8Codeplug5FlagsERNS2_7ContextERK10ErrorStack
libdmrconf.so.0:_ZN14MD2017Codeplug17clearBootSettingsEv
libdmrconf.so.0:_ZN14MD2017Codeplug17clearMenuSettingsEv
libdmrconf.so.0:_ZN14MD2017Codeplug17clearTextMessagesEv
libdmrconf.so.0:_ZN14MD2017Codeplug17decodePrivacyKeysEP6ConfigRN8Codeplug7ContextERK10ErrorStack
libdmrconf.so.0:_ZN14MD2017Codeplug17encodePrivacyKeysEP6ConfigRKN8Codeplug5FlagsERNS2_7ContextERK10ErrorStack
libdmrconf.so.0:_ZN14MD2017Codeplug18decodeTextMessagesERN8Codeplug7ContextERK10ErrorStack
libdmrconf.so.0:_ZN14MD2017Codeplug18encodeTextMessagesERN8Codeplug7ContextERKNS0_5FlagsERK10ErrorStack
libdmrconf.so.0:_ZN14MD2017Codeplug19clearButtonSettingsEv
libdmrconf.so.0:_ZN14MD2017Codeplug20clearGeneralSettingsEv
libdmrconf.so.0:_ZN14MD2017Codeplug20encodeButtonSettingsEP6ConfigRKN8Codeplug5FlagsERNS2_7ContextERK10ErrorStack
libdmrconf.so.0:_ZN14MD2017Codeplug21clearEmergencySystemsEv
libdmrconf.so.0:_ZN14MD2017Codeplug21decodeButtonSetttingsEP6ConfigRK10ErrorStack
libdmrconf.so.0:_ZN14MD2017Codeplug21decodeGeneralSettingsEP6ConfigRK10ErrorStack
libdmrconf.so.0:_ZN14MD2017Codeplug21encodeGeneralSettingsEP6ConfigRKN8Codeplug5FlagsERNS2_7ContextERK10ErrorStack
libdmrconf.so.0:_ZN14MD2017Codeplug22linkPositioningSystemsERN8Codeplug7ContextERK10ErrorStack
libdmrconf.so.0:_ZN14MD2017Codeplug23clearPositioningSystemsEv
libdmrconf.so.0:_ZN14MD2017Codeplug24createPositioningSystemsEP6ConfigRN8Codeplug7ContextERK10ErrorStack
libdmrconf.so.0:_ZN14MD2017Codeplug24encodePositioningSystemsEP6ConfigRKN8Codeplug5FlagsERNS2_7ContextERK10ErrorStack
libdmrconf.so.0:_ZN14MD2017Codeplug9linkZonesERN8Codeplug7ContextERK10ErrorStack
libdmrconf.so.0:_ZN14MD2017CodeplugC1EP7QObject
libdmrconf.so.0:_ZN14MD2017CodeplugC2EP7QObject
libdmrconf.so.0:_ZN14MD2017CodeplugD0Ev
libdmrconf.so.0:_ZN14MD2017CodeplugD1Ev
libdmrconf.so.0:_ZN14MD2017CodeplugD2Ev
libdmrconf.so.0:_ZN14OpenGD77Limits11qt_metacallEN11QMetaObject4CallEiPPv
libdmrconf.so.0:_ZN14OpenGD77Limits11qt_metacastEPKc
libdmrconf.so.0:_ZN14OpenGD77LimitsC1EP7QObject
libdmrconf.so.0:_ZN14OpenGD77LimitsC2EP7QObject
libdmrconf.so.0:_ZN14RD5RFileReader4readERK7QStringP12RD5RCodeplugRK10ErrorStack
libdmrconf.so.0:_ZN14RadioInterface12write_finishERK10ErrorStack
libdmrconf.so.0:_ZN14RadioInterface6rebootERK10ErrorStack
libdmrconf.so.0:_ZN14RadioInterfaceC1Ev
libdmrconf.so.0:_ZN14RadioInterfaceC2Ev
libdmrconf.so.0:_ZN14RadioInterfaceD0Ev
libdmrconf.so.0:_ZN14RadioInterfaceD1Ev
libdmrconf.so.0:_ZN14RadioInterfaceD2Ev
libdmrconf.so.0:_ZN14RadioLimitBool11qt_metacallEN11QMetaObject4CallEiPPv
libdmrconf.so.0:_ZN14RadioLimitBool11qt_metacastEPKc
libdmrconf.so.0:_ZN14RadioLimitBoolC1EP7QObject
libdmrconf.so.0:_ZN14RadioLimitBoolC2EP7QObject
libdmrconf.so.0:_ZN14RadioLimitEnum11qt_metacallEN11QMetaObject4CallEiPPv
libdmrconf.so.0:_ZN14RadioLimitEnum11qt_metacastEPKc
libdmrconf.so.0:_ZN14RadioLimitEnumC1ERKSt16initializer_listIjEP7QObject
libdmrconf.so.0:_ZN14RadioLimitEnumC2ERKSt16initializer_listIjEP7QObject
libdmrconf.so.0:_ZN14RadioLimitItem11qt_metacallEN11QMetaObject4CallEiPPv
libdmrconf.so.0:_ZN14RadioLimitItem11qt_metacastEPKc
libdmrconf.so.0:_ZN14RadioLimitItem3addERK7QStringP17RadioLimitElement
libdmrconf.so.0:_ZN14RadioLimitItemC1EP7QObject
libdmrconf.so.0:_ZN14RadioLimitItemC1ERKSt16initializer_listISt4pairI7QStringP17RadioLimitElementEEP7QObject
libdmrconf.so.0:_ZN14RadioLimitItemC2EP7QObject
libdmrconf.so.0:_ZN14RadioLimitItemC2ERKSt16initializer_listISt4pairI7QStringP17RadioLimitElementEEP7QObject
libdmrconf.so.0:_ZN14RadioLimitList11qt_metacallEN11QMetaObject4CallEiPPv
libdmrconf.so.0:_ZN14RadioLimitList11qt_metacastEPKc
libdmrconf.so.0:_ZN14RadioLimitListC1ERK11QMetaObjectiiP16RadioLimitObjectP7QObject
libdmrconf.so.0:_ZN14RadioLimitListC1ERKSt16initializer_listINS_13ElementLimitsEEP7QObject
libdmrconf.so.0:_ZN14RadioLimitListC2ERK11QMetaObjectiiP16RadioLimitObjectP7QObject
libdmrconf.so.0:_ZN14RadioLimitListC2ERKSt16initializer_listINS_13ElementLimitsEEP7QObject
libdmrconf.so.0:_ZN14RadioLimitUInt11qt_metacallEN11QMetaObject4CallEiPPv
libdmrconf.so.0:_ZN14RadioLimitUInt11qt_metacastEPKc
libdmrconf.so.0:_ZN14RadioLimitUIntC1ExxxP7QObject
libdmrconf.so.0:_ZN14RadioLimitUIntC2ExxxP7QObject
libdmrconf.so.0:_ZN14RoamingChannel11qt_metacallEN11QMetaObject4CallEiPPv
libdmrconf.so.0:_ZN14RoamingChannel11qt_metacastEPKc
libdmrconf.so.0:_ZN14RoamingChannel11setTimeSlotEN10DMRChannel8TimeSlotE
libdmrconf.so.0:_ZN14RoamingChannel12setColorCodeEj
libdmrconf.so.0:_ZN14RoamingChannel14fromDMRChannelEP10DMRChannelS1_
libdmrconf.so.0:_ZN14RoamingChannel14setRXFrequencyE9Frequency
libdmrconf.so.0:_ZN14RoamingChannel14setTXFrequencyE9Frequency
libdmrconf.so.0:_ZN14RoamingChannel16overrideTimeSlotEb
libdmrconf.so.0:_ZN14RoamingChannel17overrideColorCodeEb
libdmrconf.so.0:_ZN14RoamingChannel5clearEv
libdmrconf.so.0:_ZN14RoamingChannel5parseERKN4YAML4NodeERN10ConfigItem7ContextERK10ErrorStack
libdmrconf.so.0:_ZN14RoamingChannel8populateERN4YAML4NodeERKN10ConfigItem7ContextERK10ErrorStack
libdmrconf.so.0:_ZN14RoamingChannelC1EP7QObject
libdmrconf.so.0:_ZN14RoamingChannelC1ERKS_P7QObject
libdmrconf.so.0:_ZN14RoamingChannelC2EP7QObject
libdmrconf.so.0:_ZN14RoamingChannelC2ERKS_P7QObject
libdmrconf.so.0:_ZN15AnytoneCodeplug11qt_metacallEN11QMetaObject4CallEiPPv
libdmrconf.so.0:_ZN15AnytoneCodeplug11qt_metacastEPKc
libdmrconf.so.0:_ZN15AnytoneCodeplug13BitmapElement10setEncodedEjb
libdmrconf.so.0:_ZN15AnytoneCodeplug13BitmapElement11enableFirstEj
libdmrconf.so.0:_ZN15AnytoneCodeplug13BitmapElement5clearEv
libdmrconf.so.0:_ZN15AnytoneCodeplug13BitmapElementC1EPhm
libdmrconf.so.0:_ZN15AnytoneCodeplug13BitmapElementC2EPhm
libdmrconf.so.0:_ZN15AnytoneCodeplug13HotKeyElement11setCallTypeENS0_8CallTypeE
libdmrconf.so.0:_ZN15AnytoneCodeplug13HotKeyElement11setMenuItemENS0_8MenuItemE
libdmrconf.so.0:_ZN15AnytoneCodeplug13HotKeyElement15setContactIndexEj
libdmrconf.so.0:_ZN15AnytoneCodeplug13HotKeyElement15setDigiCallTypeENS0_12DigiCallTypeE
libdmrconf.so.0:_ZN15AnytoneCodeplug13HotKeyElement15setMessageIndexEj
libdmrconf.so.0:_ZN15AnytoneCodeplug13HotKeyElement17clearContactIndexEv
libdmrconf.so.0:_ZN15AnytoneCodeplug13HotKeyElement17clearMessageIndexEv
libdmrconf.so.0:_ZN15AnytoneCodeplug13HotKeyElement5clearEv
libdmrconf.so.0:_ZN15AnytoneCodeplug13HotKeyElement7setTypeENS0_4TypeE
libdmrconf.so.0:_ZN15AnytoneCodeplug13HotKeyElementC1EPh
libdmrconf.so.0:_ZN15AnytoneCodeplug13HotKeyElementC1EPhj
libdmrconf.so.0:_ZN15AnytoneCodeplug13HotKeyElementC2EPh
libdmrconf.so.0:_ZN15AnytoneCodeplug13HotKeyElementC2EPhj
libdmrconf.so.0:_ZN15AnytoneCodeplug13WFMVFOElement12setFrequencyE9Frequency
libdmrconf.so.0:_ZN15AnytoneCodeplug13WFMVFOElement5clearEv
libdmrconf.so.0:_ZN15AnytoneCodeplug13WFMVFOElementC1EPh
libdmrconf.so.0:_ZN15AnytoneCodeplug13WFMVFOElementC1EPhm
libdmrconf.so.0:_ZN15AnytoneCodeplug13WFMVFOElementC2EPh
libdmrconf.so.0:_ZN15AnytoneCodeplug13WFMVFOElementC2EPhm
libdmrconf.so.0:_ZN15AnytoneCodeplug14ChannelElement10setRXCTCSSEN9Signaling4CodeE
libdmrconf.so.0:_ZN15AnytoneCodeplug14ChannelElement10setTXCTCSSEN9Signaling4CodeE
libdmrconf.so.0:_ZN15AnytoneCodeplug14ChannelElement11setTXOffsetEj
libdmrconf.so.0:_ZN15AnytoneCodeplug14ChannelElement11setTimeSlotEN10DMRChannel8TimeSlotE
libdmrconf.so.0:_ZN15AnytoneCodeplug14ChannelElement12enableRXAPRSEb
libdmrconf.so.0:_ZN15AnytoneCodeplug14ChannelElement12enableRXOnlyEb
libdmrconf.so.0:_ZN15AnytoneCodeplug14ChannelElement12setBandwidthEN9FMChannel9BandwidthE
libdmrconf.so.0:_ZN15AnytoneCodeplug14ChannelElement12setColorCodeEj
libdmrconf.so.0:_ZN15AnytoneCodeplug14ChannelElement14fromChannelObjEPK7ChannelRN8Codeplug7ContextE
libdmrconf.so.0:_ZN15AnytoneCodeplug14ChannelElement14setDTMFIDIndexEj
libdmrconf.so.0:_ZN15AnytoneCodeplug14ChannelElement14setRXFrequencyEj
libdmrconf.so.0:_ZN15AnytoneCodeplug14ChannelElement14setSquelchModeEN25AnytoneFMChannelExtension11SquelchModeE
libdmrconf.so.0:_ZN15AnytoneCodeplug14ChannelElement14setTXFrequencyEj
libdmrconf.so.0:_ZN15AnytoneCodeplug14ChannelElement15setContactIndexEj
libdmrconf.so.0:_ZN15AnytoneCodeplug14ChannelElement15setRadioIDIndexEj
libdmrconf.so.0:_ZN15AnytoneCodeplug14ChannelElement15setRepeaterModeENS0_12RepeaterModeE
libdmrconf.so.0:_ZN15AnytoneCodeplug14ChannelElement16enableLoneWorkerEb
libdmrconf.so.0:_ZN15AnytoneCodeplug14ChannelElement16enableSMSConfirmEb
libdmrconf.so.0:_ZN15AnytoneCodeplug14ChannelElement16enableTalkaroundEb
libdmrconf.so.0:_ZN15AnytoneCodeplug14ChannelElement16setScanListIndexEj
libdmrconf.so.0:_ZN15AnytoneCodeplug14ChannelElement17enableCallConfirmEb
libdmrconf.so.0:_ZN15AnytoneCodeplug14ChannelElement17enableSimplexTDMAEb
libdmrconf.so.0:_ZN15AnytoneCodeplug14ChannelElement17setGroupListIndexEj
libdmrconf.so.0:_ZN15AnytoneCodeplug14ChannelElement17setTwoToneIDIndexEj
libdmrconf.so.0:_ZN15AnytoneCodeplug14ChannelElement18clearScanListIndexEv
libdmrconf.so.0:_ZN15AnytoneCodeplug14ChannelElement18enableAdaptiveTDMAEb
libdmrconf.so.0:_ZN15AnytoneCodeplug14ChannelElement18setFiveToneIDIndexEj
libdmrconf.so.0:_ZN15AnytoneCodeplug14ChannelElement18setRXSignalingModeENS0_13SignalingModeE
libdmrconf.so.0:_ZN15AnytoneCodeplug14ChannelElement18setTXSignalingModeENS0_13SignalingModeE
libdmrconf.so.0:_ZN15AnytoneCodeplug14ChannelElement19clearGroupListIndexEv
libdmrconf.so.0:_ZN15AnytoneCodeplug14ChannelElement19enableRXCustomCTCSSEv
libdmrconf.so.0:_ZN15AnytoneCodeplug14ChannelElement19enableTXCustomCTCSSEv
libdmrconf.so.0:_ZN15AnytoneCodeplug14ChannelElement20setOptionalSignalingENS0_12OptSignalingE
libdmrconf.so.0:_ZN15AnytoneCodeplug14ChannelElement21setEncryptionKeyIndexEj
libdmrconf.so.0:_ZN15AnytoneCodeplug14ChannelElement21setTwoToneDecodeIndexEj
libdmrconf.so.0:_ZN15AnytoneCodeplug14ChannelElement23clearEncryptionKeyIndexEv
libdmrconf.so.0:_ZN15AnytoneCodeplug14ChannelElement23setCustomCTCSSFrequencyEd
libdmrconf.so.0:_ZN15AnytoneCodeplug14ChannelElement24enableCTCSSPhaseReversalEb
libdmrconf.so.0:_ZN15AnytoneCodeplug14ChannelElement24enableEnhancedEncryptionEb
libdmrconf.so.0:_ZN15AnytoneCodeplug14ChannelElement5clearEv
libdmrconf.so.0:_ZN15AnytoneCodeplug14ChannelElement7setModeENS0_4ModeE
libdmrconf.so.0:_ZN15AnytoneCodeplug14ChannelElement7setNameERK7QString
libdmrconf.so.0:_ZN15AnytoneCodeplug14ChannelElement8setAdmitENS0_5AdmitE
libdmrconf.so.0:_ZN15AnytoneCodeplug14ChannelElement8setPowerEN7Channel5PowerE
libdmrconf.so.0:_ZN15AnytoneCodeplug14ChannelElement8setRXDCSEN9Signaling4CodeE
libdmrconf.so.0:_ZN15AnytoneCodeplug14ChannelElement8setTXDCSEN9Signaling4CodeE
libdmrconf.so.0:_ZN15AnytoneCodeplug14ChannelElement9setRXToneEN9Signaling4CodeE
libdmrconf.so.0:_ZN15AnytoneCodeplug14ChannelElement9setTXToneEN9Signaling4CodeE
libdmrconf.so.0:_ZN15AnytoneCodeplug14ChannelElementC1EPh
libdmrconf.so.0:_ZN15AnytoneCodeplug14ChannelElementC1EPhj
libdmrconf.so.0:_ZN15AnytoneCodeplug14ChannelElementC2EPh
libdmrconf.so.0:_ZN15AnytoneCodeplug14ChannelElementC2EPhj
libdmrconf.so.0:_ZN15AnytoneCodeplug14ChannelElementD0Ev
libdmrconf.so.0:_ZN15AnytoneCodeplug14ChannelElementD1Ev
libdmrconf.so.0:_ZN15AnytoneCodeplug14ChannelElementD2Ev
libdmrconf.so.0:_ZN15AnytoneCodeplug14ContactElement12setAlertTypeEN23AnytoneContactExtension9AlertTypeE
libdmrconf.so.0:_ZN15AnytoneCodeplug14ContactElement14fromContactObjEPK10DMRContactRN8Codeplug7ContextE
libdmrconf.so.0:_ZN15AnytoneCodeplug14ContactElement5clearEv
libdmrconf.so.0:_ZN15AnytoneCodeplug14ContactElement7setNameERK7QString
libdmrconf.so.0:_ZN15AnytoneCodeplug14ContactElement7setTypeEN10DMRContact4TypeE
libdmrconf.so.0:_ZN15AnytoneCodeplug14ContactElement9setNumberEj
libdmrconf.so.0:_ZN15AnytoneCodeplug14ContactElementC1EPh
libdmrconf.so.0:_ZN15AnytoneCodeplug14ContactElementC1EPhj
libdmrconf.so.0:_ZN15AnytoneCodeplug14ContactElementC2EPh
libdmrconf.so.0:_ZN15AnytoneCodeplug14ContactElementC2EPhj
libdmrconf.so.0:_ZN15AnytoneCodeplug14ContactElementD0Ev
libdmrconf.so.0:_ZN15AnytoneCodeplug14ContactElementD1Ev
libdmrconf.so.0:_ZN15AnytoneCodeplug14ContactElementD2Ev
libdmrconf.so.0:_ZN15AnytoneCodeplug14MessageElement10setMessageERK7QString
libdmrconf.so.0:_ZN15AnytoneCodeplug14MessageElement5clearEv
libdmrconf.so.0:_ZN15AnytoneCodeplug14MessageElementC1EPh
libdmrconf.so.0:_ZN15AnytoneCodeplug14MessageElementC1EPhj
libdmrconf.so.0:_ZN15AnytoneCodeplug14MessageElementC2EPh
libdmrconf.so.0:_ZN15AnytoneCodeplug14MessageElementC2EPhj
libdmrconf.so.0:_ZN15AnytoneCodeplug14RadioIDElement11fromRadioIDEP10DMRRadioID
libdmrconf.so.0:_ZN15AnytoneCodeplug14RadioIDElement5clearEv
libdmrconf.so.0:_ZN15AnytoneCodeplug14RadioIDElement7setNameERK7QString
libdmrconf.so.0:_ZN15AnytoneCodeplug14RadioIDElement9setNumberEj
libdmrconf.so.0:_ZN15AnytoneCodeplug14RadioIDElementC1EPh
libdmrconf.so.0:_ZN15AnytoneCodeplug14RadioIDElementC1EPhj
libdmrconf.so.0:_ZN15AnytoneCodeplug14RadioIDElementC2EPh
libdmrconf.so.0:_ZN15AnytoneCodeplug14RadioIDElementC2EPhj
libdmrconf.so.0:_ZN15AnytoneCodeplug15ScanListElement10setPrimaryEj
libdmrconf.so.0:_ZN15AnytoneCodeplug15ScanListElement12setDwellTimeEj
libdmrconf.so.0:_ZN15AnytoneCodeplug15ScanListElement12setSecondaryEj
libdmrconf.so.0:_ZN15AnytoneCodeplug15ScanListElement14setMemberIndexEjj
libdmrconf.so.0:_ZN15AnytoneCodeplug15ScanListElement15fromScanListObjEP8ScanListRN8Codeplug7ContextE
libdmrconf.so.0:_ZN15AnytoneCodeplug15ScanListElement15setDropOutDelayEj
libdmrconf.so.0:_ZN15AnytoneCodeplug15ScanListElement16clearMemberIndexEj
libdmrconf.so.0:_ZN15AnytoneCodeplug15ScanListElement16setLookBackTimeAEj
libdmrconf.so.0:_ZN15AnytoneCodeplug15ScanListElement16setLookBackTimeBEj
libdmrconf.so.0:_ZN15AnytoneCodeplug15ScanListElement16setRevertChannelENS0_13RevertChannelE
libdmrconf.so.0:_ZN15AnytoneCodeplug15ScanListElement18setPrimarySelectedEv
libdmrconf.so.0:_ZN15AnytoneCodeplug15ScanListElement19clearPrimaryChannelEv
libdmrconf.so.0:_ZN15AnytoneCodeplug15ScanListElement19setPriorityChannelsENS0_10PriChannelE
libdmrconf.so.0:_ZN15AnytoneCodeplug15ScanListElement20setSecondarySelectedEv
libdmrconf.so.0:_ZN15AnytoneCodeplug15ScanListElement21clearSecondaryChannelEv
libdmrconf.so.0:_ZN15AnytoneCodeplug15ScanListElement5clearEv
libdmrconf.so.0:_ZN15AnytoneCodeplug15ScanListElement7setNameERK7QString
libdmrconf.so.0:_ZN15AnytoneCodeplug15ScanListElementC1EPh
libdmrconf.so.0:_ZN15AnytoneCodeplug15ScanListElementC1EPhj
libdmrconf.so.0:_ZN15AnytoneCodeplug15ScanListElementC2EPh
libdmrconf.so.0:_ZN15AnytoneCodeplug15ScanListElementC2EPhj
libdmrconf.so.0:_ZN15AnytoneCodeplug16GroupListElement14setMemberIndexEjj
libdmrconf.so.0:_ZN15AnytoneCodeplug16GroupListElement16clearMemberIndexEj
libdmrconf.so.0:_ZN15AnytoneCodeplug16GroupListElement16fromGroupListObjEPK11RXGroupListRN8Codeplug7ContextE
libdmrconf.so.0:_ZN15AnytoneCodeplug16GroupListElement5clearEv
libdmrconf.so.0:_ZN15AnytoneCodeplug16GroupListElement7setNameERK7QString
libdmrconf.so.0:_ZN15AnytoneCodeplug16GroupListElementC1EPh
libdmrconf.so.0:_ZN15AnytoneCodeplug16GroupListElementC1EPhj
libdmrconf.so.0:_ZN15AnytoneCodeplug16GroupListElementC2EPh
libdmrconf.so.0:_ZN15AnytoneCodeplug16GroupListElementC2EPhj
libdmrconf.so.0:_ZN15AnytoneCodeplug16TwoToneIDElement12setFirstToneEd
libdmrconf.so.0:_ZN15AnytoneCodeplug16TwoToneIDElement13setSecondToneEd
libdmrconf.so.0:_ZN15AnytoneCodeplug16TwoToneIDElement5clearEv
libdmrconf.so.0:_ZN15AnytoneCodeplug16TwoToneIDElement7setNameERK7QString
libdmrconf.so.0:_ZN15AnytoneCodeplug16TwoToneIDElementC1EPh
libdmrconf.so.0:_ZN15AnytoneCodeplug16TwoToneIDElementC1EPhj
libdmrconf.so.0:_ZN15AnytoneCodeplug16TwoToneIDElementC2EPh
libdmrconf.so.0:_ZN15AnytoneCodeplug16TwoToneIDElementC2EPhj
libdmrconf.so.0:_ZN15AnytoneCodeplug17ContactMapElement5clearEv
libdmrconf.so.0:_ZN15AnytoneCodeplug17ContactMapElement5setIDEjb
libdmrconf.so.0:_ZN15AnytoneCodeplug17ContactMapElement8setIndexEj
libdmrconf.so.0:_ZN15AnytoneCodeplug17ContactMapElementC1EPh
libdmrconf.so.0:_ZN15AnytoneCodeplug17ContactMapElementC1EPhj
libdmrconf.so.0:_ZN15AnytoneCodeplug17ContactMapElementC2EPh
libdmrconf.so.0:_ZN15AnytoneCodeplug17ContactMapElementC2EPhj
libdmrconf.so.0:_ZN15AnytoneCodeplug17DTMFIDListElement11clearNumberEj
libdmrconf.so.0:_ZN15AnytoneCodeplug17DTMFIDListElement5clearEv
libdmrconf.so.0:_ZN15AnytoneCodeplug17DTMFIDListElement9setNumberEjRK7QString
libdmrconf.so.0:_ZN15AnytoneCodeplug17DTMFIDListElementC1EPh
libdmrconf.so.0:_ZN15AnytoneCodeplug17DTMFIDListElementC1EPhm
libdmrconf.so.0:_ZN15AnytoneCodeplug17DTMFIDListElementC2EPh
libdmrconf.so.0:_ZN15AnytoneCodeplug17DTMFIDListElementC2EPhm
libdmrconf.so.0:_ZN15AnytoneCodeplug17FiveToneIDElement11setStandardENS0_8StandardE
libdmrconf.so.0:_ZN15AnytoneCodeplug17FiveToneIDElement15setToneDurationEj
libdmrconf.so.0:_ZN15AnytoneCodeplug17FiveToneIDElement5clearEv
libdmrconf.so.0:_ZN15AnytoneCodeplug17FiveToneIDElement5setIDERK7QString
libdmrconf.so.0:_ZN15AnytoneCodeplug17FiveToneIDElement7setNameERK7QString
libdmrconf.so.0:_ZN15AnytoneCodeplug17FiveToneIDElementC1EPh
libdmrconf.so.0:_ZN15AnytoneCodeplug17FiveToneIDElementC1EPhj
libdmrconf.so.0:_ZN15AnytoneCodeplug17FiveToneIDElementC2EPh
libdmrconf.so.0:_ZN15AnytoneCodeplug17FiveToneIDElementC2EPhj
libdmrconf.so.0:_ZN15AnytoneCodeplug17ZoneBitmapElementC1EPh
libdmrconf.so.0:_ZN15AnytoneCodeplug17ZoneBitmapElementC1EPhm
libdmrconf.so.0:_ZN15AnytoneCodeplug17ZoneBitmapElementC2EPh
libdmrconf.so.0:_ZN15AnytoneCodeplug17ZoneBitmapElementC2EPhm
libdmrconf.so.0:_ZN15AnytoneCodeplug18DTMFContactElement11fromContactEPK11DTMFContact
libdmrconf.so.0:_ZN15AnytoneCodeplug18DTMFContactElement5clearEv
libdmrconf.so.0:_ZN15AnytoneCodeplug18DTMFContactElement7setNameERK7QString
libdmrconf.so.0:_ZN15AnytoneCodeplug18DTMFContactElement9setNumberERK7QString
libdmrconf.so.0:_ZN15AnytoneCodeplug18DTMFContactElementC1EPh
libdmrconf.so.0:_ZN15AnytoneCodeplug18DTMFContactElementC1EPhj
libdmrconf.so.0:_ZN15AnytoneCodeplug18DTMFContactElementC2EPh
libdmrconf.so.0:_ZN15AnytoneCodeplug18DTMFContactElementC2EPhj
libdmrconf.so.0:_ZN15AnytoneCodeplug18DTMFContactElementD0Ev
libdmrconf.so.0:_ZN15AnytoneCodeplug18DTMFContactElementD1Ev
libdmrconf.so.0:_ZN15AnytoneCodeplug18DTMFContactElementD2Ev
libdmrconf.so.0:_ZN15AnytoneCodeplug18MessageListElement10clearIndexEv
libdmrconf.so.0:_ZN15AnytoneCodeplug18MessageListElement5clearEv
libdmrconf.so.0:_ZN15AnytoneCodeplug18MessageListElement7setNextEj
libdmrconf.so.0:_ZN15AnytoneCodeplug18MessageListElement8setIndexEj
libdmrconf.so.0:_ZN15AnytoneCodeplug18MessageListElement9clearNextEv
libdmrconf.so.0:_ZN15AnytoneCodeplug18MessageListElementC1EPh
libdmrconf.so.0:_ZN15AnytoneCodeplug18MessageListElementC1EPhj
libdmrconf.so.0:_ZN15AnytoneCodeplug18MessageListElementC2EPh
libdmrconf.so.0:_ZN15AnytoneCodeplug18MessageListElementC2EPhj
libdmrconf.so.0:_ZN15AnytoneCodeplug19AlarmSettingElement11AnalogAlarm11setDurationEj
libdmrconf.so.0:_ZN15AnytoneCodeplug19AlarmSettingElement11AnalogAlarm13setRXDurationEj
libdmrconf.so.0:_ZN15AnytoneCodeplug19AlarmSettingElement11AnalogAlarm13setTXDurationEj
libdmrconf.so.0:_ZN15AnytoneCodeplug19AlarmSettingElement11AnalogAlarm14setRepetitionsEj
libdmrconf.so.0:_ZN15AnytoneCodeplug19AlarmSettingElement11AnalogAlarm15setChannelIndexEj
libdmrconf.so.0:_ZN15AnytoneCodeplug19AlarmSettingElement11AnalogAlarm15setEncodingTypeENS1_7ENITypeE
libdmrconf.so.0:_ZN15AnytoneCodeplug19AlarmSettingElement11AnalogAlarm17setEmergencyIndexEj
libdmrconf.so.0:_ZN15AnytoneCodeplug19AlarmSettingElement11AnalogAlarm18setChannelSelectedEv
libdmrconf.so.0:_ZN15AnytoneCodeplug19AlarmSettingElement11AnalogAlarm20setRepatContinuouslyEv
libdmrconf.so.0:_ZN15AnytoneCodeplug19AlarmSettingElement11AnalogAlarm5clearEv
libdmrconf.so.0:_ZN15AnytoneCodeplug19AlarmSettingElement11AnalogAlarm9setActionENS1_6ActionE
libdmrconf.so.0:_ZN15AnytoneCodeplug19AlarmSettingElement11AnalogAlarmC1EPh
libdmrconf.so.0:_ZN15AnytoneCodeplug19AlarmSettingElement11AnalogAlarmC1EPhj
libdmrconf.so.0:_ZN15AnytoneCodeplug19AlarmSettingElement11AnalogAlarmC2EPh
libdmrconf.so.0:_ZN15AnytoneCodeplug19AlarmSettingElement11AnalogAlarmC2EPhj
libdmrconf.so.0:_ZN15AnytoneCodeplug19AlarmSettingElement12DigitalAlarm11setDurationEj
libdmrconf.so.0:_ZN15AnytoneCodeplug19AlarmSettingElement12DigitalAlarm13enableRXAlarmEb
libdmrconf.so.0:_ZN15AnytoneCodeplug19AlarmSettingElement12DigitalAlarm13setRXDurationEj
libdmrconf.so.0:_ZN15AnytoneCodeplug19AlarmSettingElement12DigitalAlarm13setTXDurationEj
libdmrconf.so.0:_ZN15AnytoneCodeplug19AlarmSettingElement12DigitalAlarm14setRepetitionsEj
libdmrconf.so.0:_ZN15AnytoneCodeplug19AlarmSettingElement12DigitalAlarm15setChannelIndexEj
libdmrconf.so.0:_ZN15AnytoneCodeplug19AlarmSettingElement12DigitalAlarm18setChannelSelectedEv
libdmrconf.so.0:_ZN15AnytoneCodeplug19AlarmSettingElement12DigitalAlarm20setRepatContinuouslyEv
libdmrconf.so.0:_ZN15AnytoneCodeplug19AlarmSettingElement12DigitalAlarm24setAreaBroadcastDurationEj
libdmrconf.so.0:_ZN15AnytoneCodeplug19AlarmSettingElement12DigitalAlarm25setVoiceBroadcastDurationEj
libdmrconf.so.0:_ZN15AnytoneCodeplug19AlarmSettingElement12DigitalAlarm5clearEv
libdmrconf.so.0:_ZN15AnytoneCodeplug19AlarmSettingElement12DigitalAlarm9enableVOXEb
libdmrconf.so.0:_ZN15AnytoneCodeplug19AlarmSettingElement12DigitalAlarm9setActionENS1_6ActionE
libdmrconf.so.0:_ZN15AnytoneCodeplug19AlarmSettingElement12DigitalAlarmC1EPh
libdmrconf.so.0:_ZN15AnytoneCodeplug19AlarmSettingElement12DigitalAlarmC1EPhj
libdmrconf.so.0:_ZN15AnytoneCodeplug19AlarmSettingElement12DigitalAlarmC2EPh
libdmrconf.so.0:_ZN15AnytoneCodeplug19AlarmSettingElement12DigitalAlarmC2EPhj
libdmrconf.so.0:_ZN15AnytoneCodeplug19AlarmSettingElement5clearEv
libdmrconf.so.0:_ZN15AnytoneCodeplug19AlarmSettingElementC1EPh
libdmrconf.so.0:_ZN15AnytoneCodeplug19AlarmSettingElementC1EPhj
libdmrconf.so.0:_ZN15AnytoneCodeplug19AlarmSettingElementC2EPh
libdmrconf.so.0:_ZN15AnytoneCodeplug19AlarmSettingElementC2EPhj
libdmrconf.so.0:_ZN15AnytoneCodeplug19BootSettingsElement10fromConfigERKN8Codeplug5FlagsERNS1_7ContextE
libdmrconf.so.0:_ZN15AnytoneCodeplug19BootSettingsElement11setPasswordERK7QString
libdmrconf.so.0:_ZN15AnytoneCodeplug19BootSettingsElement12updateConfigERN8Codeplug7ContextE
libdmrconf.so.0:_ZN15AnytoneCodeplug19BootSettingsElement13setIntroLine1ERK7QString
libdmrconf.so.0:_ZN15AnytoneCodeplug19BootSettingsElement13setIntroLine2ERK7QString
libdmrconf.so.0:_ZN15AnytoneCodeplug19BootSettingsElement5clearEv
libdmrconf.so.0:_ZN15AnytoneCodeplug19BootSettingsElementC1EPh
libdmrconf.so.0:_ZN15AnytoneCodeplug19BootSettingsElementC1EPhj
libdmrconf.so.0:_ZN15AnytoneCodeplug19BootSettingsElementC2EPh
libdmrconf.so.0:_ZN15AnytoneCodeplug19BootSettingsElementC2EPhj
libdmrconf.so.0:_ZN15AnytoneCodeplug19DTMFSettingsElement10setPreTimeEj
libdmrconf.so.0:_ZN15AnytoneCodeplug19DTMFSettingsElement11enablePTTIDEb
libdmrconf.so.0:_ZN15AnytoneCodeplug19DTMFSettingsElement11setResponseENS0_8ResponseE
libdmrconf.so.0:_ZN15AnytoneCodeplug19DTMFSettingsElement12setGroupCodeEj
libdmrconf.so.0:_ZN15AnytoneCodeplug19DTMFSettingsElement13setDCodePauseEj
libdmrconf.so.0:_ZN15AnytoneCodeplug19DTMFSettingsElement13setPTTIDPauseEj
libdmrconf.so.0:_ZN15AnytoneCodeplug19DTMFSettingsElement14enableSidetoneEb
libdmrconf.so.0:_ZN15AnytoneCodeplug19DTMFSettingsElement15setRemoteKillIDERK7QString
libdmrconf.so.0:_ZN15AnytoneCodeplug19DTMFSettingsElement15setRemoteStunIDERK7QString
libdmrconf.so.0:_ZN15AnytoneCodeplug19DTMFSettingsElement16setAutoResetTimeEj
libdmrconf.so.0:_ZN15AnytoneCodeplug19DTMFSettingsElement17setIntervalSymbolEj
libdmrconf.so.0:_ZN15AnytoneCodeplug19DTMFSettingsElement20setPostEncodingDelayEj
libdmrconf.so.0:_ZN15AnytoneCodeplug19DTMFSettingsElement21setFirstDigitDurationEj
libdmrconf.so.0:_ZN15AnytoneCodeplug19DTMFSettingsElement5clearEv
libdmrconf.so.0:_ZN15AnytoneCodeplug19DTMFSettingsElement5setIDERK7QString
libdmrconf.so.0:_ZN15AnytoneCodeplug19DTMFSettingsElement8setBOTIDERK7QString
libdmrconf.so.0:_ZN15AnytoneCodeplug19DTMFSettingsElement8setEOTIDERK7QString
libdmrconf.so.0:_ZN15AnytoneCodeplug19DTMFSettingsElementC1EPh
libdmrconf.so.0:_ZN15AnytoneCodeplug19DTMFSettingsElementC1EPhj
libdmrconf.so.0:_ZN15AnytoneCodeplug19DTMFSettingsElementC2EPh
libdmrconf.so.0:_ZN15AnytoneCodeplug19DTMFSettingsElementC2EPhj
libdmrconf.so.0:_ZN15AnytoneCodeplug20ChannelBitmapElementC1EPh
libdmrconf.so.0:_ZN15AnytoneCodeplug20ChannelBitmapElementC1EPhm
libdmrconf.so.0:_ZN15AnytoneCodeplug20ChannelBitmapElementC2EPh
libdmrconf.so.0:_ZN15AnytoneCodeplug20ChannelBitmapElementC2EPhm
libdmrconf.so.0:_ZN15AnytoneCodeplug20ContactBitmapElementC1EPh
libdmrconf.so.0:_ZN15AnytoneCodeplug20ContactBitmapElementC1EPhm
libdmrconf.so.0:_ZN15AnytoneCodeplug20ContactBitmapElementC2EPh
libdmrconf.so.0:_ZN15AnytoneCodeplug20ContactBitmapElementC2EPhm
libdmrconf.so.0:_ZN15AnytoneCodeplug20RadioIDBitmapElementC1EPh
libdmrconf.so.0:_ZN15AnytoneCodeplug20RadioIDBitmapElementC1EPhm
libdmrconf.so.0:_ZN15AnytoneCodeplug20RadioIDBitmapElementC2EPh
libdmrconf.so.0:_ZN15AnytoneCodeplug20RadioIDBitmapElementC2EPhm
libdmrconf.so.0:_ZN15AnytoneCodeplug21DMRAPRSMessageElement10fromConfigEN8Codeplug5FlagsERNS1_7ContextE
libdmrconf.so.0:_ZN15AnytoneCodeplug21DMRAPRSMessageElement10setMessageERK7QString
libdmrconf.so.0:_ZN15AnytoneCodeplug21DMRAPRSMessageElement5clearEv
libdmrconf.so.0:_ZN15AnytoneCodeplug21DMRAPRSMessageElementC1EPh
libdmrconf.so.0:_ZN15AnytoneCodeplug21DMRAPRSMessageElementC1EPhm
libdmrconf.so.0:_ZN15AnytoneCodeplug21DMRAPRSMessageElementC2EPh
libdmrconf.so.0:_ZN15AnytoneCodeplug21DMRAPRSMessageElementC2EPhm
libdmrconf.so.0:_ZN15AnytoneCodeplug21FiveToneIDListElement5clearEv
libdmrconf.so.0:_ZN15AnytoneCodeplug21FiveToneIDListElementC1EPh
libdmrconf.so.0:_ZN15AnytoneCodeplug21FiveToneIDListElementC1EPhm
libdmrconf.so.0:_ZN15AnytoneCodeplug21FiveToneIDListElementC2EPh
libdmrconf.so.0:_ZN15AnytoneCodeplug21FiveToneIDListElementC2EPhm
libdmrconf.so.0:_ZN15AnytoneCodeplug21HotKeySettingsElement5clearEv
libdmrconf.so.0:_ZN15AnytoneCodeplug21HotKeySettingsElementC1EPh
libdmrconf.so.0:_ZN15AnytoneCodeplug21HotKeySettingsElementC1EPhm
libdmrconf.so.0:_ZN15AnytoneCodeplug21HotKeySettingsElementC2EPh
libdmrconf.so.0:_ZN15AnytoneCodeplug21HotKeySettingsElementC2EPhm
libdmrconf.so.0:_ZN15AnytoneCodeplug21InvertedBitmapElement10setEncodedEjb
libdmrconf.so.0:_ZN15AnytoneCodeplug21InvertedBitmapElement11enableFirstEj
libdmrconf.so.0:_ZN15AnytoneCodeplug21InvertedBitmapElement5clearEv
libdmrconf.so.0:_ZN15AnytoneCodeplug21InvertedBitmapElementC1EPhm
libdmrconf.so.0:_ZN15AnytoneCodeplug21InvertedBitmapElementC2EPhm
libdmrconf.so.0:_ZN15AnytoneCodeplug21MessageBytemapElementC1EPh
libdmrconf.so.0:_ZN15AnytoneCodeplug21MessageBytemapElementC1EPhm
libdmrconf.so.0:_ZN15AnytoneCodeplug21MessageBytemapElementC2EPh
libdmrconf.so.0:_ZN15AnytoneCodeplug21MessageBytemapElementC2EPhm
libdmrconf.so.0:_ZN15AnytoneCodeplug21ScanListBitmapElementC1EPh
libdmrconf.so.0:_ZN15AnytoneCodeplug21ScanListBitmapElementC1EPhm
libdmrconf.so.0:_ZN15AnytoneCodeplug21ScanListBitmapElementC2EPh
libdmrconf.so.0:_ZN15AnytoneCodeplug21ScanListBitmapElementC2EPhm
libdmrconf.so.0:_ZN15AnytoneCodeplug21StatusMessagesElement10setMessageEjRK7QString
libdmrconf.so.0:_ZN15AnytoneCodeplug21StatusMessagesElement5clearEv
libdmrconf.so.0:_ZN15AnytoneCodeplug21StatusMessagesElementC1EPh
libdmrconf.so.0:_ZN15AnytoneCodeplug21StatusMessagesElementC1EPhm
libdmrconf.so.0:_ZN15AnytoneCodeplug21StatusMessagesElementC2EPh
libdmrconf.so.0:_ZN15AnytoneCodeplug21StatusMessagesElementC2EPhm
libdmrconf.so.0:_ZN15AnytoneCodeplug21WFMChannelListElement10setChannelEj9Frequency
libdmrconf.so.0:_ZN15AnytoneCodeplug21WFMChannelListElement12clearChannelEj
libdmrconf.so.0:_ZN15AnytoneCodeplug21WFMChannelListElement5clearEv
libdmrconf.so.0:_ZN15AnytoneCodeplug21WFMChannelListElementC1EPh
libdmrconf.so.0:_ZN15AnytoneCodeplug21WFMChannelListElementC1EPhm
libdmrconf.so.0:_ZN15AnytoneCodeplug21WFMChannelListElementC2EPh
libdmrconf.so.0:_ZN15AnytoneCodeplug21WFMChannelListElementC2EPhm
libdmrconf.so.0:_ZN15AnytoneCodeplug22AnalogQuickCallElement15setContactIndexEj
libdmrconf.so.0:_ZN15AnytoneCodeplug22AnalogQuickCallElement17clearContactIndexEv
libdmrconf.so.0:_ZN15AnytoneCodeplug22AnalogQuickCallElement5clearEv
libdmrconf.so.0:_ZN15AnytoneCodeplug22AnalogQuickCallElement7setTypeENS0_4TypeE
libdmrconf.so.0:_ZN15AnytoneCodeplug22AnalogQuickCallElementC1EPh
libdmrconf.so.0:_ZN15AnytoneCodeplug22AnalogQuickCallElementC1EPhj
libdmrconf.so.0:_ZN15AnytoneCodeplug22AnalogQuickCallElementC2EPh
libdmrconf.so.0:_ZN15AnytoneCodeplug22AnalogQuickCallElementC2EPhj
libdmrconf.so.0:_ZN15AnytoneCodeplug22DMRAPRSSettingsElement10fromConfigERKN8Codeplug5FlagsERNS1_7ContextE
libdmrconf.so.0:_ZN15AnytoneCodeplug22DMRAPRSSettingsElement11setCallTypeEN10DMRContact4TypeE
libdmrconf.so.0:_ZN15AnytoneCodeplug22DMRAPRSSettingsElement11setLocationERK14QGeoCoordinate
libdmrconf.so.0:_ZN15AnytoneCodeplug22DMRAPRSSettingsElement12clearChannelEj
libdmrconf.so.0:_ZN15AnytoneCodeplug22DMRAPRSSettingsElement13linkGPSSystemEhRN8Codeplug7ContextE
libdmrconf.so.0:_ZN15AnytoneCodeplug22DMRAPRSSettingsElement14setChannelVFOAEj
libdmrconf.so.0:_ZN15AnytoneCodeplug22DMRAPRSSettingsElement14setChannelVFOBEj
libdmrconf.so.0:_ZN15AnytoneCodeplug22DMRAPRSSettingsElement14setDestinationEj
libdmrconf.so.0:_ZN15AnytoneCodeplug22DMRAPRSSettingsElement15createGPSSystemEhRN8Codeplug7ContextE
libdmrconf.so.0:_ZN15AnytoneCodeplug22DMRAPRSSettingsElement15setChannelIndexEjj
libdmrconf.so.0:_ZN15AnytoneCodeplug22DMRAPRSSettingsElement16disableAutomaticEv
libdmrconf.so.0:_ZN15AnytoneCodeplug22DMRAPRSSettingsElement16overrideTimeSlotEN10DMRChannel8TimeSlotE
libdmrconf.so.0:_ZN15AnytoneCodeplug22DMRAPRSSettingsElement17setManualIntervalEj
libdmrconf.so.0:_ZN15AnytoneCodeplug22DMRAPRSSettingsElement18setChannelSelectedEj
libdmrconf.so.0:_ZN15AnytoneCodeplug22DMRAPRSSettingsElement19enableFixedLocationEb
libdmrconf.so.0:_ZN15AnytoneCodeplug22DMRAPRSSettingsElement20setAutomaticIntervalEj
libdmrconf.so.0:_ZN15AnytoneCodeplug22DMRAPRSSettingsElement23disableTimeSlotOverrideEv
libdmrconf.so.0:_ZN15AnytoneCodeplug22DMRAPRSSettingsElement5clearEv
libdmrconf.so.0:_ZN15AnytoneCodeplug22DMRAPRSSettingsElement8setPowerEN7Channel5PowerE
libdmrconf.so.0:_ZN15AnytoneCodeplug22DMRAPRSSettingsElementC1EPh
libdmrconf.so.0:_ZN15AnytoneCodeplug22DMRAPRSSettingsElementC1EPhj
libdmrconf.so.0:_ZN15AnytoneCodeplug22DMRAPRSSettingsElementC2EPh
libdmrconf.so.0:_ZN15AnytoneCodeplug22DMRAPRSSettingsElementC2EPhj
libdmrconf.so.0:_ZN15AnytoneCodeplug22GeneralSettingsElement10fromConfigERKN8Codeplug5FlagsERNS1_7ContextE
libdmrconf.so.0:_ZN15AnytoneCodeplug22GeneralSettingsElement12linkSettingsEP13RadioSettingsRN8Codeplug7ContextERK10ErrorStack
libdmrconf.so.0:_ZN15AnytoneCodeplug22GeneralSettingsElement12updateConfigERN8Codeplug7ContextE
libdmrconf.so.0:_ZN15AnytoneCodeplug22GeneralSettingsElement14setBootDisplayEN28AnytoneBootSettingsExtension11BootDisplayE
libdmrconf.so.0:_ZN15AnytoneCodeplug22GeneralSettingsElement16setSquelchLevelAEj
libdmrconf.so.0:_ZN15AnytoneCodeplug22GeneralSettingsElement16setSquelchLevelBEj
libdmrconf.so.0:_ZN15AnytoneCodeplug22GeneralSettingsElement17enableAutoKeyLockEb
libdmrconf.so.0:_ZN15AnytoneCodeplug22GeneralSettingsElement18enableBootPasswordEb
libdmrconf.so.0:_ZN15AnytoneCodeplug22GeneralSettingsElement20setAutoShutdownDelayE8Interval
libdmrconf.so.0:_ZN15AnytoneCodeplug22GeneralSettingsElement22enableDisplayFrequencyEb
libdmrconf.so.0:_ZN15AnytoneCodeplug22GeneralSettingsElement5clearEv
libdmrconf.so.0:_ZN15AnytoneCodeplug22GeneralSettingsElementC1EPhj
libdmrconf.so.0:_ZN15AnytoneCodeplug22GeneralSettingsElementC2EPhj
libdmrconf.so.0:_ZN15AnytoneCodeplug22GroupListBitmapElementC1EPh
libdmrconf.so.0:_ZN15AnytoneCodeplug22GroupListBitmapElementC1EPhm
libdmrconf.so.0:_ZN15AnytoneCodeplug22GroupListBitmapElementC2EPh
libdmrconf.so.0:_ZN15AnytoneCodeplug22GroupListBitmapElementC2EPhm
libdmrconf.so.0:_ZN15AnytoneCodeplug22InvertedBytemapElement10setEncodedEjb
libdmrconf.so.0:_ZN15AnytoneCodeplug22InvertedBytemapElement11enableFirstEj
libdmrconf.so.0:_ZN15AnytoneCodeplug22InvertedBytemapElement5clearEv
libdmrconf.so.0:_ZN15AnytoneCodeplug22InvertedBytemapElementC1EPhm
libdmrconf.so.0:_ZN15AnytoneCodeplug22InvertedBytemapElementC2EPhm
libdmrconf.so.0:_ZN15AnytoneCodeplug22TwoToneFunctionElement11setResponseENS0_8ResponseE
libdmrconf.so.0:_ZN15AnytoneCodeplug22TwoToneFunctionElement12setFirstToneEd
libdmrconf.so.0:_ZN15AnytoneCodeplug22TwoToneFunctionElement13setSecondToneEd
libdmrconf.so.0:_ZN15AnytoneCodeplug22TwoToneFunctionElement5clearEv
libdmrconf.so.0:_ZN15AnytoneCodeplug22TwoToneFunctionElement7setNameERK7QString
libdmrconf.so.0:_ZN15AnytoneCodeplug22TwoToneFunctionElementC1EPh
libdmrconf.so.0:_ZN15AnytoneCodeplug22TwoToneFunctionElementC1EPhj
libdmrconf.so.0:_ZN15AnytoneCodeplug22TwoToneFunctionElementC2EPh
libdmrconf.so.0:_ZN15AnytoneCodeplug22TwoToneFunctionElementC2EPhj
libdmrconf.so.0:_ZN15AnytoneCodeplug22TwoToneIDBitmapElementC1EPh
libdmrconf.so.0:_ZN15AnytoneCodeplug22TwoToneIDBitmapElementC1EPhm
libdmrconf.so.0:_ZN15AnytoneCodeplug22TwoToneIDBitmapElementC2EPh
libdmrconf.so.0:_ZN15AnytoneCodeplug22TwoToneIDBitmapElementC2EPhm
libdmrconf.so.0:_ZN15AnytoneCodeplug22TwoToneSettingsElement14enableSidetoneEb
libdmrconf.so.0:_ZN15AnytoneCodeplug22TwoToneSettingsElement14setGapDurationEj
libdmrconf.so.0:_ZN15AnytoneCodeplug22TwoToneSettingsElement16setAutoResetTimeEj
libdmrconf.so.0:_ZN15AnytoneCodeplug22TwoToneSettingsElement19setLongToneDurationEj
libdmrconf.so.0:_ZN15AnytoneCodeplug22TwoToneSettingsElement20setFirstToneDurationEj
libdmrconf.so.0:_ZN15AnytoneCodeplug22TwoToneSettingsElement21setSecondToneDurationEj
libdmrconf.so.0:_ZN15AnytoneCodeplug22TwoToneSettingsElement5clearEv
libdmrconf.so.0:_ZN15AnytoneCodeplug22TwoToneSettingsElementC1EPh
libdmrconf.so.0:_ZN15AnytoneCodeplug22TwoToneSettingsElementC1EPhj
libdmrconf.so.0:_ZN15AnytoneCodeplug22TwoToneSettingsElementC2EPh
libdmrconf.so.0:_ZN15AnytoneCodeplug22TwoToneSettingsElementC2EPhj
libdmrconf.so.0:_ZN15AnytoneCodeplug22ZoneChannelListElement16setChannelIndexAEjj
libdmrconf.so.0:_ZN15AnytoneCodeplug22ZoneChannelListElement16setChannelIndexBEjj
libdmrconf.so.0:_ZN15AnytoneCodeplug22ZoneChannelListElement18clearChannelIndexAEj
libdmrconf.so.0:_ZN15AnytoneCodeplug22ZoneChannelListElement18clearChannelIndexBEj
libdmrconf.so.0:_ZN15AnytoneCodeplug22ZoneChannelListElement5clearEv
libdmrconf.so.0:_ZN15AnytoneCodeplug22ZoneChannelListElementC1EPh
libdmrconf.so.0:_ZN15AnytoneCodeplug22ZoneChannelListElementC1EPhj
libdmrconf.so.0:_ZN15AnytoneCodeplug22ZoneChannelListElementC2EPh
libdmrconf.so.0:_ZN15AnytoneCodeplug22ZoneChannelListElementC2EPhj
libdmrconf.so.0:_ZN15AnytoneCodeplug23AnalogQuickCallsElement5clearEv
libdmrconf.so.0:_ZN15AnytoneCodeplug23AnalogQuickCallsElementC1EPh
libdmrconf.so.0:_ZN15AnytoneCodeplug23AnalogQuickCallsElementC1EPhm
libdmrconf.so.0:_ZN15AnytoneCodeplug23AnalogQuickCallsElementC2EPh
libdmrconf.so.0:_ZN15AnytoneCodeplug23AnalogQuickCallsElementC2EPhm
libdmrconf.so.0:_ZN15AnytoneCodeplug23ExtendedSettingsElement10fromConfigERKN8Codeplug5FlagsERNS1_7ContextERK10ErrorStack
libdmrconf.so.0:_ZN15AnytoneCodeplug23ExtendedSettingsElement10linkConfigERN8Codeplug7ContextERK10ErrorStack
libdmrconf.so.0:_ZN15AnytoneCodeplug23ExtendedSettingsElement12updateConfigERN8Codeplug7ContextERK10ErrorStack
libdmrconf.so.0:_ZN15AnytoneCodeplug23ExtendedSettingsElementC1EPhj
libdmrconf.so.0:_ZN15AnytoneCodeplug23ExtendedSettingsElementC2EPhj
libdmrconf.so.0:_ZN15AnytoneCodeplug23FiveToneFunctionElement11setFunctionENS0_8FunctionE
libdmrconf.so.0:_ZN15AnytoneCodeplug23FiveToneFunctionElement11setResponseENS0_8ResponseE
libdmrconf.so.0:_ZN15AnytoneCodeplug23FiveToneFunctionElement5clearEv
libdmrconf.so.0:_ZN15AnytoneCodeplug23FiveToneFunctionElement5setIDERK7QString
libdmrconf.so.0:_ZN15AnytoneCodeplug23FiveToneFunctionElement7setNameERK7QString
libdmrconf.so.0:_ZN15AnytoneCodeplug23FiveToneFunctionElementC1EPh
libdmrconf.so.0:_ZN15AnytoneCodeplug23FiveToneFunctionElementC1EPhj
libdmrconf.so.0:_ZN15AnytoneCodeplug23FiveToneFunctionElementC2EPh
libdmrconf.so.0:_ZN15AnytoneCodeplug23FiveToneFunctionElementC2EPhj
libdmrconf.so.0:_ZN15AnytoneCodeplug23FiveToneIDBitmapElementC1EPh
libdmrconf.so.0:_ZN15AnytoneCodeplug23FiveToneIDBitmapElementC1EPhm
libdmrconf.so.0:_ZN15AnytoneCodeplug23FiveToneIDBitmapElementC2EPh
libdmrconf.so.0:_ZN15AnytoneCodeplug23FiveToneIDBitmapElementC2EPhm
libdmrconf.so.0:_ZN15AnytoneCodeplug23FiveToneSettingsElement10clearPTTIDEv
libdmrconf.so.0:_ZN15AnytoneCodeplug23FiveToneSettingsElement10setPreTimeEj
libdmrconf.so.0:_ZN15AnytoneCodeplug23FiveToneSettingsElement11setStopCodeEj
libdmrconf.so.0:_ZN15AnytoneCodeplug23FiveToneSettingsElement11setStopTimeEj
libdmrconf.so.0:_ZN15AnytoneCodeplug23FiveToneSettingsElement13setDecodeTimeEj
libdmrconf.so.0:_ZN15AnytoneCodeplug23FiveToneSettingsElement13setFirstDelayEj
libdmrconf.so.0:_ZN15AnytoneCodeplug23FiveToneSettingsElement14enableSidetoneEb
libdmrconf.so.0:_ZN15AnytoneCodeplug23FiveToneSettingsElement14setBOTStandardENS_17FiveToneIDElement8StandardE
libdmrconf.so.0:_ZN15AnytoneCodeplug23FiveToneSettingsElement14setEOTStandardENS_17FiveToneIDElement8StandardE
libdmrconf.so.0:_ZN15AnytoneCodeplug23FiveToneSettingsElement16setAutoResetTimeEj
libdmrconf.so.0:_ZN15AnytoneCodeplug23FiveToneSettingsElement17setDelayAfterStopEj
libdmrconf.so.0:_ZN15AnytoneCodeplug23FiveToneSettingsElement18setBOTToneDurationEj
libdmrconf.so.0:_ZN15AnytoneCodeplug23FiveToneSettingsElement18setEOTToneDurationEj
libdmrconf.so.0:_ZN15AnytoneCodeplug23FiveToneSettingsElement18setPostEncodeDelayEj
libdmrconf.so.0:_ZN15AnytoneCodeplug23FiveToneSettingsElement19setDecodingResponseENS0_8ResponseE
libdmrconf.so.0:_ZN15AnytoneCodeplug23FiveToneSettingsElement19setDecodingStandardENS_17FiveToneIDElement8StandardE
libdmrconf.so.0:_ZN15AnytoneCodeplug23FiveToneSettingsElement23setDecodingToneDurationEj
libdmrconf.so.0:_ZN15AnytoneCodeplug23FiveToneSettingsElement5clearEv
libdmrconf.so.0:_ZN15AnytoneCodeplug23FiveToneSettingsElement5setIDERK7QString
libdmrconf.so.0:_ZN15AnytoneCodeplug23FiveToneSettingsElement8setBOTIDERK7QString
libdmrconf.so.0:_ZN15AnytoneCodeplug23FiveToneSettingsElement8setEOTIDERK7QString
libdmrconf.so.0:_ZN15AnytoneCodeplug23FiveToneSettingsElement8setPTTIDEj
libdmrconf.so.0:_ZN15AnytoneCodeplug23FiveToneSettingsElementC1EPh
libdmrconf.so.0:_ZN15AnytoneCodeplug23FiveToneSettingsElementC1EPhj
libdmrconf.so.0:_ZN15AnytoneCodeplug23FiveToneSettingsElementC2EPh
libdmrconf.so.0:_ZN15AnytoneCodeplug23FiveToneSettingsElementC2EPhj
libdmrconf.so.0:_ZN15AnytoneCodeplug23WFMChannelBitmapElementC1EPh
libdmrconf.so.0:_ZN15AnytoneCodeplug23WFMChannelBitmapElementC1EPhm
libdmrconf.so.0:_ZN15AnytoneCodeplug23WFMChannelBitmapElementC2EPh
libdmrconf.so.0:_ZN15AnytoneCodeplug23WFMChannelBitmapElementC2EPhm
libdmrconf.so.0:_ZN15AnytoneCodeplug25DTMFContactBytemapElementC1EPh
libdmrconf.so.0:_ZN15AnytoneCodeplug25DTMFContactBytemapElementC1EPhm
libdmrconf.so.0:_ZN15AnytoneCodeplug25DTMFContactBytemapElementC2EPh
libdmrconf.so.0:_ZN15AnytoneCodeplug25DTMFContactBytemapElementC2EPhm
libdmrconf.so.0:_ZN15AnytoneCodeplug25RepeaterOffsetListElement11clearOffsetEj
libdmrconf.so.0:_ZN15AnytoneCodeplug25RepeaterOffsetListElement5clearEv
libdmrconf.so.0:_ZN15AnytoneCodeplug25RepeaterOffsetListElement9setOffsetEj9Frequency
libdmrconf.so.0:_ZN15AnytoneCodeplug25RepeaterOffsetListElementC1EPh
libdmrconf.so.0:_ZN15AnytoneCodeplug25RepeaterOffsetListElementC1EPhm
libdmrconf.so.0:_ZN15AnytoneCodeplug25RepeaterOffsetListElementC2EPh
libdmrconf.so.0:_ZN15AnytoneCodeplug25RepeaterOffsetListElementC2EPhm
libdmrconf.so.0:_ZN15AnytoneCodeplug26StatusMessageBitmapElementC1EPh
libdmrconf.so.0:_ZN15AnytoneCodeplug26StatusMessageBitmapElementC1EPhm
libdmrconf.so.0:_ZN15AnytoneCodeplug26StatusMessageBitmapElementC2EPh
libdmrconf.so.0:_ZN15AnytoneCodeplug26StatusMessageBitmapElementC2EPhm
libdmrconf.so.0:_ZN15AnytoneCodeplug27DMREncryptionKeyListElement5clearEv
libdmrconf.so.0:_ZN15AnytoneCodeplug27DMREncryptionKeyListElement6setKeyEjRK10QByteArray
libdmrconf.so.0:_ZN15AnytoneCodeplug27DMREncryptionKeyListElementC1EPh
libdmrconf.so.0:_ZN15AnytoneCodeplug27DMREncryptionKeyListElementC1EPhm
libdmrconf.so.0:_ZN15AnytoneCodeplug27DMREncryptionKeyListElementC2EPh
libdmrconf.so.0:_ZN15AnytoneCodeplug27DMREncryptionKeyListElementC2EPhm
libdmrconf.so.0:_ZN15AnytoneCodeplug27FiveToneFunctionListElement5clearEv
libdmrconf.so.0:_ZN15AnytoneCodeplug27FiveToneFunctionListElementC1EPh
libdmrconf.so.0:_ZN15AnytoneCodeplug27FiveToneFunctionListElementC1EPhm
libdmrconf.so.0:_ZN15AnytoneCodeplug27FiveToneFunctionListElementC2EPh
libdmrconf.so.0:_ZN15AnytoneCodeplug27FiveToneFunctionListElementC2EPhm
libdmrconf.so.0:_ZN15AnytoneCodeplug28DigitalAlarmExtensionElement11setCallTypeEN10DMRContact4TypeE
libdmrconf.so.0:_ZN15AnytoneCodeplug28DigitalAlarmExtensionElement14setDestinationEj
libdmrconf.so.0:_ZN15AnytoneCodeplug28DigitalAlarmExtensionElement5clearEv
libdmrconf.so.0:_ZN15AnytoneCodeplug28DigitalAlarmExtensionElementC1EPh
libdmrconf.so.0:_ZN15AnytoneCodeplug28DigitalAlarmExtensionElementC1EPhj
libdmrconf.so.0:_ZN15AnytoneCodeplug28DigitalAlarmExtensionElementC2EPh
libdmrconf.so.0:_ZN15AnytoneCodeplug28DigitalAlarmExtensionElementC2EPhj
libdmrconf.so.0:_ZN15AnytoneCodeplug28TwoToneFunctionBitmapElementC1EPh
libdmrconf.so.0:_ZN15AnytoneCodeplug28TwoToneFunctionBitmapElementC1EPhm
libdmrconf.so.0:_ZN15AnytoneCodeplug28TwoToneFunctionBitmapElementC2EPh
libdmrconf.so.0:_ZN15AnytoneCodeplug28TwoToneFunctionBitmapElementC2EPhm
libdmrconf.so.0:_ZN15AnytoneCodeplug29DMREncryptionKeyIDListElement5clearEv
libdmrconf.so.0:_ZN15AnytoneCodeplug29DMREncryptionKeyIDListElement5setIDEjt
libdmrconf.so.0:_ZN15AnytoneCodeplug29DMREncryptionKeyIDListElement7clearIDEj
libdmrconf.so.0:_ZN15AnytoneCodeplug29DMREncryptionKeyIDListElementC1EPh
libdmrconf.so.0:_ZN15AnytoneCodeplug29DMREncryptionKeyIDListElementC1EPhm
libdmrconf.so.0:_ZN15AnytoneCodeplug29DMREncryptionKeyIDListElementC2EPh
libdmrconf.so.0:_ZN15AnytoneCodeplug29DMREncryptionKeyIDListElementC2EPhm
libdmrconf.so.0:_ZN15AnytoneCodeplug5clearEv
libdmrconf.so.0:_ZN15AnytoneCodeplug6decodeEP6ConfigRK10ErrorStack
libdmrconf.so.0:_ZN15AnytoneCodeplug6encodeEP6ConfigRKN8Codeplug5FlagsERK10ErrorStack
libdmrconf.so.0:_ZN15AnytoneCodeplugC1ERK7QStringP7QObject
libdmrconf.so.0:_ZN15AnytoneCodeplugC2ERK7QStringP7QObject
libdmrconf.so.0:_ZN15AnytoneCodeplugD0Ev
libdmrconf.so.0:_ZN15AnytoneCodeplugD1Ev
libdmrconf.so.0:_ZN15AnytoneCodeplugD2Ev
libdmrconf.so.0:_ZN15ConfigExtension11qt_metacallEN11QMetaObject4CallEiPPv
libdmrconf.so.0:_ZN15ConfigExtension11qt_metacastEPKc
libdmrconf.so.0:_ZN15ConfigExtensionC1EP7QObject
libdmrconf.so.0:_ZN15ConfigExtensionC2EP7QObject
libdmrconf.so.0:_ZN15D878UV2Codeplug11qt_metacallEN11QMetaObject4CallEiPPv
libdmrconf.so.0:_ZN15D878UV2Codeplug11qt_metacastEPKc
libdmrconf.so.0:_ZN15D878UV2Codeplug14encodeContactsERKN8Codeplug5FlagsERNS0_7ContextERK10ErrorStack
libdmrconf.so.0:_ZN15D878UV2Codeplug16allocateContactsEv
libdmrconf.so.0:_ZN15D878UV2CodeplugC1EP7QObject
libdmrconf.so.0:_ZN15D878UV2CodeplugC1ERK7QStringP7QObject
libdmrconf.so.0:_ZN15D878UV2CodeplugC2EP7QObject
libdmrconf.so.0:_ZN15D878UV2CodeplugC2ERK7QStringP7QObject
libdmrconf.so.0:_ZN15DummyFileReader4readERK7QStringP8CodeplugRK10ErrorStack
libdmrconf.so.0:_ZN15MD390FileReader4readERK7QStringP13MD390CodeplugRK10ErrorStack
libdmrconf.so.0:_ZN15OpenRTXCodeplug10offsetZoneEj
libdmrconf.so.0:_ZN15OpenRTXCodeplug11ZoneElement12fromZoneObjAEPK4ZoneRN8Codeplug7ContextE
libdmrconf.so.0:_ZN15OpenRTXCodeplug11ZoneElement12fromZoneObjBEPK4ZoneRN8Codeplug7ContextE
libdmrconf.so.0:_ZN15OpenRTXCodeplug11ZoneElement15setChannelCountEj
libdmrconf.so.0:_ZN15OpenRTXCodeplug11ZoneElement15setChannelIndexEjj
libdmrconf.so.0:_ZN15OpenRTXCodeplug11ZoneElement5clearEv
libdmrconf.so.0:_ZN15OpenRTXCodeplug11ZoneElement7setNameERK7QString
libdmrconf.so.0:_ZN15OpenRTXCodeplug11ZoneElementC1EPh
libdmrconf.so.0:_ZN15OpenRTXCodeplug11ZoneElementC1EPhj
libdmrconf.so.0:_ZN15OpenRTXCodeplug11ZoneElementC2EPh
libdmrconf.so.0:_ZN15OpenRTXCodeplug11ZoneElementC2EPhj
libdmrconf.so.0:_ZN15OpenRTXCodeplug11ZoneElementD0Ev
libdmrconf.so.0:_ZN15OpenRTXCodeplug11ZoneElementD1Ev
libdmrconf.so.0:_ZN15OpenRTXCodeplug11ZoneElementD2Ev
libdmrconf.so.0:_ZN15OpenRTXCodeplug11createZonesEP6ConfigRN8Codeplug7ContextERK10ErrorStack
libdmrconf.so.0:_ZN15OpenRTXCodeplug11encodeZonesEP6ConfigRKN8Codeplug5FlagsERNS2_7ContextERK10ErrorStack
libdmrconf.so.0:_ZN15OpenRTXCodeplug11numChannelsEv
libdmrconf.so.0:_ZN15OpenRTXCodeplug11numContactsEv
libdmrconf.so.0:_ZN15OpenRTXCodeplug11qt_metacallEN11QMetaObject4CallEiPPv
libdmrconf.so.0:_ZN15OpenRTXCodeplug11qt_metacastEPKc
libdmrconf.so.0:_ZN15OpenRTXCodeplug12linkChannelsEP6ConfigRN8Codeplug7ContextERK10ErrorStack
libdmrconf.so.0:_ZN15OpenRTXCodeplug13HeaderElement10setVersionEv
libdmrconf.so.0:_ZN15OpenRTXCodeplug13HeaderElement12setTimestampE9QDateTime
libdmrconf.so.0:_ZN15OpenRTXCodeplug13HeaderElement12setZoneCountEj
libdmrconf.so.0:_ZN15OpenRTXCodeplug13HeaderElement14setDescriptionE7QString
libdmrconf.so.0:_ZN15OpenRTXCodeplug13HeaderElement15setChannelCountEj
libdmrconf.so.0:_ZN15OpenRTXCodeplug13HeaderElement15setContactCountEj
libdmrconf.so.0:_ZN15OpenRTXCodeplug13HeaderElement5clearEv
libdmrconf.so.0:_ZN15OpenRTXCodeplug13HeaderElement9setAuthorERK7QString
libdmrconf.so.0:_ZN15OpenRTXCodeplug13HeaderElementC1EPh
libdmrconf.so.0:_ZN15OpenRTXCodeplug13HeaderElementC1EPhm
libdmrconf.so.0:_ZN15OpenRTXCodeplug13HeaderElementC2EPh
libdmrconf.so.0:_ZN15OpenRTXCodeplug13HeaderElementC2EPhm
libdmrconf.so.0:_ZN15OpenRTXCodeplug13offsetChannelEj
libdmrconf.so.0:_ZN15OpenRTXCodeplug13offsetContactEj
libdmrconf.so.0:_ZN15OpenRTXCodeplug14ChannelElement11setAltitudeEj
libdmrconf.so.0:_ZN15OpenRTXCodeplug14ChannelElement11setLatitudeEf
libdmrconf.so.0:_ZN15OpenRTXCodeplug14ChannelElement11setTimeslotEN10DMRChannel8TimeSlotE
libdmrconf.so.0:_ZN15OpenRTXCodeplug14ChannelElement12setBandwidthENS0_9BandwidthE
libdmrconf.so.0:_ZN15OpenRTXCodeplug14ChannelElement12setLongitudeEf
libdmrconf.so.0:_ZN15OpenRTXCodeplug14ChannelElement13enableGPSDataEb
libdmrconf.so.0:_ZN15OpenRTXCodeplug14ChannelElement14fromChannelObjEPK7ChannelRN8Codeplug7ContextERK10ErrorStack
libdmrconf.so.0:_ZN15OpenRTXCodeplug14ChannelElement14setChannelModeENS0_11ChannelModeE
libdmrconf.so.0:_ZN15OpenRTXCodeplug14ChannelElement14setDescriptionERK7QString
libdmrconf.so.0:_ZN15OpenRTXCodeplug14ChannelElement14setRXColorCodeEj
libdmrconf.so.0:_ZN15OpenRTXCodeplug14ChannelElement14setRXFrequencyE9Frequency
libdmrconf.so.0:_ZN15OpenRTXCodeplug14ChannelElement14setTXColorCodeEj
libdmrconf.so.0:_ZN15OpenRTXCodeplug14ChannelElement14setTXFrequencyE9Frequency
libdmrconf.so.0:_ZN15OpenRTXCodeplug14ChannelElement16setScanListIndexEj
libdmrconf.so.0:_ZN15OpenRTXCodeplug14ChannelElement17setEncryptionModeENS0_14EncryptionModeE
libdmrconf.so.0:_ZN15OpenRTXCodeplug14ChannelElement17setGroupListIndexEj
libdmrconf.so.0:_ZN15OpenRTXCodeplug14ChannelElement18clearScanListIndexEv
libdmrconf.so.0:_ZN15OpenRTXCodeplug14ChannelElement18setDMRContactIndexEj
libdmrconf.so.0:_ZN15OpenRTXCodeplug14ChannelElement18setM17ContactIndexEj
libdmrconf.so.0:_ZN15OpenRTXCodeplug14ChannelElement19clearGroupListIndexEv
libdmrconf.so.0:_ZN15OpenRTXCodeplug14ChannelElement20clearDMRContactIndexEv
libdmrconf.so.0:_ZN15OpenRTXCodeplug14ChannelElement20clearM17ContactIndexEv
libdmrconf.so.0:_ZN15OpenRTXCodeplug14ChannelElement24setRXChannelAccessNumberEj
libdmrconf.so.0:_ZN15OpenRTXCodeplug14ChannelElement24setTXChannelAccessNumberEj
libdmrconf.so.0:_ZN15OpenRTXCodeplug14ChannelElement5clearEv
libdmrconf.so.0:_ZN15OpenRTXCodeplug14ChannelElement7setModeENS_4ModeE
libdmrconf.so.0:_ZN15OpenRTXCodeplug14ChannelElement7setNameERK7QString
libdmrconf.so.0:_ZN15OpenRTXCodeplug14ChannelElement8setPowerEf
libdmrconf.so.0:_ZN15OpenRTXCodeplug14ChannelElement9setRXOnlyEb
libdmrconf.so.0:_ZN15OpenRTXCodeplug14ChannelElement9setRXToneEN9Signaling4CodeERK10ErrorStack
libdmrconf.so.0:_ZN15OpenRTXCodeplug14ChannelElement9setTXToneEN9Signaling4CodeERK10ErrorStack
libdmrconf.so.0:_ZN15OpenRTXCodeplug14ChannelElementC1EPh
libdmrconf.so.0:_ZN15OpenRTXCodeplug14ChannelElementC1EPhm
libdmrconf.so.0:_ZN15OpenRTXCodeplug14ChannelElementC2EPh
libdmrconf.so.0:_ZN15OpenRTXCodeplug14ChannelElementC2EPhm
libdmrconf.so.0:_ZN15OpenRTXCodeplug14ChannelElementD0Ev
libdmrconf.so.0:_ZN15OpenRTXCodeplug14ChannelElementD1Ev
libdmrconf.so.0:_ZN15OpenRTXCodeplug14ChannelElementD2Ev
libdmrconf.so.0:_ZN15OpenRTXCodeplug14ContactElement10setM17CallERK7QStringRK10ErrorStack
libdmrconf.so.0:_ZN15OpenRTXCodeplug14ContactElement13enableDMRRingEb
libdmrconf.so.0:_ZN15OpenRTXCodeplug14ContactElement14fromContactObjEPK10DMRContactRN8Codeplug7ContextERK10ErrorStack
libdmrconf.so.0:_ZN15OpenRTXCodeplug14ContactElement17setDMRContactTypeEN10DMRContact4TypeE
libdmrconf.so.0:_ZN15OpenRTXCodeplug14ContactElement5clearEv
libdmrconf.so.0:_ZN15OpenRTXCodeplug14ContactElement7setModeENS_4ModeE
libdmrconf.so.0:_ZN15OpenRTXCodeplug14ContactElement7setNameERK7QString
libdmrconf.so.0:_ZN15OpenRTXCodeplug14ContactElement8setDMRIdEj
libdmrconf.so.0:_ZN15OpenRTXCodeplug14ContactElementC1EPh
libdmrconf.so.0:_ZN15OpenRTXCodeplug14ContactElementC1EPhj
libdmrconf.so.0:_ZN15OpenRTXCodeplug14ContactElementC2EPh
libdmrconf.so.0:_ZN15OpenRTXCodeplug14ContactElementC2EPhj
libdmrconf.so.0:_ZN15OpenRTXCodeplug14ContactElementD0Ev
libdmrconf.so.0:_ZN15OpenRTXCodeplug14ContactElementD1Ev
libdmrconf.so.0:_ZN15OpenRTXCodeplug14ContactElementD2Ev
libdmrconf.so.0:_ZN15OpenRTXCodeplug14createChannelsEP6ConfigRN8Codeplug7ContextERK10ErrorStack
libdmrconf.so.0:_ZN15OpenRTXCodeplug14createContactsEP6ConfigRN8Codeplug7ContextERK10ErrorStack
libdmrconf.so.0:_ZN15OpenRTXCodeplug14decodeElementsERN8Codeplug7ContextERK10ErrorStack
libdmrconf.so.0:_ZN15OpenRTXCodeplug14encodeChannelsEP6ConfigRKN8Codeplug5FlagsERNS2_7ContextERK10ErrorStack
libdmrconf.so.0:_ZN15OpenRTXCodeplug14encodeContactsEP6ConfigRKN8Codeplug5FlagsERNS2_7ContextERK10ErrorStack
libdmrconf.so.0:_ZN15OpenRTXCodeplug14encodeElementsERKN8Codeplug5FlagsERNS0_7ContextERK10ErrorStack
libdmrconf.so.0:_ZN15OpenRTXCodeplug17offsetZoneOffsetsEv
libdmrconf.so.0:_ZN15OpenRTXCodeplug5clearEv
libdmrconf.so.0:_ZN15OpenRTXCodeplug6decodeEP6ConfigRK10ErrorStack
libdmrconf.so.0:_ZN15OpenRTXCodeplug6encodeEP6ConfigRKN8Codeplug5FlagsERK10ErrorStack
libdmrconf.so.0:_ZN15OpenRTXCodeplug8numZonesEv
libdmrconf.so.0:_ZN15OpenRTXCodeplug9linkZonesEP6ConfigRN8Codeplug7ContextERK10ErrorStack
libdmrconf.so.0:_ZN15OpenRTXCodeplugC1EP7QObject
libdmrconf.so.0:_ZN15OpenRTXCodeplugC2EP7QObject
libdmrconf.so.0:_ZN15OpenRTXCodeplugD0Ev
libdmrconf.so.0:_ZN15OpenRTXCodeplugD1Ev
libdmrconf.so.0:_ZN15OpenRTXCodeplugD2Ev
libdmrconf.so.0:_ZN15RadioLimitDMRId11qt_metacallEN11QMetaObject4CallEiPPv
libdmrconf.so.0:_ZN15RadioLimitDMRId11qt_metacastEPKc
libdmrconf.so.0:_ZN15RadioLimitDMRIdC1EP7QObject
libdmrconf.so.0:_ZN15RadioLimitDMRIdC2EP7QObject
libdmrconf.so.0:_ZN15RadioLimitIssueC1ENS_8SeverityERK11QStringList
libdmrconf.so.0:_ZN15RadioLimitIssueC1ERKS_
libdmrconf.so.0:_ZN15RadioLimitIssueC2ENS_8SeverityERK11QStringList
libdmrconf.so.0:_ZN15RadioLimitIssueC2ERKS_
libdmrconf.so.0:_ZN15RadioLimitIssueaSERK7QString
libdmrconf.so.0:_ZN15RadioLimitIssueaSERKS_
libdmrconf.so.0:_ZN15RadioLimitValue11qt_metacallEN11QMetaObject4CallEiPPv
libdmrconf.so.0:_ZN15RadioLimitValue11qt_metacastEPKc
libdmrconf.so.0:_ZN15RadioLimitValueC1EP7QObject
libdmrconf.so.0:_ZN15RadioLimitValueC2EP7QObject
libdmrconf.so.0:_ZN15RadioddityRadio11qt_metacallEN11QMetaObject4CallEiPPv
libdmrconf.so.0:_ZN15RadioddityRadio11qt_metacastEPKc
libdmrconf.so.0:_ZN15RadioddityRadio11startUploadEP6ConfigbRKN8Codeplug5FlagsERK10ErrorStack
libdmrconf.so.0:_ZN15RadioddityRadio13startDownloadEbRK10ErrorStack
libdmrconf.so.0:_ZN15RadioddityRadio15uploadCallsignsEv
libdmrconf.so.0:_ZN15RadioddityRadio21startUploadCallsignDBEP12UserDatabasebRKN10CallsignDB9SelectionERK10ErrorStack
libdmrconf.so.0:_ZN15RadioddityRadio3runEv
libdmrconf.so.0:_ZN15RadioddityRadio6uploadEv
libdmrconf.so.0:_ZN15RadioddityRadio8downloadEv
libdmrconf.so.0:_ZN15RadioddityRadioC1EP19RadioddityInterfaceP7QObject
libdmrconf.so.0:_ZN15RadioddityRadioC2EP19RadioddityInterfaceP7QObject
libdmrconf.so.0:_ZN15RadioddityRadioD0Ev
libdmrconf.so.0:_ZN15RadioddityRadioD1Ev
libdmrconf.so.0:_ZN15RadioddityRadioD2Ev
libdmrconf.so.0:_ZN15RoamingZoneList11qt_metacallEN11QMetaObject4CallEiPPv
libdmrconf.so.0:_ZN15RoamingZoneList11qt_metacastEPKc
libdmrconf.so.0:_ZN15RoamingZoneList13allocateChildERKN4YAML4NodeERN10ConfigItem7ContextERK10ErrorStack
libdmrconf.so.0:_ZN15RoamingZoneList3addEP12ConfigObjectib
libdmrconf.so.0:_ZN15RoamingZoneListC1EP7QObject
libdmrconf.so.0:_ZN15RoamingZoneListC2EP7QObject
libdmrconf.so.0:_ZN15SelectedChannel11qt_metacallEN11QMetaObject4CallEiPPv
libdmrconf.so.0:_ZN15SelectedChannel11qt_metacastEPKc
libdmrconf.so.0:_ZN15SelectedChannel3getEv
libdmrconf.so.0:_ZN15SelectedChannel4copyERK10ConfigItem
libdmrconf.so.0:_ZN15SelectedChannelC1Ev
libdmrconf.so.0:_ZN15SelectedChannelC2Ev
libdmrconf.so.0:_ZN15SelectedChannelD0Ev
libdmrconf.so.0:_ZN15SelectedChannelD1Ev
libdmrconf.so.0:_ZN15SelectedChannelD2Ev
libdmrconf.so.0:_ZN15TyTMenuSettings10enableScanEb
libdmrconf.so.0:_ZN15TyTMenuSettings11enablePowerEb
libdmrconf.so.0:_ZN15TyTMenuSettings11qt_metacallEN11QMetaObject4CallEiPPv
libdmrconf.so.0:_ZN15TyTMenuSettings11qt_metacastEPKc
libdmrconf.so.0:_ZN15TyTMenuSettings11setHangTimeEj
libdmrconf.so.0:_ZN15TyTMenuSettings13enableSquelchEb
libdmrconf.so.0:_ZN15TyTMenuSettings14enablePasswordEb
libdmrconf.so.0:_ZN15TyTMenuSettings15enableAlertToneEb
libdmrconf.so.0:_ZN15TyTMenuSettings15enableBacklightEb
libdmrconf.so.0:_ZN15TyTMenuSettings15enableCallAlertEb
libdmrconf.so.0:_ZN15TyTMenuSettings16enableBootScreenEb
libdmrconf.so.0:_ZN15TyTMenuSettings16enableKeypadLockEb
libdmrconf.so.0:_ZN15TyTMenuSettings16enableManualDialEb
libdmrconf.so.0:_ZN15TyTMenuSettings16enableTalkaroundEb
libdmrconf.so.0:_ZN15TyTMenuSettings17enableDisplayModeEb
libdmrconf.so.0:_ZN15TyTMenuSettings17enableTextMessageEb
libdmrconf.so.0:_ZN15TyTMenuSettings18enableLEDIndicatorEb
libdmrconf.so.0:_ZN15TyTMenuSettings19enableCallLogMissedEb
libdmrconf.so.0:_ZN15TyTMenuSettings19enableRemoteMonitorEb
libdmrconf.so.0:_ZN15TyTMenuSettings19setHangtimeInfiniteEb
libdmrconf.so.0:_ZN15TyTMenuSettings20enableContactEditingEb
libdmrconf.so.0:_ZN15TyTMenuSettings20enableGPSInformationEb
libdmrconf.so.0:_ZN15TyTMenuSettings21enableCallLogAnsweredEb
libdmrconf.so.0:_ZN15TyTMenuSettings21enableCallLogOutgoingEb
libdmrconf.so.0:_ZN15TyTMenuSettings21enableScanListEditingEb
libdmrconf.so.0:_ZN15TyTMenuSettings22enableRadioProgrammingEb
libdmrconf.so.0:_ZN15TyTMenuSettings22enableRemoteRadioCheckEb
libdmrconf.so.0:_ZN15TyTMenuSettings23enableRemoteRadioEnableEb
libdmrconf.so.0:_ZN15TyTMenuSettings24enableRemoteRadioDisableEb
libdmrconf.so.0:_ZN15TyTMenuSettings9enableVOXEb
libdmrconf.so.0:_ZN15TyTMenuSettingsC1EP7QObject
libdmrconf.so.0:_ZN15TyTMenuSettingsC2EP7QObject
libdmrconf.so.0:_ZN15USBDeviceHandleC1Ehhj
libdmrconf.so.0:_ZN15USBDeviceHandleC1Ev
libdmrconf.so.0:_ZN15USBDeviceHandleC2Ehhj
libdmrconf.so.0:_ZN15USBDeviceHandleC2Ev
libdmrconf.so.0:_ZN15USBDeviceHandleeqERKS_
libdmrconf.so.0:_ZN15UV390CallsignDB11qt_metacallEN11QMetaObject4CallEiPPv
libdmrconf.so.0:_ZN15UV390CallsignDB11qt_metacastEPKc
libdmrconf.so.0:_ZN15UV390CallsignDBC1EP7QObject
libdmrconf.so.0:_ZN15UV390CallsignDBC2EP7QObject
libdmrconf.so.0:_ZN15UV390CallsignDBD0Ev
libdmrconf.so.0:_ZN15UV390CallsignDBD1Ev
libdmrconf.so.0:_ZN15UV390CallsignDBD2Ev
libdmrconf.so.0:_ZN15UV390FileReader4readERK7QStringP13UV390CodeplugRK10ErrorStack
libdmrconf.so.0:_ZN16AESEncryptionKey11qt_metacallEN11QMetaObject4CallEiPPv
libdmrconf.so.0:_ZN16AESEncryptionKey11qt_metacastEPKc
libdmrconf.so.0:_ZN16AESEncryptionKey5parseERKN4YAML4NodeERN10ConfigItem7ContextERK10ErrorStack
libdmrconf.so.0:_ZN16AESEncryptionKey6setKeyERK10QByteArrayRK10ErrorStack
libdmrconf.so.0:_ZN16AESEncryptionKey9serializeERKN10ConfigItem7ContextERK10ErrorStack
libdmrconf.so.0:_ZN16AESEncryptionKeyC1EP7QObject
libdmrconf.so.0:_ZN16AESEncryptionKeyC2EP7QObject
libdmrconf.so.0:_ZN16AnytoneInterface10identifierERK10ErrorStack
libdmrconf.so.0:_ZN16AnytoneInterface10read_startEjjRK10ErrorStack
libdmrconf.so.0:_ZN16AnytoneInterface11ReadRequestC1Ej
libdmrconf.so.0:_ZN16AnytoneInterface11ReadRequestC2Ej
libdmrconf.so.0:_ZN16AnytoneInterface11qt_metacallEN11QMetaObject4CallEiPPv
libdmrconf.so.0:_ZN16AnytoneInterface11qt_metacastEPKc
libdmrconf.so.0:_ZN16AnytoneInterface11read_finishERK10ErrorStack
libdmrconf.so.0:_ZN16AnytoneInterface11write_startEjjRK10ErrorStack
libdmrconf.so.0:_ZN16AnytoneInterface12RadioVariantC1Ev
libdmrconf.so.0:_ZN16AnytoneInterface12RadioVariantC2Ev
libdmrconf.so.0:_ZN16AnytoneInterface12WriteRequestC1EjPKc
libdmrconf.so.0:_ZN16AnytoneInterface12WriteRequestC2EjPKc
libdmrconf.so.0:_ZN16AnytoneInterface12send_receiveEPKciPciRK10ErrorStack
libdmrconf.so.0:_ZN16AnytoneInterface12write_finishERK10ErrorStack
libdmrconf.so.0:_ZN16AnytoneInterface13interfaceInfoEv
libdmrconf.so.0:_ZN16AnytoneInterface18enter_program_modeERK10ErrorStack
libdmrconf.so.0:_ZN16AnytoneInterface18leave_program_modeERK10ErrorStack
libdmrconf.so.0:_ZN16AnytoneInterface18request_identifierERNS_12RadioVariantERK10ErrorStack
libdmrconf.so.0:_ZN16AnytoneInterface4readEjjPhiRK10ErrorStack
libdmrconf.so.0:_ZN16AnytoneInterface5closeEv
libdmrconf.so.0:_ZN16AnytoneInterface5writeEjjPhiRK10ErrorStack
libdmrconf.so.0:_ZN16AnytoneInterface6detectEb
libdmrconf.so.0:_ZN16AnytoneInterface6rebootERK10ErrorStack
libdmrconf.so.0:_ZN16AnytoneInterface7getInfoERNS_12RadioVariantE
libdmrconf.so.0:_ZN16AnytoneInterfaceC1ERK19USBDeviceDescriptorRK10ErrorStackP7QObject
libdmrconf.so.0:_ZN16AnytoneInterfaceC2ERK19USBDeviceDescriptorRK10ErrorStackP7QObject
libdmrconf.so.0:_ZN16AnytoneInterfaceD0Ev
libdmrconf.so.0:_ZN16AnytoneInterfaceD1Ev
libdmrconf.so.0:_ZN16AnytoneInterfaceD2Ev
libdmrconf.so.0:_ZN16ChannelReference11qt_metacallEN11QMetaObject4CallEiPPv
libdmrconf.so.0:_ZN16ChannelReference11qt_metacastEPKc
libdmrconf.so.0:_ZN16ChannelReferenceC1EP7QObject
libdmrconf.so.0:_ZN16ChannelReferenceC1ERK11QMetaObjectP7QObject
libdmrconf.so.0:_ZN16ChannelReferenceC2EP7QObject
libdmrconf.so.0:_ZN16ChannelReferenceC2ERK11QMetaObjectP7QObject
libdmrconf.so.0:_ZN16ConfigObjectList11qt_metacallEN11QMetaObject4CallEiPPv
libdmrconf.so.0:_ZN16ConfigObjectList11qt_metacastEPKc
libdmrconf.so.0:_ZN16ConfigObjectList3addEP12ConfigObjectib
libdmrconf.so.0:_ZN16ConfigObjectList3delEP12ConfigObject
libdmrconf.so.0:_ZN16ConfigObjectList4copyERK24AbstractConfigObjectList
libdmrconf.so.0:_ZN16ConfigObjectList4linkERKN4YAML4NodeERKN10ConfigItem7ContextERK10ErrorStack
libdmrconf.so.0:_ZN16ConfigObjectList4takeEP12ConfigObject
libdmrconf.so.0:_ZN16ConfigObjectList5clearEv
libdmrconf.so.0:_ZN16ConfigObjectList5labelERN10ConfigItem7ContextERK10ErrorStack
libdmrconf.so.0:_ZN16ConfigObjectList5parseERKN4YAML4NodeERN10ConfigItem7ContextERK10ErrorStack
libdmrconf.so.0:_ZN16ConfigObjectList9serializeERKN10ConfigItem7ContextERK10ErrorStack
libdmrconf.so.0:_ZN16ConfigObjectListC1ERK11QMetaObjectP7QObject
libdmrconf.so.0:_ZN16ConfigObjectListC1ERKSt16initializer_listI11QMetaObjectEP7QObject
libdmrconf.so.0:_ZN16ConfigObjectListC2ERK11QMetaObjectP7QObject
libdmrconf.so.0:_ZN16ConfigObjectListC2ERKSt16initializer_listI11QMetaObjectEP7QObject
libdmrconf.so.0:_ZN16ContactReference11qt_metacallEN11QMetaObject4CallEiPPv
libdmrconf.so.0:_ZN16ContactReference11qt_metacastEPKc
libdmrconf.so.0:_ZN16ContactReferenceC1EP7QObject
libdmrconf.so.0:_ZN16ContactReferenceC1ERK11QMetaObjectP7QObject
libdmrconf.so.0:_ZN16ContactReferenceC2EP7QObject
libdmrconf.so.0:_ZN16ContactReferenceC2ERK11QMetaObjectP7QObject
libdmrconf.so.0:_ZN16D868UVCallsignDB11qt_metacallEN11QMetaObject4CallEiPPv
libdmrconf.so.0:_ZN16D868UVCallsignDB11qt_metacastEPKc
libdmrconf.so.0:_ZN16D868UVCallsignDB12EntryElement10setContentERK7QStringS3_S3_S3_S3_S3_
libdmrconf.so.0:_ZN16D868UVCallsignDB12EntryElement11setCallTypeEN10DMRContact4TypeE
libdmrconf.so.0:_ZN16D868UVCallsignDB12EntryElement11setRingToneENS0_8RingToneE
libdmrconf.so.0:_ZN16D868UVCallsignDB12EntryElement13setFriendFlagEb
libdmrconf.so.0:_ZN16D868UVCallsignDB12EntryElement4sizeERKN12UserDatabase4UserE
libdmrconf.so.0:_ZN16D868UVCallsignDB12EntryElement5clearEv
libdmrconf.so.0:_ZN16D868UVCallsignDB12EntryElement8fromUserERKN12UserDatabase4UserE
libdmrconf.so.0:_ZN16D868UVCallsignDB12EntryElement9setNumberEj
libdmrconf.so.0:_ZN16D868UVCallsignDB12EntryElementC1EPh
libdmrconf.so.0:_ZN16D868UVCallsignDB12EntryElementC1EPhj
libdmrconf.so.0:_ZN16D868UVCallsignDB12EntryElementC2EPh
libdmrconf.so.0:_ZN16D868UVCallsignDB12EntryElementC2EPhj
libdmrconf.so.0:_ZN16D868UVCallsignDB13LimitsElement10setEndOfDBEj
libdmrconf.so.0:_ZN16D868UVCallsignDB13LimitsElement12setTotalSizeEj
libdmrconf.so.0:_ZN16D868UVCallsignDB13LimitsElement4sizeEv
libdmrconf.so.0:_ZN16D868UVCallsignDB13LimitsElement5clearEv
libdmrconf.so.0:_ZN16D868UVCallsignDB13LimitsElement8setCountEj
libdmrconf.so.0:_ZN16D868UVCallsignDB13LimitsElementC1EPh
libdmrconf.so.0:_ZN16D868UVCallsignDB13LimitsElementC1EPhj
libdmrconf.so.0:_ZN16D868UVCallsignDB13LimitsElementC2EPh
libdmrconf.so.0:_ZN16D868UVCallsignDB13LimitsElementC2EPhj
libdmrconf.so.0:_ZN16D868UVCallsignDB6encodeEP12UserDatabaseRKN10CallsignDB9SelectionERK10ErrorStack
libdmrconf.so.0:_ZN16D868UVCallsignDBC1EP7QObject
libdmrconf.so.0:_ZN16D868UVCallsignDBC2EP7QObject
libdmrconf.so.0:_ZN16DM1701CallsignDB11qt_metacallEN11QMetaObject4CallEiPPv
libdmrconf.so.0:_ZN16DM1701CallsignDB11qt_metacastEPKc
libdmrconf.so.0:_ZN16DM1701CallsignDBC1EP7QObject
libdmrconf.so.0:_ZN16DM1701CallsignDBC2EP7QObject
libdmrconf.so.0:_ZN16DM1701CallsignDBD0Ev
libdmrconf.so.0:_ZN16DM1701CallsignDBD1Ev
libdmrconf.so.0:_ZN16DM1701CallsignDBD2Ev
libdmrconf.so.0:_ZN16DM1701FileReader4readERK7QStringP14DM1701CodeplugRK10ErrorStack
libdmrconf.so.0:_ZN16DMR6X2UVCodeplug10setBitmapsERN8Codeplug7ContextE
libdmrconf.so.0:_ZN16DMR6X2UVCodeplug11linkRoamingERN8Codeplug7ContextERK10ErrorStack
libdmrconf.so.0:_ZN16DMR6X2UVCodeplug11qt_metacallEN11QMetaObject4CallEiPPv
libdmrconf.so.0:_ZN16DMR6X2UVCodeplug11qt_metacastEPKc
libdmrconf.so.0:_ZN16DMR6X2UVCodeplug12linkChannelsERN8Codeplug7ContextERK10ErrorStack
libdmrconf.so.0:_ZN16DMR6X2UVCodeplug13createRoamingERN8Codeplug7ContextERK10ErrorStack
libdmrconf.so.0:_ZN16DMR6X2UVCodeplug13encodeRoamingERKN8Codeplug5FlagsERNS0_7ContextERK10ErrorStack
libdmrconf.so.0:_ZN16DMR6X2UVCodeplug14ChannelElement13enableRangingEb
libdmrconf.so.0:_ZN16DMR6X2UVCodeplug14ChannelElement13enableRoamingEb
libdmrconf.so.0:_ZN16DMR6X2UVCodeplug14ChannelElement16setScanListIndexEj
libdmrconf.so.0:_ZN16DMR6X2UVCodeplug14ChannelElement16setScanListIndexEjj
libdmrconf.so.0:_ZN16DMR6X2UVCodeplug14ChannelElement18clearScanListIndexEj
libdmrconf.so.0:_ZN16DMR6X2UVCodeplug14ChannelElement18clearScanListIndexEv
libdmrconf.so.0:_ZN16DMR6X2UVCodeplug14ChannelElementC1EPh
libdmrconf.so.0:_ZN16DMR6X2UVCodeplug14ChannelElementC1EPhj
libdmrconf.so.0:_ZN16DMR6X2UVCodeplug14ChannelElementC2EPh
libdmrconf.so.0:_ZN16DMR6X2UVCodeplug14ChannelElementC2EPhj
libdmrconf.so.0:_ZN16DMR6X2UVCodeplug14createChannelsERN8Codeplug7ContextERK10ErrorStack
libdmrconf.so.0:_ZN16DMR6X2UVCodeplug14decodeElementsERN8Codeplug7ContextERK10ErrorStack
libdmrconf.so.0:_ZN16DMR6X2UVCodeplug14encodeChannelsERKN8Codeplug5FlagsERNS0_7ContextERK10ErrorStack
libdmrconf.so.0:_ZN16DMR6X2UVCodeplug14encodeElementsERKN8Codeplug5FlagsERNS0_7ContextERK10ErrorStack
libdmrconf.so.0:_ZN16DMR6X2UVCodeplug14linkGPSSystemsERN8Codeplug7ContextERK10ErrorStack
libdmrconf.so.0:_ZN16DMR6X2UVCodeplug15BackgroundColor6decodeEh
libdmrconf.so.0:_ZN16DMR6X2UVCodeplug15BackgroundColor6encodeEN31AnytoneDisplaySettingsExtension5ColorE
libdmrconf.so.0:_ZN16DMR6X2UVCodeplug15allocateBitmapsEv
libdmrconf.so.0:_ZN16DMR6X2UVCodeplug15allocateRoamingEv
libdmrconf.so.0:_ZN16DMR6X2UVCodeplug15allocateUpdatedEv
libdmrconf.so.0:_ZN16DMR6X2UVCodeplug16createGPSSystemsERN8Codeplug7ContextERK10ErrorStack
libdmrconf.so.0:_ZN16DMR6X2UVCodeplug16encodeGPSSystemsERKN8Codeplug5FlagsERNS0_7ContextERK10ErrorStack
libdmrconf.so.0:_ZN16DMR6X2UVCodeplug18allocateGPSSystemsEv
libdmrconf.so.0:_ZN16DMR6X2UVCodeplug19APRSSettingsElement12setFMTXDelayEj
libdmrconf.so.0:_ZN16DMR6X2UVCodeplug19APRSSettingsElement13disableAutoTXEv
libdmrconf.so.0:_ZN16DMR6X2UVCodeplug19APRSSettingsElement14setDMRCallTypeEjN10DMRContact4TypeE
libdmrconf.so.0:_ZN16DMR6X2UVCodeplug19APRSSettingsElement14setDMRTimeSlotEjN10DMRChannel8TimeSlotE
libdmrconf.so.0:_ZN16DMR6X2UVCodeplug19APRSSettingsElement14setDestinationERK7QStringj
libdmrconf.so.0:_ZN16DMR6X2UVCodeplug19APRSSettingsElement14setFMFrequencyE9Frequency
libdmrconf.so.0:_ZN16DMR6X2UVCodeplug19APRSSettingsElement14toFMAPRSSystemEv
libdmrconf.so.0:_ZN16DMR6X2UVCodeplug19APRSSettingsElement16enableDMRRoamingEb
libdmrconf.so.0:_ZN16DMR6X2UVCodeplug19APRSSettingsElement16fromFMAPRSSystemEPK10APRSSystemRN8Codeplug7ContextERK10ErrorStack
libdmrconf.so.0:_ZN16DMR6X2UVCodeplug19APRSSettingsElement16linkFMAPRSSystemEP10APRSSystemRN8Codeplug7ContextE
libdmrconf.so.0:_ZN16DMR6X2UVCodeplug19APRSSettingsElement16setFixedLocationER14QGeoCoordinate
libdmrconf.so.0:_ZN16DMR6X2UVCodeplug19APRSSettingsElement17setAutoTXIntervalE8Interval
libdmrconf.so.0:_ZN16DMR6X2UVCodeplug19APRSSettingsElement17setDMRDestinationEjj
libdmrconf.so.0:_ZN16DMR6X2UVCodeplug19APRSSettingsElement17setFMPreWaveDelayE8Interval
libdmrconf.so.0:_ZN16DMR6X2UVCodeplug19APRSSettingsElement18fromDMRAPRSSystemsERN8Codeplug7ContextE
libdmrconf.so.0:_ZN16DMR6X2UVCodeplug19APRSSettingsElement18setDMRChannelIndexEjj
libdmrconf.so.0:_ZN16DMR6X2UVCodeplug19APRSSettingsElement18setDMRPreWaveDelayE8Interval
libdmrconf.so.0:_ZN16DMR6X2UVCodeplug19APRSSettingsElement19dmrTimeSlotOverrideEj
libdmrconf.so.0:_ZN16DMR6X2UVCodeplug19APRSSettingsElement19setManualTXIntervalE8Interval
libdmrconf.so.0:_ZN16DMR6X2UVCodeplug19APRSSettingsElement20disableFixedLocationEv
libdmrconf.so.0:_ZN16DMR6X2UVCodeplug19APRSSettingsElement20fromDMRAPRSSystemObjEjP9GPSSystemRN8Codeplug7ContextE
libdmrconf.so.0:_ZN16DMR6X2UVCodeplug19APRSSettingsElement21setDMRChannelSelectedEj
libdmrconf.so.0:_ZN16DMR6X2UVCodeplug19APRSSettingsElement24clearDMRTimeSlotOverrideEj
libdmrconf.so.0:_ZN16DMR6X2UVCodeplug19APRSSettingsElement5clearEv
libdmrconf.so.0:_ZN16DMR6X2UVCodeplug19APRSSettingsElement7setIconEN10APRSSystem4IconE
libdmrconf.so.0:_ZN16DMR6X2UVCodeplug19APRSSettingsElement7setPathERK7QString
libdmrconf.so.0:_ZN16DMR6X2UVCodeplug19APRSSettingsElement8setPowerEN7Channel5PowerE
libdmrconf.so.0:_ZN16DMR6X2UVCodeplug19APRSSettingsElement9setSourceERK7QStringj
libdmrconf.so.0:_ZN16DMR6X2UVCodeplug19APRSSettingsElement9setTXToneEN9Signaling4CodeE
libdmrconf.so.0:_ZN16DMR6X2UVCodeplug19APRSSettingsElementC1EPh
libdmrconf.so.0:_ZN16DMR6X2UVCodeplug19APRSSettingsElementC1EPhj
libdmrconf.so.0:_ZN16DMR6X2UVCodeplug19APRSSettingsElementC2EPh
libdmrconf.so.0:_ZN16DMR6X2UVCodeplug19APRSSettingsElementC2EPhj
libdmrconf.so.0:_ZN16DMR6X2UVCodeplug19allocateForDecodingEv
libdmrconf.so.0:_ZN16DMR6X2UVCodeplug19allocateForEncodingEv
libdmrconf.so.0:_ZN16DMR6X2UVCodeplug19linkGeneralSettingsERN8Codeplug7ContextERK10ErrorStack
libdmrconf.so.0:_ZN16DMR6X2UVCodeplug21decodeGeneralSettingsERN8Codeplug7ContextERK10ErrorStack
libdmrconf.so.0:_ZN16DMR6X2UVCodeplug21encodeGeneralSettingsERKN8Codeplug5FlagsERNS0_7ContextERK10ErrorStack
libdmrconf.so.0:_ZN16DMR6X2UVCodeplug22GeneralSettingsElement10fromConfigERKN8Codeplug5FlagsERNS1_7ContextE
libdmrconf.so.0:_ZN16DMR6X2UVCodeplug22GeneralSettingsElement10setSTETypeEN24AnytoneSettingsExtension7STETypeE
libdmrconf.so.0:_ZN16DMR6X2UVCodeplug22GeneralSettingsElement11KeyFunction6decodeEh
libdmrconf.so.0:_ZN16DMR6X2UVCodeplug22GeneralSettingsElement11KeyFunction6encodeEN27AnytoneKeySettingsExtension11KeyFunctionE
libdmrconf.so.0:_ZN16DMR6X2UVCodeplug22GeneralSettingsElement11setLanguageEN31AnytoneDisplaySettingsExtension8LanguageE
libdmrconf.so.0:_ZN16DMR6X2UVCodeplug22GeneralSettingsElement12enableWFMVFOEb
libdmrconf.so.0:_ZN16DMR6X2UVCodeplug22GeneralSettingsElement12setSMSFormatEN27AnytoneDMRSettingsExtension9SMSFormatE
libdmrconf.so.0:_ZN16DMR6X2UVCodeplug22GeneralSettingsElement12updateConfigERN8Codeplug7ContextE
libdmrconf.so.0:_ZN16DMR6X2UVCodeplug22GeneralSettingsElement13enableKeyToneEb
libdmrconf.so.0:_ZN16DMR6X2UVCodeplug22GeneralSettingsElement13enableManDownEb
libdmrconf.so.0:_ZN16DMR6X2UVCodeplug22GeneralSettingsElement13enableProModeEb
libdmrconf.so.0:_ZN16DMR6X2UVCodeplug22GeneralSettingsElement13setFMCallHoldEj
libdmrconf.so.0:_ZN16DMR6X2UVCodeplug22GeneralSettingsElement14enableKnobLockEb
libdmrconf.so.0:_ZN16DMR6X2UVCodeplug22GeneralSettingsElement14enableVFOModeAEb
libdmrconf.so.0:_ZN16DMR6X2UVCodeplug22GeneralSettingsElement14enableVFOModeBEb
libdmrconf.so.0:_ZN16DMR6X2UVCodeplug22GeneralSettingsElement15setFuncKey1LongEN27AnytoneKeySettingsExtension11KeyFunctionE
libdmrconf.so.0:_ZN16DMR6X2UVCodeplug22GeneralSettingsElement15setFuncKey2LongEN27AnytoneKeySettingsExtension11KeyFunctionE
libdmrconf.so.0:_ZN16DMR6X2UVCodeplug22GeneralSettingsElement15setFuncKeyALongEN27AnytoneKeySettingsExtension11KeyFunctionE
libdmrconf.so.0:_ZN16DMR6X2UVCodeplug22GeneralSettingsElement15setFuncKeyBLongEN27AnytoneKeySettingsExtension11KeyFunctionE
libdmrconf.so.0:_ZN16DMR6X2UVCodeplug22GeneralSettingsElement15setFuncKeyCLongEN27AnytoneKeySettingsExtension11KeyFunctionE
libdmrconf.so.0:_ZN16DMR6X2UVCodeplug22GeneralSettingsElement15setKeyToneLevelEj
libdmrconf.so.0:_ZN16DMR6X2UVCodeplug22GeneralSettingsElement15setManDownDelayE8Interval
libdmrconf.so.0:_ZN16DMR6X2UVCodeplug22GeneralSettingsElement15setPreWaveDelayE8Interval
libdmrconf.so.0:_ZN16DMR6X2UVCodeplug22GeneralSettingsElement15setSTEFrequencyEd
libdmrconf.so.0:_ZN16DMR6X2UVCodeplug22GeneralSettingsElement16enableGPSMessageEb
libdmrconf.so.0:_ZN16DMR6X2UVCodeplug22GeneralSettingsElement16enableKeypadLockEb
libdmrconf.so.0:_ZN16DMR6X2UVCodeplug22GeneralSettingsElement16enableSMSConfirmEb
libdmrconf.so.0:_ZN16DMR6X2UVCodeplug22GeneralSettingsElement16enableWFMMonitorEb
libdmrconf.so.0:_ZN16DMR6X2UVCodeplug22GeneralSettingsElement16setFuncKey1ShortEN27AnytoneKeySettingsExtension11KeyFunctionE
libdmrconf.so.0:_ZN16DMR6X2UVCodeplug22GeneralSettingsElement16setFuncKey2ShortEN27AnytoneKeySettingsExtension11KeyFunctionE
libdmrconf.so.0:_ZN16DMR6X2UVCodeplug22GeneralSettingsElement16setFuncKeyAShortEN27AnytoneKeySettingsExtension11KeyFunctionE
libdmrconf.so.0:_ZN16DMR6X2UVCodeplug22GeneralSettingsElement16setFuncKeyBShortEN27AnytoneKeySettingsExtension11KeyFunctionE
libdmrconf.so.0:_ZN16DMR6X2UVCodeplug22GeneralSettingsElement16setFuncKeyCShortEN27AnytoneKeySettingsExtension11KeyFunctionE
libdmrconf.so.0:_ZN16DMR6X2UVCodeplug22GeneralSettingsElement16setTBSTFrequencyE9Frequency
libdmrconf.so.0:_ZN16DMR6X2UVCodeplug22GeneralSettingsElement17enableFilterOwnIDEb
libdmrconf.so.0:_ZN16DMR6X2UVCodeplug22GeneralSettingsElement17setWakeHeadPeriodE8Interval
libdmrconf.so.0:_ZN16DMR6X2UVCodeplug22GeneralSettingsElement18enableSidekeysLockEb
libdmrconf.so.0:_ZN16DMR6X2UVCodeplug22GeneralSettingsElement18setGPSUpdatePeriodE8Interval
libdmrconf.so.0:_ZN16DMR6X2UVCodeplug22GeneralSettingsElement18setTransmitTimeoutEj
libdmrconf.so.0:_ZN16DMR6X2UVCodeplug22GeneralSettingsElement18setWFMChannelIndexEj
libdmrconf.so.0:_ZN16DMR6X2UVCodeplug22GeneralSettingsElement19enableKeyLockForcedEb
libdmrconf.so.0:_ZN16DMR6X2UVCodeplug22GeneralSettingsElement19enableRemoteMonitorEb
libdmrconf.so.0:_ZN16DMR6X2UVCodeplug22GeneralSettingsElement19enableShowLastHeardEb
libdmrconf.so.0:_ZN16DMR6X2UVCodeplug22GeneralSettingsElement19setDTMFToneDurationEj
libdmrconf.so.0:_ZN16DMR6X2UVCodeplug22GeneralSettingsElement19setMonitorSlotMatchEN27AnytoneDMRSettingsExtension9SlotMatchE
libdmrconf.so.0:_ZN16DMR6X2UVCodeplug22GeneralSettingsElement19setVFOFrequencyStepE9Frequency
libdmrconf.so.0:_ZN16DMR6X2UVCodeplug22GeneralSettingsElement20enableDefaultChannelEb
libdmrconf.so.0:_ZN16DMR6X2UVCodeplug22GeneralSettingsElement20enableKeepLastCallerEb
libdmrconf.so.0:_ZN16DMR6X2UVCodeplug22GeneralSettingsElement20enableMonitorIDMatchEb
libdmrconf.so.0:_ZN16DMR6X2UVCodeplug22GeneralSettingsElement20enableRemoteStunKillEb
libdmrconf.so.0:_ZN16DMR6X2UVCodeplug22GeneralSettingsElement20setDefaultZoneIndexAEj
libdmrconf.so.0:_ZN16DMR6X2UVCodeplug22GeneralSettingsElement20setDefaultZoneIndexBEj
libdmrconf.so.0:_ZN16DMR6X2UVCodeplug22GeneralSettingsElement20setGroupCallHangTimeE8Interval
libdmrconf.so.0:_ZN16DMR6X2UVCodeplug22GeneralSettingsElement21enableIdleChannelToneEb
libdmrconf.so.0:_ZN16DMR6X2UVCodeplug22GeneralSettingsElement21enableSelectTXContactEb
libdmrconf.so.0:_ZN16DMR6X2UVCodeplug22GeneralSettingsElement21enableSimplexRepeaterEb
libdmrconf.so.0:_ZN16DMR6X2UVCodeplug22GeneralSettingsElement21setPriorityZoneAIndexEj
libdmrconf.so.0:_ZN16DMR6X2UVCodeplug22GeneralSettingsElement21setPriorityZoneBIndexEj
libdmrconf.so.0:_ZN16DMR6X2UVCodeplug22GeneralSettingsElement22enableGPSUnitsImperialEb
libdmrconf.so.0:_ZN16DMR6X2UVCodeplug22GeneralSettingsElement22setPrivateCallHangTimeE8Interval
libdmrconf.so.0:_ZN16DMR6X2UVCodeplug22GeneralSettingsElement22setRXBacklightDurationE8Interval
libdmrconf.so.0:_ZN16DMR6X2UVCodeplug22GeneralSettingsElement23setDefaultChannelAIndexEj
libdmrconf.so.0:_ZN16DMR6X2UVCodeplug22GeneralSettingsElement23setDefaultChannelAToVFOEv
libdmrconf.so.0:_ZN16DMR6X2UVCodeplug22GeneralSettingsElement23setDefaultChannelBIndexEj
libdmrconf.so.0:_ZN16DMR6X2UVCodeplug22GeneralSettingsElement23setDefaultChannelBToVFOEv
libdmrconf.so.0:_ZN16DMR6X2UVCodeplug22GeneralSettingsElement24enableFMSendIDAndContactEb
libdmrconf.so.0:_ZN16DMR6X2UVCodeplug22GeneralSettingsElement24enableShowCurrentContactEb
libdmrconf.so.0:_ZN16DMR6X2UVCodeplug22GeneralSettingsElement25enableMaintainCallChannelEb
libdmrconf.so.0:_ZN16DMR6X2UVCodeplug22GeneralSettingsElement25enableMonitorTimeSlotHoldEb
libdmrconf.so.0:_ZN16DMR6X2UVCodeplug22GeneralSettingsElement25setAutoRepeaterDirectionBEN36AnytoneAutoRepeaterSettingsExtension9DirectionE
libdmrconf.so.0:_ZN16DMR6X2UVCodeplug22GeneralSettingsElement25setKeyToneLevelAdjustableEv
libdmrconf.so.0:_ZN16DMR6X2UVCodeplug22GeneralSettingsElement25setStandbyBackgroundColorEN31AnytoneDisplaySettingsExtension5ColorE
libdmrconf.so.0:_ZN16DMR6X2UVCodeplug22GeneralSettingsElement26setSimplexRepeaterTimeslotEN39AnytoneSimplexRepeaterSettingsExtension8TimeSlotE
libdmrconf.so.0:_ZN16DMR6X2UVCodeplug22GeneralSettingsElement27enableMonitorColorCodeMatchEb
libdmrconf.so.0:_ZN16DMR6X2UVCodeplug22GeneralSettingsElement28enableMonitorSimplexRepeaterEb
libdmrconf.so.0:_ZN16DMR6X2UVCodeplug22GeneralSettingsElement30setAutoRepeaterMaxFrequencyUHFE9Frequency
libdmrconf.so.0:_ZN16DMR6X2UVCodeplug22GeneralSettingsElement30setAutoRepeaterMaxFrequencyVHFE9Frequency
libdmrconf.so.0:_ZN16DMR6X2UVCodeplug22GeneralSettingsElement30setAutoRepeaterMinFrequencyUHFE9Frequency
libdmrconf.so.0:_ZN16DMR6X2UVCodeplug22GeneralSettingsElement30setAutoRepeaterMinFrequencyVHFE9Frequency
libdmrconf.so.0:_ZN16DMR6X2UVCodeplug22GeneralSettingsElement32setManualDialedGroupCallHangTimeEj
libdmrconf.so.0:_ZN16DMR6X2UVCodeplug22GeneralSettingsElement34setManualDialedPrivateCallHangTimeEj
libdmrconf.so.0:_ZN16DMR6X2UVCodeplug22GeneralSettingsElementC1EPh
libdmrconf.so.0:_ZN16DMR6X2UVCodeplug22GeneralSettingsElementC1EPhj
libdmrconf.so.0:_ZN16DMR6X2UVCodeplug22GeneralSettingsElementC2EPh
libdmrconf.so.0:_ZN16DMR6X2UVCodeplug22GeneralSettingsElementC2EPhj
libdmrconf.so.0:_ZN16DMR6X2UVCodeplug23ExtendedSettingsElement10fromConfigERKN8Codeplug5FlagsERNS1_7ContextERK10ErrorStack
libdmrconf.so.0:_ZN16DMR6X2UVCodeplug23ExtendedSettingsElement10linkConfigERN8Codeplug7ContextERK10ErrorStack
libdmrconf.so.0:_ZN16DMR6X2UVCodeplug23ExtendedSettingsElement12setFontColorEN31AnytoneDisplaySettingsExtension5ColorE
libdmrconf.so.0:_ZN16DMR6X2UVCodeplug23ExtendedSettingsElement12setMuteTimerE8Interval
libdmrconf.so.0:_ZN16DMR6X2UVCodeplug23ExtendedSettingsElement12updateConfigERN8Codeplug7ContextERK10ErrorStack
libdmrconf.so.0:_ZN16DMR6X2UVCodeplug23ExtendedSettingsElement16setAutoRoamDelayE8Interval
libdmrconf.so.0:_ZN16DMR6X2UVCodeplug23ExtendedSettingsElement17enableAutoRoamingEb
libdmrconf.so.0:_ZN16DMR6X2UVCodeplug23ExtendedSettingsElement17setAutoRoamPeriodE8Interval
libdmrconf.so.0:_ZN16DMR6X2UVCodeplug23ExtendedSettingsElement17setEncryptionTypeEN27AnytoneDMRSettingsExtension14EncryptionTypeE
libdmrconf.so.0:_ZN16DMR6X2UVCodeplug23ExtendedSettingsElement17setZoneANameColorEN31AnytoneDisplaySettingsExtension5ColorE
libdmrconf.so.0:_ZN16DMR6X2UVCodeplug23ExtendedSettingsElement17setZoneBNameColorEN31AnytoneDisplaySettingsExtension5ColorE
libdmrconf.so.0:_ZN16DMR6X2UVCodeplug23ExtendedSettingsElement20setChannelANameColorEN31AnytoneDisplaySettingsExtension5ColorE
libdmrconf.so.0:_ZN16DMR6X2UVCodeplug23ExtendedSettingsElement20setChannelBNameColorEN31AnytoneDisplaySettingsExtension5ColorE
libdmrconf.so.0:_ZN16DMR6X2UVCodeplug23ExtendedSettingsElement20setTalkerAliasSourceEN27AnytoneDMRSettingsExtension17TalkerAliasSourceE
libdmrconf.so.0:_ZN16DMR6X2UVCodeplug23ExtendedSettingsElement21enableSendTalkerAliasEb
libdmrconf.so.0:_ZN16DMR6X2UVCodeplug23ExtendedSettingsElement22setTalkerAliasEncodingEN27AnytoneDMRSettingsExtension19TalkerAliasEncodingE
libdmrconf.so.0:_ZN16DMR6X2UVCodeplug23ExtendedSettingsElement24enableRepeaterRangeCheckEb
libdmrconf.so.0:_ZN16DMR6X2UVCodeplug23ExtendedSettingsElement24setRoamingStartConditionEN31AnytoneRoamingSettingsExtension9RoamStartE
libdmrconf.so.0:_ZN16DMR6X2UVCodeplug23ExtendedSettingsElement25setRoamingReturnConditionEN31AnytoneRoamingSettingsExtension9RoamStartE
libdmrconf.so.0:_ZN16DMR6X2UVCodeplug23ExtendedSettingsElement26setDefaultRoamingZoneIndexEj
libdmrconf.so.0:_ZN16DMR6X2UVCodeplug23ExtendedSettingsElement26setRepeaterOutOfRangeAlertEN31AnytoneRoamingSettingsExtension15OutOfRangeAlertE
libdmrconf.so.0:_ZN16DMR6X2UVCodeplug23ExtendedSettingsElement26setRepeaterRangeCheckCountEj
libdmrconf.so.0:_ZN16DMR6X2UVCodeplug23ExtendedSettingsElement29enableCustomChannelBackgroundEb
libdmrconf.so.0:_ZN16DMR6X2UVCodeplug23ExtendedSettingsElement29setRepeaterRangeCheckIntervalE8Interval
libdmrconf.so.0:_ZN16DMR6X2UVCodeplug23ExtendedSettingsElement32setRepeaterCheckNumNotificationsEj
libdmrconf.so.0:_ZN16DMR6X2UVCodeplug23ExtendedSettingsElement5clearEv
libdmrconf.so.0:_ZN16DMR6X2UVCodeplug23ExtendedSettingsElementC1EPh
libdmrconf.so.0:_ZN16DMR6X2UVCodeplug23ExtendedSettingsElementC1EPhj
libdmrconf.so.0:_ZN16DMR6X2UVCodeplug23ExtendedSettingsElementC2EPh
libdmrconf.so.0:_ZN16DMR6X2UVCodeplug23ExtendedSettingsElementC2EPhj
libdmrconf.so.0:_ZN16DMR6X2UVCodeplug23allocateGeneralSettingsEv
libdmrconf.so.0:_ZN16DMR6X2UVCodeplug5Color6decodeEh
libdmrconf.so.0:_ZN16DMR6X2UVCodeplug5Color6encodeEN31AnytoneDisplaySettingsExtension5ColorE
libdmrconf.so.0:_ZN16DMR6X2UVCodeplug9FontColor6decodeEh
libdmrconf.so.0:_ZN16DMR6X2UVCodeplug9FontColor6encodeEN31AnytoneDisplaySettingsExtension5ColorE
libdmrconf.so.0:_ZN16DMR6X2UVCodeplugC1EP7QObject
libdmrconf.so.0:_ZN16DMR6X2UVCodeplugC1ERK7QStringP7QObject
libdmrconf.so.0:_ZN16DMR6X2UVCodeplugC2EP7QObject
libdmrconf.so.0:_ZN16DMR6X2UVCodeplugC2ERK7QStringP7QObject
libdmrconf.so.0:_ZN16DR1801UVCodeplug11ZoneElement10entryIndexEj
libdmrconf.so.0:_ZN16DR1801UVCodeplug11ZoneElement11linkZoneObjEP4ZoneRN8Codeplug7ContextERK10ErrorStack
libdmrconf.so.0:_ZN16DR1801UVCodeplug11ZoneElement13setEntryIndexEjj
libdmrconf.so.0:_ZN16DR1801UVCodeplug11ZoneElement5clearEv
libdmrconf.so.0:_ZN16DR1801UVCodeplug11ZoneElement6encodeEP4ZoneRN8Codeplug7ContextERK10ErrorStack
libdmrconf.so.0:_ZN16DR1801UVCodeplug11ZoneElement7setNameERK7QString
libdmrconf.so.0:_ZN16DR1801UVCodeplug11ZoneElement8setIndexEj
libdmrconf.so.0:_ZN16DR1801UVCodeplug11ZoneElement9toZoneObjERN8Codeplug7ContextERK10ErrorStack
libdmrconf.so.0:_ZN16DR1801UVCodeplug11ZoneElementC1EPh
libdmrconf.so.0:_ZN16DR1801UVCodeplug11ZoneElementC1EPhm
libdmrconf.so.0:_ZN16DR1801UVCodeplug11ZoneElementC2EPh
libdmrconf.so.0:_ZN16DR1801UVCodeplug11ZoneElementC2EPhm
libdmrconf.so.0:_ZN16DR1801UVCodeplug11qt_metacallEN11QMetaObject4CallEiPPv
libdmrconf.so.0:_ZN16DR1801UVCodeplug11qt_metacastEPKc
libdmrconf.so.0:_ZN16DR1801UVCodeplug12PTTIDElement10clearBOTIDEv
libdmrconf.so.0:_ZN16DR1801UVCodeplug12PTTIDElement10clearEOTIDEv
libdmrconf.so.0:_ZN16DR1801UVCodeplug12PTTIDElement13setBOTIDIndexEj
libdmrconf.so.0:_ZN16DR1801UVCodeplug12PTTIDElement13setEOTIDIndexEj
libdmrconf.so.0:_ZN16DR1801UVCodeplug12PTTIDElement15clearDTMFSystemEv
libdmrconf.so.0:_ZN16DR1801UVCodeplug12PTTIDElement15setTransmitModeENS0_8TransmitE
libdmrconf.so.0:_ZN16DR1801UVCodeplug12PTTIDElement18setDTMFSystemIndexEj
libdmrconf.so.0:_ZN16DR1801UVCodeplug12PTTIDElement5clearEv
libdmrconf.so.0:_ZN16DR1801UVCodeplug12PTTIDElement9setIDModeENS0_6IDModeE
libdmrconf.so.0:_ZN16DR1801UVCodeplug12PTTIDElementC1EPh
libdmrconf.so.0:_ZN16DR1801UVCodeplug12PTTIDElementC1EPhm
libdmrconf.so.0:_ZN16DR1801UVCodeplug12PTTIDElementC2EPh
libdmrconf.so.0:_ZN16DR1801UVCodeplug12PTTIDElementC2EPhm
libdmrconf.so.0:_ZN16DR1801UVCodeplug12linkElementsERN8Codeplug7ContextERK10ErrorStack
libdmrconf.so.0:_ZN16DR1801UVCodeplug13DTMFIDElement15setNumberLengthEj
libdmrconf.so.0:_ZN16DR1801UVCodeplug13DTMFIDElement5clearEv
libdmrconf.so.0:_ZN16DR1801UVCodeplug13DTMFIDElement9setNumberERK7QString
libdmrconf.so.0:_ZN16DR1801UVCodeplug13DTMFIDElementC1EPh
libdmrconf.so.0:_ZN16DR1801UVCodeplug13DTMFIDElementC1EPhm
libdmrconf.so.0:_ZN16DR1801UVCodeplug13DTMFIDElementC2EPh
libdmrconf.so.0:_ZN16DR1801UVCodeplug13DTMFIDElementC2EPhm
libdmrconf.so.0:_ZN16DR1801UVCodeplug14ChannelElement10clearPTTIDEv
libdmrconf.so.0:_ZN16DR1801UVCodeplug14ChannelElement10enableDCDMEb
libdmrconf.so.0:_ZN16DR1801UVCodeplug14ChannelElement11setTimeSlotEN10DMRChannel8TimeSlotE
libdmrconf.so.0:_ZN16DR1801UVCodeplug14ChannelElement12setBandwidthEN9FMChannel9BandwidthE
libdmrconf.so.0:_ZN16DR1801UVCodeplug14ChannelElement12setColorCodeEj
libdmrconf.so.0:_ZN16DR1801UVCodeplug14ChannelElement13setPTTIDIndexEj
libdmrconf.so.0:_ZN16DR1801UVCodeplug14ChannelElement14enableAutoScanEb
libdmrconf.so.0:_ZN16DR1801UVCodeplug14ChannelElement14setChannelTypeENS0_4TypeE
libdmrconf.so.0:_ZN16DR1801UVCodeplug14ChannelElement14setRXFrequencyE9Frequency
libdmrconf.so.0:_ZN16DR1801UVCodeplug14ChannelElement14setTXFrequencyE9Frequency
libdmrconf.so.0:_ZN16DR1801UVCodeplug14ChannelElement16enableLoneWorkerEb
libdmrconf.so.0:_ZN16DR1801UVCodeplug14ChannelElement16enableTalkaroundEb
libdmrconf.so.0:_ZN16DR1801UVCodeplug14ChannelElement16setScanListIndexEj
libdmrconf.so.0:_ZN16DR1801UVCodeplug14ChannelElement16setSignalingModeENS0_13SignalingModeE
libdmrconf.so.0:_ZN16DR1801UVCodeplug14ChannelElement17setAdmitCriterionENS0_5AdmitE
libdmrconf.so.0:_ZN16DR1801UVCodeplug14ChannelElement17setGroupListIndexEj
libdmrconf.so.0:_ZN16DR1801UVCodeplug14ChannelElement18clearScanListIndexEv
libdmrconf.so.0:_ZN16DR1801UVCodeplug14ChannelElement19clearGroupListIndexEv
libdmrconf.so.0:_ZN16DR1801UVCodeplug14ChannelElement19setAlarmSystemIndexEj
libdmrconf.so.0:_ZN16DR1801UVCodeplug14ChannelElement21clearAlarmSystemIndexEv
libdmrconf.so.0:_ZN16DR1801UVCodeplug14ChannelElement21setEncryptionKeyIndexEj
libdmrconf.so.0:_ZN16DR1801UVCodeplug14ChannelElement23clearEncryptionKeyIndexEv
libdmrconf.so.0:_ZN16DR1801UVCodeplug14ChannelElement23setTransmitContactIndexEj
libdmrconf.so.0:_ZN16DR1801UVCodeplug14ChannelElement25clearTransmitContactIndexEv
libdmrconf.so.0:_ZN16DR1801UVCodeplug14ChannelElement29enablePrivateCallConfirmationEb
libdmrconf.so.0:_ZN16DR1801UVCodeplug14ChannelElement5clearEv
libdmrconf.so.0:_ZN16DR1801UVCodeplug14ChannelElement6encodeEP7ChannelRN8Codeplug7ContextERK10ErrorStack
libdmrconf.so.0:_ZN16DR1801UVCodeplug14ChannelElement8setIndexEj
libdmrconf.so.0:_ZN16DR1801UVCodeplug14ChannelElement8setPowerEN7Channel5PowerE
libdmrconf.so.0:_ZN16DR1801UVCodeplug14ChannelElement9setRXToneEN9Signaling4CodeE
libdmrconf.so.0:_ZN16DR1801UVCodeplug14ChannelElement9setTXToneEN9Signaling4CodeE
libdmrconf.so.0:_ZN16DR1801UVCodeplug14ChannelElementC1EPh
libdmrconf.so.0:_ZN16DR1801UVCodeplug14ChannelElementC1EPhm
libdmrconf.so.0:_ZN16DR1801UVCodeplug14ChannelElementC2EPh
libdmrconf.so.0:_ZN16DR1801UVCodeplug14ChannelElementC2EPhm
libdmrconf.so.0:_ZN16DR1801UVCodeplug14ContactElement11setCallTypeEN10DMRContact4TypeE
libdmrconf.so.0:_ZN16DR1801UVCodeplug14ContactElement14linkContactObjEP10DMRContactRN8Codeplug7ContextERK10ErrorStack
libdmrconf.so.0:_ZN16DR1801UVCodeplug14ContactElement17setSuccessorIndexEt
libdmrconf.so.0:_ZN16DR1801UVCodeplug14ContactElement19clearSuccessorIndexEv
libdmrconf.so.0:_ZN16DR1801UVCodeplug14ContactElement5clearEv
libdmrconf.so.0:_ZN16DR1801UVCodeplug14ContactElement6encodeEP10DMRContactRN8Codeplug7ContextERK10ErrorStack
libdmrconf.so.0:_ZN16DR1801UVCodeplug14ContactElement7setNameERK7QString
libdmrconf.so.0:_ZN16DR1801UVCodeplug14ContactElement8setDMRIDEj
libdmrconf.so.0:_ZN16DR1801UVCodeplug14ContactElementC1EPh
libdmrconf.so.0:_ZN16DR1801UVCodeplug14ContactElementC1EPhm
libdmrconf.so.0:_ZN16DR1801UVCodeplug14ContactElementC2EPh
libdmrconf.so.0:_ZN16DR1801UVCodeplug14ContactElementC2EPhm
libdmrconf.so.0:_ZN16DR1801UVCodeplug14MessageElement5clearEv
libdmrconf.so.0:_ZN16DR1801UVCodeplug14MessageElement7setTextERK7QString
libdmrconf.so.0:_ZN16DR1801UVCodeplug14MessageElement8setIndexEj
libdmrconf.so.0:_ZN16DR1801UVCodeplug14MessageElementC1EPh
libdmrconf.so.0:_ZN16DR1801UVCodeplug14MessageElementC1EPhm
libdmrconf.so.0:_ZN16DR1801UVCodeplug14MessageElementC2EPh
libdmrconf.so.0:_ZN16DR1801UVCodeplug14MessageElementC2EPhm
libdmrconf.so.0:_ZN16DR1801UVCodeplug14VFOBankElement5clearEv
libdmrconf.so.0:_ZN16DR1801UVCodeplug14VFOBankElement8setNameAERK7QString
libdmrconf.so.0:_ZN16DR1801UVCodeplug14VFOBankElement8setNameBERK7QString
libdmrconf.so.0:_ZN16DR1801UVCodeplug14VFOBankElementC1EPh
libdmrconf.so.0:_ZN16DR1801UVCodeplug14VFOBankElementC1EPhm
libdmrconf.so.0:_ZN16DR1801UVCodeplug14VFOBankElementC2EPh
libdmrconf.so.0:_ZN16DR1801UVCodeplug14VFOBankElementC2EPhm
libdmrconf.so.0:_ZN16DR1801UVCodeplug14decodeElementsERN8Codeplug7ContextERK10ErrorStack
libdmrconf.so.0:_ZN16DR1801UVCodeplug14encodeElementsERN8Codeplug7ContextERK10ErrorStack
libdmrconf.so.0:_ZN16DR1801UVCodeplug15ScanListElement10entryIndexEj
libdmrconf.so.0:_ZN16DR1801UVCodeplug15ScanListElement13setEntryCountEj
libdmrconf.so.0:_ZN16DR1801UVCodeplug15ScanListElement13setEntryIndexEjj
libdmrconf.so.0:_ZN16DR1801UVCodeplug15ScanListElement13toScanListObjERN8Codeplug7ContextERK10ErrorStack
libdmrconf.so.0:_ZN16DR1801UVCodeplug15ScanListElement15linkScanListObjEP8ScanListRN8Codeplug7ContextERK10ErrorStack
libdmrconf.so.0:_ZN16DR1801UVCodeplug15ScanListElement16setRevertChannelENS0_13RevertChannelE
libdmrconf.so.0:_ZN16DR1801UVCodeplug15ScanListElement19setPriorityChannel1ENS0_15PriorityChannelE
libdmrconf.so.0:_ZN16DR1801UVCodeplug15ScanListElement19setPriorityChannel2ENS0_15PriorityChannelE
libdmrconf.so.0:_ZN16DR1801UVCodeplug15ScanListElement21setRevertChannelIndexEj
libdmrconf.so.0:_ZN16DR1801UVCodeplug15ScanListElement24setPriorityChannel1IndexEj
libdmrconf.so.0:_ZN16DR1801UVCodeplug15ScanListElement24setPriorityChannel2IndexEj
libdmrconf.so.0:_ZN16DR1801UVCodeplug15ScanListElement5clearEv
libdmrconf.so.0:_ZN16DR1801UVCodeplug15ScanListElement6encodeEP8ScanListRN8Codeplug7ContextERK10ErrorStack
libdmrconf.so.0:_ZN16DR1801UVCodeplug15ScanListElement7setNameERK7QString
libdmrconf.so.0:_ZN16DR1801UVCodeplug15ScanListElement8setIndexEj
libdmrconf.so.0:_ZN16DR1801UVCodeplug15ScanListElementC1EPh
libdmrconf.so.0:_ZN16DR1801UVCodeplug15ScanListElementC1EPhm
libdmrconf.so.0:_ZN16DR1801UVCodeplug15ScanListElementC2EPh
libdmrconf.so.0:_ZN16DR1801UVCodeplug15ScanListElementC2EPhm
libdmrconf.so.0:_ZN16DR1801UVCodeplug15SettingsElement10fromConfigEP6ConfigRK10ErrorStack
libdmrconf.so.0:_ZN16DR1801UVCodeplug15SettingsElement11setLanguageENS0_8LanguageE
libdmrconf.so.0:_ZN16DR1801UVCodeplug15SettingsElement11setRingToneENS0_8RingToneE
libdmrconf.so.0:_ZN16DR1801UVCodeplug15SettingsElement11setScanModeENS0_8ScanModeE
libdmrconf.so.0:_ZN16DR1801UVCodeplug15SettingsElement11setVOXDelayEj
libdmrconf.so.0:_ZN16DR1801UVCodeplug15SettingsElement12setBootLine1ERK7QString
libdmrconf.so.0:_ZN16DR1801UVCodeplug15SettingsElement12setBootLine2ERK7QString
libdmrconf.so.0:_ZN16DR1801UVCodeplug15SettingsElement12setRadioNameERK7QString
libdmrconf.so.0:_ZN16DR1801UVCodeplug15SettingsElement12updateConfigEP6ConfigRK10ErrorStack
libdmrconf.so.0:_ZN16DR1801UVCodeplug15SettingsElement13enableKeyLockEb
libdmrconf.so.0:_ZN16DR1801UVCodeplug15SettingsElement13enableLockPTTEb
libdmrconf.so.0:_ZN16DR1801UVCodeplug15SettingsElement13setBootScreenENS0_10BootScreenE
libdmrconf.so.0:_ZN16DR1801UVCodeplug15SettingsElement14setDisplayModeENS0_11DisplayModeE
libdmrconf.so.0:_ZN16DR1801UVCodeplug15SettingsElement14setSquelchModeENS0_11SquelchModeE
libdmrconf.so.0:_ZN16DR1801UVCodeplug15SettingsElement15setBootPasswordERK7QString
libdmrconf.so.0:_ZN16DR1801UVCodeplug15SettingsElement15setKeyLockDelayEj
libdmrconf.so.0:_ZN16DR1801UVCodeplug15SettingsElement15setProgPasswordERK7QString
libdmrconf.so.0:_ZN16DR1801UVCodeplug15SettingsElement15setTuningModeUpENS0_10TuningModeE
libdmrconf.so.0:_ZN16DR1801UVCodeplug15SettingsElement16enableCampandingEb
libdmrconf.so.0:_ZN16DR1801UVCodeplug15SettingsElement16enableEncryptionEb
libdmrconf.so.0:_ZN16DR1801UVCodeplug15SettingsElement16enableRogerTonesEb
libdmrconf.so.0:_ZN16DR1801UVCodeplug15SettingsElement16setBacklightTimeENS0_13BacklightTimeE
libdmrconf.so.0:_ZN16DR1801UVCodeplug15SettingsElement16setDualWatchModeENS0_13DualWatchModeE
libdmrconf.so.0:_ZN16DR1801UVCodeplug15SettingsElement16setPowerSaveModeENS0_13PowerSaveModeE
libdmrconf.so.0:_ZN16DR1801UVCodeplug15SettingsElement17clearBootPasswordEv
libdmrconf.so.0:_ZN16DR1801UVCodeplug15SettingsElement17clearProgPasswordEv
libdmrconf.so.0:_ZN16DR1801UVCodeplug15SettingsElement17enableMessageToneEb
libdmrconf.so.0:_ZN16DR1801UVCodeplug15SettingsElement17setTuningModeDownENS0_10TuningModeE
libdmrconf.so.0:_ZN16DR1801UVCodeplug15SettingsElement17setVOXSensitivityEj
libdmrconf.so.0:_ZN16DR1801UVCodeplug15SettingsElement18enableLockSideKey1Eb
libdmrconf.so.0:_ZN16DR1801UVCodeplug15SettingsElement18enableLockSideKey2Eb
libdmrconf.so.0:_ZN16DR1801UVCodeplug15SettingsElement19enableFMCallOutToneEb
libdmrconf.so.0:_ZN16DR1801UVCodeplug15SettingsElement20enableDMRCallEndToneEb
libdmrconf.so.0:_ZN16DR1801UVCodeplug15SettingsElement20enableDMRCallOutToneEb
libdmrconf.so.0:_ZN16DR1801UVCodeplug15SettingsElement20enableFMVoiceEndToneEb
libdmrconf.so.0:_ZN16DR1801UVCodeplug15SettingsElement21enableDMRVoiceEndToneEb
libdmrconf.so.0:_ZN16DR1801UVCodeplug15SettingsElement24setReverseBurstFrequencyEf
libdmrconf.so.0:_ZN16DR1801UVCodeplug15SettingsElement25setLoneWorkerReminderTimeEj
libdmrconf.so.0:_ZN16DR1801UVCodeplug15SettingsElement25setLoneWorkerResponseTimeEj
libdmrconf.so.0:_ZN16DR1801UVCodeplug15SettingsElement5clearEv
libdmrconf.so.0:_ZN16DR1801UVCodeplug15SettingsElement8setDMRIDEj
libdmrconf.so.0:_ZN16DR1801UVCodeplug15SettingsElement9enableLEDEb
libdmrconf.so.0:_ZN16DR1801UVCodeplug15SettingsElementC1EPh
libdmrconf.so.0:_ZN16DR1801UVCodeplug15SettingsElementC1EPhm
libdmrconf.so.0:_ZN16DR1801UVCodeplug15SettingsElementC2EPh
libdmrconf.so.0:_ZN16DR1801UVCodeplug15SettingsElementC2EPhm
libdmrconf.so.0:_ZN16DR1801UVCodeplug15ZoneBankElement12setZoneCountEj
libdmrconf.so.0:_ZN16DR1801UVCodeplug15ZoneBankElement14setUpZoneIndexEj
libdmrconf.so.0:_ZN16DR1801UVCodeplug15ZoneBankElement16setDownZoneIndexEj
libdmrconf.so.0:_ZN16DR1801UVCodeplug15ZoneBankElement5clearEv
libdmrconf.so.0:_ZN16DR1801UVCodeplug15ZoneBankElement6encodeERN8Codeplug7ContextERK10ErrorStack
libdmrconf.so.0:_ZN16DR1801UVCodeplug15ZoneBankElementC1EPh
libdmrconf.so.0:_ZN16DR1801UVCodeplug15ZoneBankElementC1EPhm
libdmrconf.so.0:_ZN16DR1801UVCodeplug15ZoneBankElementC2EPh
libdmrconf.so.0:_ZN16DR1801UVCodeplug15ZoneBankElementC2EPhm
libdmrconf.so.0:_ZN16DR1801UVCodeplug16GroupListElement14setMemberIndexEjj
libdmrconf.so.0:_ZN16DR1801UVCodeplug16GroupListElement16clearMemberIndexEj
libdmrconf.so.0:_ZN16DR1801UVCodeplug16GroupListElement5clearEv
libdmrconf.so.0:_ZN16DR1801UVCodeplug16GroupListElement6encodeEP11RXGroupListRN8Codeplug7ContextERK10ErrorStack
libdmrconf.so.0:_ZN16DR1801UVCodeplug16GroupListElement8setCountEj
libdmrconf.so.0:_ZN16DR1801UVCodeplug16GroupListElement8setIndexEj
libdmrconf.so.0:_ZN16DR1801UVCodeplug16GroupListElementC1EPh
libdmrconf.so.0:_ZN16DR1801UVCodeplug16GroupListElementC1EPhm
libdmrconf.so.0:_ZN16DR1801UVCodeplug16GroupListElementC2EPh
libdmrconf.so.0:_ZN16DR1801UVCodeplug16GroupListElementC2EPhm
libdmrconf.so.0:_ZN16DR1801UVCodeplug16PTTIDBankElement13setPTTIDCountEj
libdmrconf.so.0:_ZN16DR1801UVCodeplug16PTTIDBankElement5clearEv
libdmrconf.so.0:_ZN16DR1801UVCodeplug16PTTIDBankElement5pttIDEj
libdmrconf.so.0:_ZN16DR1801UVCodeplug16PTTIDBankElementC1EPh
libdmrconf.so.0:_ZN16DR1801UVCodeplug16PTTIDBankElementC1EPhm
libdmrconf.so.0:_ZN16DR1801UVCodeplug16PTTIDBankElementC2EPh
libdmrconf.so.0:_ZN16DR1801UVCodeplug16PTTIDBankElementC2EPhm
libdmrconf.so.0:_ZN16DR1801UVCodeplug17DTMFIDBankElement10setIDCountEj
libdmrconf.so.0:_ZN16DR1801UVCodeplug17DTMFIDBankElement5clearEv
libdmrconf.so.0:_ZN16DR1801UVCodeplug17DTMFIDBankElementC1EPh
libdmrconf.so.0:_ZN16DR1801UVCodeplug17DTMFIDBankElementC1EPhm
libdmrconf.so.0:_ZN16DR1801UVCodeplug17DTMFIDBankElementC2EPh
libdmrconf.so.0:_ZN16DR1801UVCodeplug17DTMFIDBankElementC2EPhm
libdmrconf.so.0:_ZN16DR1801UVCodeplug17DTMFSystemElement10setPreTimeEj
libdmrconf.so.0:_ZN16DR1801UVCodeplug17DTMFSystemElement12setResetTimeEj
libdmrconf.so.0:_ZN16DR1801UVCodeplug17DTMFSystemElement14enableSideToneEb
libdmrconf.so.0:_ZN16DR1801UVCodeplug17DTMFSystemElement15setCodeDurationEj
libdmrconf.so.0:_ZN16DR1801UVCodeplug17DTMFSystemElement15setCodeItervallEj
libdmrconf.so.0:_ZN16DR1801UVCodeplug17DTMFSystemElement5clearEv
libdmrconf.so.0:_ZN16DR1801UVCodeplug17DTMFSystemElementC1EPh
libdmrconf.so.0:_ZN16DR1801UVCodeplug17DTMFSystemElementC1EPhm
libdmrconf.so.0:_ZN16DR1801UVCodeplug17DTMFSystemElementC2EPh
libdmrconf.so.0:_ZN16DR1801UVCodeplug17DTMFSystemElementC2EPhm
libdmrconf.so.0:_ZN16DR1801UVCodeplug18AlarmSystemElement10clearIndexEv
libdmrconf.so.0:_ZN16DR1801UVCodeplug18AlarmSystemElement11enableAlarmEb
libdmrconf.so.0:_ZN16DR1801UVCodeplug18AlarmSystemElement17clearAlarmChannelEv
libdmrconf.so.0:_ZN16DR1801UVCodeplug18AlarmSystemElement20setAlarmChannelIndexEj
libdmrconf.so.0:_ZN16DR1801UVCodeplug18AlarmSystemElement23setAlarmChannelSelectedEv
libdmrconf.so.0:_ZN16DR1801UVCodeplug18AlarmSystemElement5clearEv
libdmrconf.so.0:_ZN16DR1801UVCodeplug18AlarmSystemElement7setNameERK7QString
libdmrconf.so.0:_ZN16DR1801UVCodeplug18AlarmSystemElement8setIndexEj
libdmrconf.so.0:_ZN16DR1801UVCodeplug18AlarmSystemElementC1EPh
libdmrconf.so.0:_ZN16DR1801UVCodeplug18AlarmSystemElementC1EPhm
libdmrconf.so.0:_ZN16DR1801UVCodeplug18AlarmSystemElementC2EPh
libdmrconf.so.0:_ZN16DR1801UVCodeplug18AlarmSystemElementC2EPhm
libdmrconf.so.0:_ZN16DR1801UVCodeplug18ChannelBankElement14setChannelNameEjRK7QString
libdmrconf.so.0:_ZN16DR1801UVCodeplug18ChannelBankElement15setChannelCountEj
libdmrconf.so.0:_ZN16DR1801UVCodeplug18ChannelBankElement5clearEv
libdmrconf.so.0:_ZN16DR1801UVCodeplug18ChannelBankElement6encodeERN8Codeplug7ContextERK10ErrorStack
libdmrconf.so.0:_ZN16DR1801UVCodeplug18ChannelBankElementC1EPh
libdmrconf.so.0:_ZN16DR1801UVCodeplug18ChannelBankElementC1EPhm
libdmrconf.so.0:_ZN16DR1801UVCodeplug18ChannelBankElementC2EPh
libdmrconf.so.0:_ZN16DR1801UVCodeplug18ChannelBankElementC2EPhm
libdmrconf.so.0:_ZN16DR1801UVCodeplug18ContactBankElement13setFirstIndexEj
libdmrconf.so.0:_ZN16DR1801UVCodeplug18ContactBankElement15setContactCountEj
libdmrconf.so.0:_ZN16DR1801UVCodeplug18ContactBankElement5clearEv
libdmrconf.so.0:_ZN16DR1801UVCodeplug18ContactBankElement6encodeERN8Codeplug7ContextERK10ErrorStack
libdmrconf.so.0:_ZN16DR1801UVCodeplug18ContactBankElementC1EPh
libdmrconf.so.0:_ZN16DR1801UVCodeplug18ContactBankElementC1EPhm
libdmrconf.so.0:_ZN16DR1801UVCodeplug18ContactBankElementC2EPh
libdmrconf.so.0:_ZN16DR1801UVCodeplug18ContactBankElementC2EPhm
libdmrconf.so.0:_ZN16DR1801UVCodeplug18DMRSettingsElement10setPreSendEj
libdmrconf.so.0:_ZN16DR1801UVCodeplug18DMRSettingsElement11setHoldTimeEj
libdmrconf.so.0:_ZN16DR1801UVCodeplug18DMRSettingsElement12setSMSFormatENS0_9SMSFormatE
libdmrconf.so.0:_ZN16DR1801UVCodeplug18DMRSettingsElement12setVoiceHeadEj
libdmrconf.so.0:_ZN16DR1801UVCodeplug18DMRSettingsElement13enableKillDecEb
libdmrconf.so.0:_ZN16DR1801UVCodeplug18DMRSettingsElement13enableKillEncEb
libdmrconf.so.0:_ZN16DR1801UVCodeplug18DMRSettingsElement13setActiveWaitEj
libdmrconf.so.0:_ZN16DR1801UVCodeplug18DMRSettingsElement14enableCheckDecEb
libdmrconf.so.0:_ZN16DR1801UVCodeplug18DMRSettingsElement14enableCheckEncEb
libdmrconf.so.0:_ZN16DR1801UVCodeplug18DMRSettingsElement15enableActiveDecEb
libdmrconf.so.0:_ZN16DR1801UVCodeplug18DMRSettingsElement15enableActiveEncEb
libdmrconf.so.0:_ZN16DR1801UVCodeplug18DMRSettingsElement15setActiveResendEj
libdmrconf.so.0:_ZN16DR1801UVCodeplug18DMRSettingsElement15setRemoteListenEj
libdmrconf.so.0:_ZN16DR1801UVCodeplug18DMRSettingsElement18enableCallAlterDecEb
libdmrconf.so.0:_ZN16DR1801UVCodeplug18DMRSettingsElement18enableCallAlterEncEb
libdmrconf.so.0:_ZN16DR1801UVCodeplug18DMRSettingsElement22enableRemoteMonitorDecEb
libdmrconf.so.0:_ZN16DR1801UVCodeplug18DMRSettingsElement22enableRemoteMonitorEncEb
libdmrconf.so.0:_ZN16DR1801UVCodeplug18DMRSettingsElement5clearEv
libdmrconf.so.0:_ZN16DR1801UVCodeplug18DMRSettingsElement6encodeERN8Codeplug7ContextERK10ErrorStack
libdmrconf.so.0:_ZN16DR1801UVCodeplug18DMRSettingsElementC1EPh
libdmrconf.so.0:_ZN16DR1801UVCodeplug18DMRSettingsElementC1EPhm
libdmrconf.so.0:_ZN16DR1801UVCodeplug18DMRSettingsElementC2EPh
libdmrconf.so.0:_ZN16DR1801UVCodeplug18DMRSettingsElementC2EPhm
libdmrconf.so.0:_ZN16DR1801UVCodeplug18KeySettingsElement13setTopKeyLongENS0_8FunctionE
libdmrconf.so.0:_ZN16DR1801UVCodeplug18KeySettingsElement14setTopKeyShortENS0_8FunctionE
libdmrconf.so.0:_ZN16DR1801UVCodeplug18KeySettingsElement15setSideKey1LongENS0_8FunctionE
libdmrconf.so.0:_ZN16DR1801UVCodeplug18KeySettingsElement15setSideKey2LongENS0_8FunctionE
libdmrconf.so.0:_ZN16DR1801UVCodeplug18KeySettingsElement16setSideKey1ShortENS0_8FunctionE
libdmrconf.so.0:_ZN16DR1801UVCodeplug18KeySettingsElement16setSideKey2ShortENS0_8FunctionE
libdmrconf.so.0:_ZN16DR1801UVCodeplug18KeySettingsElement5clearEv
libdmrconf.so.0:_ZN16DR1801UVCodeplug18KeySettingsElementC1EPh
libdmrconf.so.0:_ZN16DR1801UVCodeplug18KeySettingsElementC1EPhm
libdmrconf.so.0:_ZN16DR1801UVCodeplug18KeySettingsElementC2EPh
libdmrconf.so.0:_ZN16DR1801UVCodeplug18KeySettingsElementC2EPhm
libdmrconf.so.0:_ZN16DR1801UVCodeplug18MessageBankElement15setMessageCountEj
libdmrconf.so.0:_ZN16DR1801UVCodeplug18MessageBankElement5clearEv
libdmrconf.so.0:_ZN16DR1801UVCodeplug18MessageBankElement6encodeERN8Codeplug7ContextERK10ErrorStack
libdmrconf.so.0:_ZN16DR1801UVCodeplug18MessageBankElementC1EPh
libdmrconf.so.0:_ZN16DR1801UVCodeplug18MessageBankElementC1EPhm
libdmrconf.so.0:_ZN16DR1801UVCodeplug18MessageBankElementC2EPh
libdmrconf.so.0:_ZN16DR1801UVCodeplug18MessageBankElementC2EPhm
libdmrconf.so.0:_ZN16DR1801UVCodeplug19DTMFSettingsElement10setRadioIDERK7QString
libdmrconf.so.0:_ZN16DR1801UVCodeplug19DTMFSettingsElement11setKillCodeERK7QString
libdmrconf.so.0:_ZN16DR1801UVCodeplug19DTMFSettingsElement11setKillTypeENS0_4KillE
libdmrconf.so.0:_ZN16DR1801UVCodeplug19DTMFSettingsElement11setResponseENS0_8ResponseE
libdmrconf.so.0:_ZN16DR1801UVCodeplug19DTMFSettingsElement11setWakeCodeERK7QString
libdmrconf.so.0:_ZN16DR1801UVCodeplug19DTMFSettingsElement12setDelimiterENS0_9NonNumberE
libdmrconf.so.0:_ZN16DR1801UVCodeplug19DTMFSettingsElement12setGroupCodeENS0_9NonNumberE
libdmrconf.so.0:_ZN16DR1801UVCodeplug19DTMFSettingsElement14enableKillWakeEb
libdmrconf.so.0:_ZN16DR1801UVCodeplug19DTMFSettingsElement16setAutoResetTimeEj
libdmrconf.so.0:_ZN16DR1801UVCodeplug19DTMFSettingsElement5clearEv
libdmrconf.so.0:_ZN16DR1801UVCodeplug19DTMFSettingsElementC1EPh
libdmrconf.so.0:_ZN16DR1801UVCodeplug19DTMFSettingsElementC1EPhm
libdmrconf.so.0:_ZN16DR1801UVCodeplug19DTMFSettingsElementC2EPh
libdmrconf.so.0:_ZN16DR1801UVCodeplug19DTMFSettingsElementC2EPhm
libdmrconf.so.0:_ZN16DR1801UVCodeplug19ScanListBankElement16setScanListCountEj
libdmrconf.so.0:_ZN16DR1801UVCodeplug19ScanListBankElement5clearEv
libdmrconf.so.0:_ZN16DR1801UVCodeplug19ScanListBankElement6encodeERN8Codeplug7ContextERK10ErrorStack
libdmrconf.so.0:_ZN16DR1801UVCodeplug19ScanListBankElementC1EPh
libdmrconf.so.0:_ZN16DR1801UVCodeplug19ScanListBankElementC1EPhm
libdmrconf.so.0:_ZN16DR1801UVCodeplug19ScanListBankElementC2EPh
libdmrconf.so.0:_ZN16DR1801UVCodeplug19ScanListBankElementC2EPhm
libdmrconf.so.0:_ZN16DR1801UVCodeplug20EncryptionKeyElement10linkKeyObjEP13EncryptionKeyRN8Codeplug7ContextERK10ErrorStack
libdmrconf.so.0:_ZN16DR1801UVCodeplug20EncryptionKeyElement5clearEv
libdmrconf.so.0:_ZN16DR1801UVCodeplug20EncryptionKeyElement6encodeEP13EncryptionKeyRN8Codeplug7ContextERK10ErrorStack
libdmrconf.so.0:_ZN16DR1801UVCodeplug20EncryptionKeyElement6setKeyERK7QString
libdmrconf.so.0:_ZN16DR1801UVCodeplug20EncryptionKeyElement8setIndexEj
libdmrconf.so.0:_ZN16DR1801UVCodeplug20EncryptionKeyElement8toKeyObjERN8Codeplug7ContextERK10ErrorStack
libdmrconf.so.0:_ZN16DR1801UVCodeplug20EncryptionKeyElementC1EPh
libdmrconf.so.0:_ZN16DR1801UVCodeplug20EncryptionKeyElementC1EPhm
libdmrconf.so.0:_ZN16DR1801UVCodeplug20EncryptionKeyElementC2EPh
libdmrconf.so.0:_ZN16DR1801UVCodeplug20EncryptionKeyElementC2EPhm
libdmrconf.so.0:_ZN16DR1801UVCodeplug20GroupListBankElement17setGroupListCountEj
libdmrconf.so.0:_ZN16DR1801UVCodeplug20GroupListBankElement5clearEv
libdmrconf.so.0:_ZN16DR1801UVCodeplug20GroupListBankElement6encodeERN8Codeplug7ContextERK10ErrorStack
libdmrconf.so.0:_ZN16DR1801UVCodeplug20GroupListBankElementC1EPh
libdmrconf.so.0:_ZN16DR1801UVCodeplug20GroupListBankElementC1EPhm
libdmrconf.so.0:_ZN16DR1801UVCodeplug20GroupListBankElementC2EPh
libdmrconf.so.0:_ZN16DR1801UVCodeplug20GroupListBankElementC2EPhm
libdmrconf.so.0:_ZN16DR1801UVCodeplug21DTMFSystemBankElement14setSystemCountEj
libdmrconf.so.0:_ZN16DR1801UVCodeplug21DTMFSystemBankElement5clearEv
libdmrconf.so.0:_ZN16DR1801UVCodeplug21DTMFSystemBankElementC1EPh
libdmrconf.so.0:_ZN16DR1801UVCodeplug21DTMFSystemBankElementC1EPhm
libdmrconf.so.0:_ZN16DR1801UVCodeplug21DTMFSystemBankElementC2EPh
libdmrconf.so.0:_ZN16DR1801UVCodeplug21DTMFSystemBankElementC2EPhm
libdmrconf.so.0:_ZN16DR1801UVCodeplug22AlarmSystemBankElement19setAlarmSystemCountEj
libdmrconf.so.0:_ZN16DR1801UVCodeplug22AlarmSystemBankElement5clearEv
libdmrconf.so.0:_ZN16DR1801UVCodeplug22AlarmSystemBankElementC1EPh
libdmrconf.so.0:_ZN16DR1801UVCodeplug22AlarmSystemBankElementC1EPhm
libdmrconf.so.0:_ZN16DR1801UVCodeplug22AlarmSystemBankElementC2EPh
libdmrconf.so.0:_ZN16DR1801UVCodeplug22AlarmSystemBankElementC2EPhm
libdmrconf.so.0:_ZN16DR1801UVCodeplug22OneTouchSettingElement12clearContactEv
libdmrconf.so.0:_ZN16DR1801UVCodeplug22OneTouchSettingElement12clearMessageEv
libdmrconf.so.0:_ZN16DR1801UVCodeplug22OneTouchSettingElement14setDTMFIDIndexEj
libdmrconf.so.0:_ZN16DR1801UVCodeplug22OneTouchSettingElement15setContactIndexEj
libdmrconf.so.0:_ZN16DR1801UVCodeplug22OneTouchSettingElement15setMessageIndexEj
libdmrconf.so.0:_ZN16DR1801UVCodeplug22OneTouchSettingElement16clearDTMFIDIndexEv
libdmrconf.so.0:_ZN16DR1801UVCodeplug22OneTouchSettingElement5clearEv
libdmrconf.so.0:_ZN16DR1801UVCodeplug22OneTouchSettingElement7setTypeENS0_4TypeE
libdmrconf.so.0:_ZN16DR1801UVCodeplug22OneTouchSettingElement9setActionENS0_6ActionE
libdmrconf.so.0:_ZN16DR1801UVCodeplug22OneTouchSettingElementC1EPh
libdmrconf.so.0:_ZN16DR1801UVCodeplug22OneTouchSettingElementC1EPhm
libdmrconf.so.0:_ZN16DR1801UVCodeplug22OneTouchSettingElementC2EPh
libdmrconf.so.0:_ZN16DR1801UVCodeplug22OneTouchSettingElementC2EPhm
libdmrconf.so.0:_ZN16DR1801UVCodeplug23OneTouchSettingsElement5clearEv
libdmrconf.so.0:_ZN16DR1801UVCodeplug23OneTouchSettingsElementC1EPh
libdmrconf.so.0:_ZN16DR1801UVCodeplug23OneTouchSettingsElementC1EPhm
libdmrconf.so.0:_ZN16DR1801UVCodeplug23OneTouchSettingsElementC2EPh
libdmrconf.so.0:_ZN16DR1801UVCodeplug23OneTouchSettingsElementC2EPhm
libdmrconf.so.0:_ZN16DR1801UVCodeplug24EncryptionKeyBankElement5clearEv
libdmrconf.so.0:_ZN16DR1801UVCodeplug24EncryptionKeyBankElement6encodeERN8Codeplug7ContextERK10ErrorStack
libdmrconf.so.0:_ZN16DR1801UVCodeplug24EncryptionKeyBankElementC1EPh
libdmrconf.so.0:_ZN16DR1801UVCodeplug24EncryptionKeyBankElementC1EPhm
libdmrconf.so.0:_ZN16DR1801UVCodeplug24EncryptionKeyBankElementC2EPh
libdmrconf.so.0:_ZN16DR1801UVCodeplug24EncryptionKeyBankElementC2EPhm
libdmrconf.so.0:_ZN16DR1801UVCodeplug6decodeEP6ConfigRK10ErrorStack
libdmrconf.so.0:_ZN16DR1801UVCodeplug6encodeEP6ConfigRKN8Codeplug5FlagsERK10ErrorStack
libdmrconf.so.0:_ZN16DR1801UVCodeplugC1EP7QObject
libdmrconf.so.0:_ZN16DR1801UVCodeplugC2EP7QObject
libdmrconf.so.0:_ZN16MD2017CallsignDB11qt_metacallEN11QMetaObject4CallEiPPv
libdmrconf.so.0:_ZN16MD2017CallsignDB11qt_metacastEPKc
libdmrconf.so.0:_ZN16MD2017CallsignDBC1EP7QObject
libdmrconf.so.0:_ZN16MD2017CallsignDBC2EP7QObject
libdmrconf.so.0:_ZN16MD2017CallsignDBD0Ev
libdmrconf.so.0:_ZN16MD2017CallsignDBD1Ev
libdmrconf.so.0:_ZN16MD2017CallsignDBD2Ev
libdmrconf.so.0:_ZN16MD2017FileReader4readERK7QStringP14MD2017CodeplugRK10ErrorStack
libdmrconf.so.0:_ZN16OpenGD77Codeplug10clearZonesEv
libdmrconf.so.0:_ZN16OpenGD77Codeplug11ZoneElement12fromZoneObjAEPK4ZoneRN8Codeplug7ContextE
libdmrconf.so.0:_ZN16OpenGD77Codeplug11ZoneElement12fromZoneObjBEPK4ZoneRN8Codeplug7ContextE
libdmrconf.so.0:_ZN16OpenGD77Codeplug11ZoneElement5clearEv
libdmrconf.so.0:_ZN16OpenGD77Codeplug11ZoneElementC1EPh
libdmrconf.so.0:_ZN16OpenGD77Codeplug11ZoneElementC2EPh
libdmrconf.so.0:_ZN16OpenGD77Codeplug11createZonesEP6ConfigRN8Codeplug7ContextERK10ErrorStack
libdmrconf.so.0:_ZN16OpenGD77Codeplug11encodeZonesEP6ConfigRKN8Codeplug5FlagsERNS2_7ContextERK10ErrorStack
libdmrconf.so.0:_ZN16OpenGD77Codeplug11qt_metacallEN11QMetaObject4CallEiPPv
libdmrconf.so.0:_ZN16OpenGD77Codeplug11qt_metacastEPKc
libdmrconf.so.0:_ZN16OpenGD77Codeplug12linkChannelsEP6ConfigRN8Codeplug7ContextERK10ErrorStack
libdmrconf.so.0:_ZN16OpenGD77Codeplug13clearBootTextEv
libdmrconf.so.0:_ZN16OpenGD77Codeplug13clearChannelsEv
libdmrconf.so.0:_ZN16OpenGD77Codeplug13clearContactsEv
libdmrconf.so.0:_ZN16OpenGD77Codeplug13linkScanListsEP6ConfigRN8Codeplug7ContextERK10ErrorStack
libdmrconf.so.0:_ZN16OpenGD77Codeplug14ChannelElement10setRadioIdEj
libdmrconf.so.0:_ZN16OpenGD77Codeplug14ChannelElement10setSquelchEj
libdmrconf.so.0:_ZN16OpenGD77Codeplug14ChannelElement12clearRadioIdEv
libdmrconf.so.0:_ZN16OpenGD77Codeplug14ChannelElement14enableAutoscanEb
libdmrconf.so.0:_ZN16OpenGD77Codeplug14ChannelElement14fromChannelObjEPK7ChannelRN8Codeplug7ContextE
libdmrconf.so.0:_ZN16OpenGD77Codeplug14ChannelElement15setPrivacyGroupEN18RadioddityCodeplug14ChannelElement12PrivacyGroupE
libdmrconf.so.0:_ZN16OpenGD77Codeplug14ChannelElement16enableLoneWorkerEb
libdmrconf.so.0:_ZN16OpenGD77Codeplug14ChannelElement16setExtendedPowerEN24OpenGD77ChannelExtension5PowerE
libdmrconf.so.0:_ZN16OpenGD77Codeplug14ChannelElement17enableScanAllSkipEb
libdmrconf.so.0:_ZN16OpenGD77Codeplug14ChannelElement17setSquelchDefaultEv
libdmrconf.so.0:_ZN16OpenGD77Codeplug14ChannelElement18enableScanZoneSkipEb
libdmrconf.so.0:_ZN16OpenGD77Codeplug14ChannelElement19setRXSignalingIndexEj
libdmrconf.so.0:_ZN16OpenGD77Codeplug14ChannelElement5clearEv
libdmrconf.so.0:_ZN16OpenGD77Codeplug14ChannelElement8setPowerEN7Channel5PowerE
libdmrconf.so.0:_ZN16OpenGD77Codeplug14ChannelElementC1EPh
libdmrconf.so.0:_ZN16OpenGD77Codeplug14ChannelElementC2EPh
libdmrconf.so.0:_ZN16OpenGD77Codeplug14ContactElement11setTimeSlotEN10DMRChannel8TimeSlotE
libdmrconf.so.0:_ZN16OpenGD77Codeplug14ContactElement14fromContactObjEPK10DMRContactRN8Codeplug7ContextE
libdmrconf.so.0:_ZN16OpenGD77Codeplug14ContactElement23disableTimeSlotOverrideEv
libdmrconf.so.0:_ZN16OpenGD77Codeplug14ContactElement5clearEv
libdmrconf.so.0:_ZN16OpenGD77Codeplug14ContactElement9markValidEb
libdmrconf.so.0:_ZN16OpenGD77Codeplug14ContactElementC1EPh
libdmrconf.so.0:_ZN16OpenGD77Codeplug14ContactElementC2EPh
libdmrconf.so.0:_ZN16OpenGD77Codeplug14clearScanListsEv
libdmrconf.so.0:_ZN16OpenGD77Codeplug14createChannelsEP6ConfigRN8Codeplug7ContextERK10ErrorStack
libdmrconf.so.0:_ZN16OpenGD77Codeplug14createContactsEP6ConfigRN8Codeplug7ContextERK10ErrorStack
libdmrconf.so.0:_ZN16OpenGD77Codeplug14decodeBootTextEP6ConfigRN8Codeplug7ContextERK10ErrorStack
libdmrconf.so.0:_ZN16OpenGD77Codeplug14encodeBootTextEP6ConfigRKN8Codeplug5FlagsERNS2_7ContextERK10ErrorStack
libdmrconf.so.0:_ZN16OpenGD77Codeplug14encodeChannelsEP6ConfigRKN8Codeplug5FlagsERNS2_7ContextERK10ErrorStack
libdmrconf.so.0:_ZN16OpenGD77Codeplug14encodeContactsEP6ConfigRKN8Codeplug5FlagsERNS2_7ContextERK10ErrorStack
libdmrconf.so.0:_ZN16OpenGD77Codeplug14linkEncryptionEP6ConfigRN8Codeplug7ContextERK10ErrorStack
libdmrconf.so.0:_ZN16OpenGD77Codeplug14linkGroupListsEP6ConfigRN8Codeplug7ContextERK10ErrorStack
libdmrconf.so.0:_ZN16OpenGD77Codeplug15ZoneBankElementC1EPh
libdmrconf.so.0:_ZN16OpenGD77Codeplug15ZoneBankElementC2EPh
libdmrconf.so.0:_ZN16OpenGD77Codeplug15clearEncryptionEv
libdmrconf.so.0:_ZN16OpenGD77Codeplug15clearGroupListsEv
libdmrconf.so.0:_ZN16OpenGD77Codeplug15createScanListsEP6ConfigRN8Codeplug7ContextERK10ErrorStack
libdmrconf.so.0:_ZN16OpenGD77Codeplug15encodeScanListsEP6ConfigRKN8Codeplug5FlagsERNS2_7ContextERK10ErrorStack
libdmrconf.so.0:_ZN16OpenGD77Codeplug16GroupListElement18fromRXGroupListObjEPK11RXGroupListRN8Codeplug7ContextERK10ErrorStack
libdmrconf.so.0:_ZN16OpenGD77Codeplug16GroupListElementC1EPh
libdmrconf.so.0:_ZN16OpenGD77Codeplug16GroupListElementC1EPhj
libdmrconf.so.0:_ZN16OpenGD77Codeplug16GroupListElementC2EPh
libdmrconf.so.0:_ZN16OpenGD77Codeplug16GroupListElementC2EPhj
libdmrconf.so.0:_ZN16OpenGD77Codeplug16clearVFOSettingsEv
libdmrconf.so.0:_ZN16OpenGD77Codeplug16createEncryptionEP6ConfigRN8Codeplug7ContextERK10ErrorStack
libdmrconf.so.0:_ZN16OpenGD77Codeplug16createGroupListsEP6ConfigRN8Codeplug7ContextERK10ErrorStack
libdmrconf.so.0:_ZN16OpenGD77Codeplug16encodeEncryptionEP6ConfigRKN8Codeplug5FlagsERNS2_7ContextERK10ErrorStack
libdmrconf.so.0:_ZN16OpenGD77Codeplug16encodeGroupListsEP6ConfigRKN8Codeplug5FlagsERNS2_7ContextERK10ErrorStack
libdmrconf.so.0:_ZN16OpenGD77Codeplug17clearBootSettingsEv
libdmrconf.so.0:_ZN16OpenGD77Codeplug17clearDTMFContactsEv
libdmrconf.so.0:_ZN16OpenGD77Codeplug17clearMenuSettingsEv
libdmrconf.so.0:_ZN16OpenGD77Codeplug18createDTMFContactsEP6ConfigRN8Codeplug7ContextERK10ErrorStack
libdmrconf.so.0:_ZN16OpenGD77Codeplug18encodeDTMFContactsEP6ConfigRKN8Codeplug5FlagsERNS2_7ContextERK10ErrorStack
libdmrconf.so.0:_ZN16OpenGD77Codeplug19clearButtonSettingsEv
libdmrconf.so.0:_ZN16OpenGD77Codeplug20clearGeneralSettingsEv
libdmrconf.so.0:_ZN16OpenGD77Codeplug21decodeGeneralSettingsEP6ConfigRN8Codeplug7ContextERK10ErrorStack
libdmrconf.so.0:_ZN16OpenGD77Codeplug21encodeGeneralSettingsEP6ConfigRKN8Codeplug5FlagsERNS2_7ContextERK10ErrorStack
libdmrconf.so.0:_ZN16OpenGD77Codeplug9linkZonesEP6ConfigRN8Codeplug7ContextERK10ErrorStack
libdmrconf.so.0:_ZN16OpenGD77CodeplugC1EP7QObject
libdmrconf.so.0:_ZN16OpenGD77CodeplugC2EP7QObject
libdmrconf.so.0:_ZN16OpenRTXInterface10identifierERK10ErrorStack
libdmrconf.so.0:_ZN16OpenRTXInterface10read_startEjjRK10ErrorStack
libdmrconf.so.0:_ZN16OpenRTXInterface11qt_metacallEN11QMetaObject4CallEiPPv
libdmrconf.so.0:_ZN16OpenRTXInterface11qt_metacastEPKc
libdmrconf.so.0:_ZN16OpenRTXInterface11read_finishERK10ErrorStack
libdmrconf.so.0:_ZN16OpenRTXInterface11write_startEjjRK10ErrorStack
libdmrconf.so.0:_ZN16OpenRTXInterface12write_finishERK10ErrorStack
libdmrconf.so.0:_ZN16OpenRTXInterface4readEjjPhiRK10ErrorStack
libdmrconf.so.0:_ZN16OpenRTXInterface5closeEv
libdmrconf.so.0:_ZN16OpenRTXInterface5writeEjjPhiRK10ErrorStack
libdmrconf.so.0:_ZN16OpenRTXInterface6rebootERK10ErrorStack
libdmrconf.so.0:_ZN16OpenRTXInterfaceC1ERK19USBDeviceDescriptorRK10ErrorStackP7QObject
libdmrconf.so.0:_ZN16OpenRTXInterfaceC2ERK19USBDeviceDescriptorRK10ErrorStackP7QObject
libdmrconf.so.0:_ZN16RadioLimitObjRef11qt_metacallEN11QMetaObject4CallEiPPv
libdmrconf.so.0:_ZN16RadioLimitObjRef11qt_metacastEPKc
libdmrconf.so.0:_ZN16RadioLimitObjRefC1ERK11QMetaObjectbP7QObject
libdmrconf.so.0:_ZN16RadioLimitObjRefC2ERK11QMetaObjectbP7QObject
libdmrconf.so.0:_ZN16RadioLimitObject11qt_metacallEN11QMetaObject4CallEiPPv
libdmrconf.so.0:_ZN16RadioLimitObject11qt_metacastEPKc
libdmrconf.so.0:_ZN16RadioLimitObjectC1EP7QObject
libdmrconf.so.0:_ZN16RadioLimitObjectC1ERKSt16initializer_listISt4pairI7QStringP17RadioLimitElementEEP7QObject
libdmrconf.so.0:_ZN16RadioLimitObjectC2EP7QObject
libdmrconf.so.0:_ZN16RadioLimitObjectC2ERKSt16initializer_listISt4pairI7QStringP17RadioLimitElementEEP7QObject
libdmrconf.so.0:_ZN16RadioLimitString11qt_metacallEN11QMetaObject4CallEiPPv
libdmrconf.so.0:_ZN16RadioLimitString11qt_metacastEPKc
libdmrconf.so.0:_ZN16RadioLimitStringC1EiiNS_8EncodingEP7QObject
libdmrconf.so.0:_ZN16RadioLimitStringC2EiiNS_8EncodingEP7QObject
libdmrconf.so.0:_ZN16StreamLogHandler11qt_metacallEN11QMetaObject4CallEiPPv
libdmrconf.so.0:_ZN16StreamLogHandler11qt_metacastEPKc
libdmrconf.so.0:_ZN16StreamLogHandler11setMinLevelEN10LogMessage5LevelE
libdmrconf.so.0:_ZN16StreamLogHandler6handleERK10LogMessage
libdmrconf.so.0:_ZN16StreamLogHandlerC1ER11QTextStreamN10LogMessage5LevelEbP7QObject
libdmrconf.so.0:_ZN16StreamLogHandlerC2ER11QTextStreamN10LogMessage5LevelEbP7QObject
libdmrconf.so.0:_ZN16ZoneMergeVisitor11processItemEP10ConfigItemRK10ErrorStack
libdmrconf.so.0:_ZN16ZoneMergeVisitor11processListEP24AbstractConfigObjectListRK10ErrorStack
libdmrconf.so.0:_ZN16ZoneMergeVisitorC1Ev
libdmrconf.so.0:_ZN16ZoneMergeVisitorC2Ev
libdmrconf.so.0:_ZN16ZoneSplitVisitor11processItemEP10ConfigItemRK10ErrorStack
libdmrconf.so.0:_ZN16ZoneSplitVisitorC1Ev
libdmrconf.so.0:_ZN16ZoneSplitVisitorC2Ev
libdmrconf.so.0:_ZN17AuctusA6Interface11qt_metacallEN11QMetaObject4CallEiPPv
libdmrconf.so.0:_ZN17AuctusA6Interface11qt_metacastEPKc
libdmrconf.so.0:_ZN17AuctusA6Interface12send_receiveEtPKhhPhRhRK10ErrorStack
libdmrconf.so.0:_ZN17AuctusA6Interface4readEPhxjRK10ErrorStack
libdmrconf.so.0:_ZN17AuctusA6Interface4sendEtPKhhRK10ErrorStack
libdmrconf.so.0:_ZN17AuctusA6Interface7receiveERtPhRhRK10ErrorStack
libdmrconf.so.0:_ZN17AuctusA6InterfaceC1ERK19USBDeviceDescriptorRK10ErrorStackP7QObject
libdmrconf.so.0:_ZN17AuctusA6InterfaceC2ERK19USBDeviceDescriptorRK10ErrorStackP7QObject
libdmrconf.so.0:_ZN17D878UV2CallsignDB11qt_metacallEN11QMetaObject4CallEiPPv
libdmrconf.so.0:_ZN17D878UV2CallsignDB11qt_metacastEPKc
libdmrconf.so.0:_ZN17D878UV2CallsignDB6encodeEP12UserDatabaseRKN10CallsignDB9SelectionERK10ErrorStack
libdmrconf.so.0:_ZN17D878UV2CallsignDBC1EP7QObject
libdmrconf.so.0:_ZN17D878UV2CallsignDBC2EP7QObject
libdmrconf.so.0:_ZN17DMRChannelRefList11qt_metacallEN11QMetaObject4CallEiPPv
libdmrconf.so.0:_ZN17DMRChannelRefList11qt_metacastEPKc
libdmrconf.so.0:_ZN17DMRChannelRefListC1EP7QObject
libdmrconf.so.0:_ZN17DMRChannelRefListC2EP7QObject
libdmrconf.so.0:_ZN17DMRContactRefList11qt_metacallEN11QMetaObject4CallEiPPv
libdmrconf.so.0:_ZN17DMRContactRefList11qt_metacastEPKc
libdmrconf.so.0:_ZN17DMRContactRefListC1EP7QObject
libdmrconf.so.0:_ZN17DMRContactRefListC2EP7QObject
libdmrconf.so.0:_ZN17DR1801UVInterface10identifierERK10ErrorStack
libdmrconf.so.0:_ZN17DR1801UVInterface10read_startEjjRK10ErrorStack
libdmrconf.so.0:_ZN17DR1801UVInterface11qt_metacallEN11QMetaObject4CallEiPPv
libdmrconf.so.0:_ZN17DR1801UVInterface11qt_metacastEPKc
libdmrconf.so.0:_ZN17DR1801UVInterface11read_finishERK10ErrorStack
libdmrconf.so.0:_ZN17DR1801UVInterface11write_startEjjRK10ErrorStack
libdmrconf.so.0:_ZN17DR1801UVInterface12readCodeplugER8CodeplugSt8functionIFvjjEERK10ErrorStack
libdmrconf.so.0:_ZN17DR1801UVInterface12startReadingERK10ErrorStack
libdmrconf.so.0:_ZN17DR1801UVInterface12write_finishERK10ErrorStack
libdmrconf.so.0:_ZN17DR1801UVInterface13getDeviceInfoER7QStringRK10ErrorStack
libdmrconf.so.0:_ZN17DR1801UVInterface13interfaceInfoEv
libdmrconf.so.0:_ZN17DR1801UVInterface13writeCodeplugERK8CodeplugSt8functionIFvjjEERK10ErrorStack
libdmrconf.so.0:_ZN17DR1801UVInterface14prepareReadingEjRNS_19PrepareReadResponseERK10ErrorStack
libdmrconf.so.0:_ZN17DR1801UVInterface14prepareWritingEjjtRK10ErrorStack
libdmrconf.so.0:_ZN17DR1801UVInterface15receiveWriteACKERK10ErrorStack
libdmrconf.so.0:_ZN17DR1801UVInterface18PrepareReadRequest11setBaudrateEj
libdmrconf.so.0:_ZN17DR1801UVInterface18PrepareReadRequestC1Ej
libdmrconf.so.0:_ZN17DR1801UVInterface18PrepareReadRequestC2Ej
libdmrconf.so.0:_ZN17DR1801UVInterface19PrepareWriteRequest9updateCRCEPKhm
libdmrconf.so.0:_ZN17DR1801UVInterface19PrepareWriteRequestC1Ejjt
libdmrconf.so.0:_ZN17DR1801UVInterface19PrepareWriteRequestC2Ejjt
libdmrconf.so.0:_ZN17DR1801UVInterface20enterProgrammingModeERK10ErrorStack
libdmrconf.so.0:_ZN17DR1801UVInterface24checkProgrammingPasswordERK10ErrorStack
libdmrconf.so.0:_ZN17DR1801UVInterface4readEjjPhiRK10ErrorStack
libdmrconf.so.0:_ZN17DR1801UVInterface5writeEjjPhiRK10ErrorStack
libdmrconf.so.0:_ZN17DR1801UVInterface6detectEb
libdmrconf.so.0:_ZN17DR1801UVInterfaceC1ERK19USBDeviceDescriptorRK10ErrorStackP7QObject
libdmrconf.so.0:_ZN17DR1801UVInterfaceC2ERK19USBDeviceDescriptorRK10ErrorStackP7QObject
libdmrconf.so.0:_ZN17OpenGD77Interface10identifierERK10ErrorStack
libdmrconf.so.0:_ZN17OpenGD77Interface10readEEPROMEjPhtRK10ErrorStack
libdmrconf.so.0:_ZN17OpenGD77Interface10read_startEjjRK10ErrorStack
libdmrconf.so.0:_ZN17OpenGD77Interface10writeFlashEjPKhtRK10ErrorStack
libdmrconf.so.0:_ZN17OpenGD77Interface11ReadRequest13initReadFlashEjt
libdmrconf.so.0:_ZN17OpenGD77Interface11ReadRequest14initReadEEPROMEjt
libdmrconf.so.0:_ZN17OpenGD77Interface11ReadRequest20initReadFirmwareInfoEv
libdmrconf.so.0:_ZN17OpenGD77Interface11qt_metacallEN11QMetaObject4CallEiPPv
libdmrconf.so.0:_ZN17OpenGD77Interface11qt_metacastEPKc
libdmrconf.so.0:_ZN17OpenGD77Interface11read_finishERK10ErrorStack
libdmrconf.so.0:_ZN17OpenGD77Interface11sendCommandENS_14CommandRequest6OptionERK10ErrorStack
libdmrconf.so.0:_ZN17OpenGD77Interface11sendDisplayEhhPKchhhRK10ErrorStack
libdmrconf.so.0:_ZN17OpenGD77Interface11writeEEPROMEjPKhtRK10ErrorStack
libdmrconf.so.0:_ZN17OpenGD77Interface11write_startEjjRK10ErrorStack
libdmrconf.so.0:_ZN17OpenGD77Interface12WriteRequest14initWriteFlashEjPKht
libdmrconf.so.0:_ZN17OpenGD77Interface12WriteRequest15initWriteEEPROMEjPKht
libdmrconf.so.0:_ZN17OpenGD77Interface12WriteRequest18initSetFlashSectorEj
libdmrconf.so.0:_ZN17OpenGD77Interface12WriteRequest20initFinishWriteFlashEv
libdmrconf.so.0:_ZN17OpenGD77Interface12write_finishERK10ErrorStack
libdmrconf.so.0:_ZN17OpenGD77Interface13interfaceInfoEv
libdmrconf.so.0:_ZN17OpenGD77Interface13sendRenderCPSERK10ErrorStack
libdmrconf.so.0:_ZN17OpenGD77Interface14CommandRequest11initCommandENS0_6OptionE
libdmrconf.so.0:_ZN17OpenGD77Interface14CommandRequest11initDisplayEhhPKchhh
libdmrconf.so.0:_ZN17OpenGD77Interface14CommandRequest13initRenderCPSEv
libdmrconf.so.0:_ZN17OpenGD77Interface14CommandRequest15initClearScreenEv
libdmrconf.so.0:_ZN17OpenGD77Interface14CommandRequest15initCloseScreenEv
libdmrconf.so.0:_ZN17OpenGD77Interface14CommandRequest17initShowCPSScreenEv
libdmrconf.so.0:_ZN17OpenGD77Interface14setFlashSectorEjRK10ErrorStack
libdmrconf.so.0:_ZN17OpenGD77Interface15sendClearScreenERK10ErrorStack
libdmrconf.so.0:_ZN17OpenGD77Interface15sendCloseScreenERK10ErrorStack
libdmrconf.so.0:_ZN17OpenGD77Interface16finishWriteFlashERK10ErrorStack
libdmrconf.so.0:_ZN17OpenGD77Interface17sendShowCPSScreenERK10ErrorStack
libdmrconf.so.0:_ZN17OpenGD77Interface4readEjjPhiRK10ErrorStack
libdmrconf.so.0:_ZN17OpenGD77Interface5closeEv
libdmrconf.so.0:_ZN17OpenGD77Interface5writeEjjPhiRK10ErrorStack
libdmrconf.so.0:_ZN17OpenGD77Interface6detectEb
libdmrconf.so.0:_ZN17OpenGD77Interface6rebootERK10ErrorStack
libdmrconf.so.0:_ZN17OpenGD77Interface9readFlashEjPhtRK10ErrorStack
libdmrconf.so.0:_ZN17OpenGD77InterfaceC1ERK19USBDeviceDescriptorRK10ErrorStackP7QObject
libdmrconf.so.0:_ZN17OpenGD77InterfaceC2ERK19USBDeviceDescriptorRK10ErrorStackP7QObject
libdmrconf.so.0:_ZN17OpenGD77InterfaceD0Ev
libdmrconf.so.0:_ZN17OpenGD77InterfaceD1Ev
libdmrconf.so.0:_ZN17OpenGD77InterfaceD2Ev
libdmrconf.so.0:_ZN17PositioningSystem11qt_metacallEN11QMetaObject4CallEiPPv
libdmrconf.so.0:_ZN17PositioningSystem11qt_metacastEPKc
libdmrconf.so.0:_ZN17PositioningSystem19onReferenceModifiedEv
libdmrconf.so.0:_ZN17PositioningSystem4linkERKN4YAML4NodeERKN10ConfigItem7ContextERK10ErrorStack
libdmrconf.so.0:_ZN17PositioningSystem5parseERKN4YAML4NodeERN10ConfigItem7ContextERK10ErrorStack
libdmrconf.so.0:_ZN17PositioningSystem8populateERN4YAML4NodeERKN10ConfigItem7ContextERK10ErrorStack
libdmrconf.so.0:_ZN17PositioningSystem9setPeriodEj
libdmrconf.so.0:_ZN17PositioningSystemC1EP7QObject
libdmrconf.so.0:_ZN17PositioningSystemC1ERK7QStringjP7QObject
libdmrconf.so.0:_ZN17PositioningSystemC2EP7QObject
libdmrconf.so.0:_ZN17PositioningSystemC2ERK7QStringjP7QObject
libdmrconf.so.0:_ZN17PositioningSystemD0Ev
libdmrconf.so.0:_ZN17PositioningSystemD1Ev
libdmrconf.so.0:_ZN17PositioningSystemD2Ev
libdmrconf.so.0:_ZN17QtMetaTypePrivate23QMetaTypeFunctionHelperI15USBDeviceHandleLb1EE8DestructEPv
libdmrconf.so.0:_ZN17QtMetaTypePrivate23QMetaTypeFunctionHelperI15USBDeviceHandleLb1EE9ConstructEPvPKv
libdmrconf.so.0:_ZN17QtMetaTypePrivate23QMetaTypeFunctionHelperI8IntervalLb1EE8DestructEPv
libdmrconf.so.0:_ZN17QtMetaTypePrivate23QMetaTypeFunctionHelperI8IntervalLb1EE9ConstructEPvPKv
libdmrconf.so.0:_ZN17QtMetaTypePrivate23QMetaTypeFunctionHelperI9FrequencyLb1EE8DestructEPv
libdmrconf.so.0:_ZN17QtMetaTypePrivate23QMetaTypeFunctionHelperI9FrequencyLb1EE9ConstructEPvPKv
libdmrconf.so.0:_ZN17QtMetaTypePrivate23QMetaTypeFunctionHelperIP10ConfigItemLb1EE8DestructEPv
libdmrconf.so.0:_ZN17QtMetaTypePrivate23QMetaTypeFunctionHelperIP10ConfigItemLb1EE9ConstructEPvPKv
libdmrconf.so.0:_ZN17QtMetaTypePrivate23QMetaTypeFunctionHelperIP11ChannelListLb1EE8DestructEPv
libdmrconf.so.0:_ZN17QtMetaTypePrivate23QMetaTypeFunctionHelperIP11ChannelListLb1EE9ConstructEPvPKv
libdmrconf.so.0:_ZN17QtMetaTypePrivate23QMetaTypeFunctionHelperIP11ContactListLb1EE8DestructEPv
libdmrconf.so.0:_ZN17QtMetaTypePrivate23QMetaTypeFunctionHelperIP11ContactListLb1EE9ConstructEPvPKv
libdmrconf.so.0:_ZN17QtMetaTypePrivate23QMetaTypeFunctionHelperIP11RadioIDListLb1EE8DestructEPv
libdmrconf.so.0:_ZN17QtMetaTypePrivate23QMetaTypeFunctionHelperIP11RadioIDListLb1EE9ConstructEPvPKv
libdmrconf.so.0:_ZN17QtMetaTypePrivate23QMetaTypeFunctionHelperIP12ConfigObjectLb1EE8DestructEPv
libdmrconf.so.0:_ZN17QtMetaTypePrivate23QMetaTypeFunctionHelperIP12ConfigObjectLb1EE9ConstructEPvPKv
libdmrconf.so.0:_ZN17QtMetaTypePrivate23QMetaTypeFunctionHelperIP12RXGroupListsLb1EE8DestructEPv
libdmrconf.so.0:_ZN17QtMetaTypePrivate23QMetaTypeFunctionHelperIP12RXGroupListsLb1EE9ConstructEPvPKv
libdmrconf.so.0:_ZN17QtMetaTypePrivate23QMetaTypeFunctionHelperIP12SMSExtensionLb1EE8DestructEPv
libdmrconf.so.0:_ZN17QtMetaTypePrivate23QMetaTypeFunctionHelperIP12SMSExtensionLb1EE9ConstructEPvPKv
libdmrconf.so.0:_ZN17QtMetaTypePrivate23QMetaTypeFunctionHelperIP12SMSTemplatesLb1EE8DestructEPv
libdmrconf.so.0:_ZN17QtMetaTypePrivate23QMetaTypeFunctionHelperIP12SMSTemplatesLb1EE9ConstructEPvPKv
libdmrconf.so.0:_ZN17QtMetaTypePrivate23QMetaTypeFunctionHelperIP12UserDatabaseLb1EE8DestructEPv
libdmrconf.so.0:_ZN17QtMetaTypePrivate23QMetaTypeFunctionHelperIP12UserDatabaseLb1EE9ConstructEPvPKv
libdmrconf.so.0:_ZN17QtMetaTypePrivate23QMetaTypeFunctionHelperIP13RadioSettingsLb1EE8DestructEPv
libdmrconf.so.0:_ZN17QtMetaTypePrivate23QMetaTypeFunctionHelperIP13RadioSettingsLb1EE9ConstructEPvPKv
libdmrconf.so.0:_ZN17QtMetaTypePrivate23QMetaTypeFunctionHelperIP13ZoneReferenceLb1EE8DestructEPv
libdmrconf.so.0:_ZN17QtMetaTypePrivate23QMetaTypeFunctionHelperIP13ZoneReferenceLb1EE9ConstructEPvPKv
libdmrconf.so.0:_ZN17QtMetaTypePrivate23QMetaTypeFunctionHelperIP14ChannelRefListLb1EE8DestructEPv
libdmrconf.so.0:_ZN17QtMetaTypePrivate23QMetaTypeFunctionHelperIP14ChannelRefListLb1EE9ConstructEPvPKv
libdmrconf.so.0:_ZN17QtMetaTypePrivate23QMetaTypeFunctionHelperIP14EncryptionKeysLb1EE8DestructEPv
libdmrconf.so.0:_ZN17QtMetaTypePrivate23QMetaTypeFunctionHelperIP14EncryptionKeysLb1EE9ConstructEPvPKv
libdmrconf.so.0:_ZN17QtMetaTypePrivate23QMetaTypeFunctionHelperIP15RoamingZoneListLb1EE8DestructEPv
libdmrconf.so.0:_ZN17QtMetaTypePrivate23QMetaTypeFunctionHelperIP15RoamingZoneListLb1EE9ConstructEPvPKv
libdmrconf.so.0:_ZN17QtMetaTypePrivate23QMetaTypeFunctionHelperIP15TyTMenuSettingsLb1EE8DestructEPv
libdmrconf.so.0:_ZN17QtMetaTypePrivate23QMetaTypeFunctionHelperIP15TyTMenuSettingsLb1EE9ConstructEPvPKv
libdmrconf.so.0:_ZN17QtMetaTypePrivate23QMetaTypeFunctionHelperIP16ChannelReferenceLb1EE8DestructEPv
libdmrconf.so.0:_ZN17QtMetaTypePrivate23QMetaTypeFunctionHelperIP16ChannelReferenceLb1EE9ConstructEPvPKv
libdmrconf.so.0:_ZN17QtMetaTypePrivate23QMetaTypeFunctionHelperIP16ConfigObjectListLb1EE8DestructEPv
libdmrconf.so.0:_ZN17QtMetaTypePrivate23QMetaTypeFunctionHelperIP16ConfigObjectListLb1EE9ConstructEPvPKv
libdmrconf.so.0:_ZN17QtMetaTypePrivate23QMetaTypeFunctionHelperIP17DMRContactRefListLb1EE8DestructEPv
libdmrconf.so.0:_ZN17QtMetaTypePrivate23QMetaTypeFunctionHelperIP17DMRContactRefListLb1EE9ConstructEPvPKv
libdmrconf.so.0:_ZN17QtMetaTypePrivate23QMetaTypeFunctionHelperIP17ScanListReferenceLb1EE8DestructEPv
libdmrconf.so.0:_ZN17QtMetaTypePrivate23QMetaTypeFunctionHelperIP17ScanListReferenceLb1EE9ConstructEPvPKv
libdmrconf.so.0:_ZN17QtMetaTypePrivate23QMetaTypeFunctionHelperIP17TyTButtonSettingsLb1EE8DestructEPv
libdmrconf.so.0:_ZN17QtMetaTypePrivate23QMetaTypeFunctionHelperIP17TyTButtonSettingsLb1EE9ConstructEPvPKv
libdmrconf.so.0:_ZN17QtMetaTypePrivate23QMetaTypeFunctionHelperIP18FMChannelReferenceLb1EE8DestructEPv
libdmrconf.so.0:_ZN17QtMetaTypePrivate23QMetaTypeFunctionHelperIP18FMChannelReferenceLb1EE9ConstructEPvPKv
libdmrconf.so.0:_ZN17QtMetaTypePrivate23QMetaTypeFunctionHelperIP18GroupListReferenceLb1EE8DestructEPv
libdmrconf.so.0:_ZN17QtMetaTypePrivate23QMetaTypeFunctionHelperIP18GroupListReferenceLb1EE9ConstructEPvPKv
libdmrconf.so.0:_ZN17QtMetaTypePrivate23QMetaTypeFunctionHelperIP18PositioningSystemsLb1EE8DestructEPv
libdmrconf.so.0:_ZN17QtMetaTypePrivate23QMetaTypeFunctionHelperIP18PositioningSystemsLb1EE9ConstructEPvPKv
libdmrconf.so.0:_ZN17QtMetaTypePrivate23QMetaTypeFunctionHelperIP18RoamingChannelListLb1EE8DestructEPv
libdmrconf.so.0:_ZN17QtMetaTypePrivate23QMetaTypeFunctionHelperIP18RoamingChannelListLb1EE9ConstructEPvPKv
libdmrconf.so.0:_ZN17QtMetaTypePrivate23QMetaTypeFunctionHelperIP18TyTConfigExtensionLb1EE8DestructEPv
libdmrconf.so.0:_ZN17QtMetaTypePrivate23QMetaTypeFunctionHelperIP18TyTConfigExtensionLb1EE9ConstructEPvPKv
libdmrconf.so.0:_ZN17QtMetaTypePrivate23QMetaTypeFunctionHelperIP19APRSSystemReferenceLb1EE8DestructEPv
libdmrconf.so.0:_ZN17QtMetaTypePrivate23QMetaTypeFunctionHelperIP19APRSSystemReferenceLb1EE9ConstructEPvPKv
libdmrconf.so.0:_ZN17QtMetaTypePrivate23QMetaTypeFunctionHelperIP19CommercialExtensionLb1EE8DestructEPv
libdmrconf.so.0:_ZN17QtMetaTypePrivate23QMetaTypeFunctionHelperIP19CommercialExtensionLb1EE9ConstructEPvPKv
libdmrconf.so.0:_ZN17QtMetaTypePrivate23QMetaTypeFunctionHelperIP19ConfigObjectRefListLb1EE8DestructEPv
libdmrconf.so.0:_ZN17QtMetaTypePrivate23QMetaTypeFunctionHelperIP19ConfigObjectRefListLb1EE9ConstructEPvPKv
libdmrconf.so.0:_ZN17QtMetaTypePrivate23QMetaTypeFunctionHelperIP19DMRChannelReferenceLb1EE8DestructEPv
libdmrconf.so.0:_ZN17QtMetaTypePrivate23QMetaTypeFunctionHelperIP19DMRChannelReferenceLb1EE9ConstructEPvPKv
libdmrconf.so.0:_ZN17QtMetaTypePrivate23QMetaTypeFunctionHelperIP19DMRContactReferenceLb1EE8DestructEPv
libdmrconf.so.0:_ZN17QtMetaTypePrivate23QMetaTypeFunctionHelperIP19DMRContactReferenceLb1EE9ConstructEPvPKv
libdmrconf.so.0:_ZN17QtMetaTypePrivate23QMetaTypeFunctionHelperIP19DMRRadioIDReferenceLb1EE8DestructEPv
libdmrconf.so.0:_ZN17QtMetaTypePrivate23QMetaTypeFunctionHelperIP19DMRRadioIDReferenceLb1EE9ConstructEPvPKv
libdmrconf.so.0:_ZN17QtMetaTypePrivate23QMetaTypeFunctionHelperIP19TyTChannelExtensionLb1EE8DestructEPv
libdmrconf.so.0:_ZN17QtMetaTypePrivate23QMetaTypeFunctionHelperIP19TyTChannelExtensionLb1EE9ConstructEPvPKv
libdmrconf.so.0:_ZN17QtMetaTypePrivate23QMetaTypeFunctionHelperIP20AnytoneZoneExtensionLb1EE8DestructEPv
libdmrconf.so.0:_ZN17QtMetaTypePrivate23QMetaTypeFunctionHelperIP20AnytoneZoneExtensionLb1EE9ConstructEPvPKv
libdmrconf.so.0:_ZN17QtMetaTypePrivate23QMetaTypeFunctionHelperIP20RoamingZoneReferenceLb1EE8DestructEPv
libdmrconf.so.0:_ZN17QtMetaTypePrivate23QMetaTypeFunctionHelperIP20RoamingZoneReferenceLb1EE9ConstructEPvPKv
libdmrconf.so.0:_ZN17QtMetaTypePrivate23QMetaTypeFunctionHelperIP20TyTScanListExtensionLb1EE8DestructEPv
libdmrconf.so.0:_ZN17QtMetaTypePrivate23QMetaTypeFunctionHelperIP20TyTScanListExtensionLb1EE9ConstructEPvPKv
libdmrconf.so.0:_ZN17QtMetaTypePrivate23QMetaTypeFunctionHelperIP20TyTSettingsExtensionLb1EE8DestructEPv
libdmrconf.so.0:_ZN17QtMetaTypePrivate23QMetaTypeFunctionHelperIP20TyTSettingsExtensionLb1EE9ConstructEPvPKv
libdmrconf.so.0:_ZN17QtMetaTypePrivate23QMetaTypeFunctionHelperIP21ConfigObjectReferenceLb1EE8DestructEPv
libdmrconf.so.0:_ZN17QtMetaTypePrivate23QMetaTypeFunctionHelperIP21ConfigObjectReferenceLb1EE9ConstructEPvPKv
libdmrconf.so.0:_ZN17QtMetaTypePrivate23QMetaTypeFunctionHelperIP21RoamingChannelRefListLb1EE8DestructEPv
libdmrconf.so.0:_ZN17QtMetaTypePrivate23QMetaTypeFunctionHelperIP21RoamingChannelRefListLb1EE9ConstructEPvPKv
libdmrconf.so.0:_ZN17QtMetaTypePrivate23QMetaTypeFunctionHelperIP22EncryptionKeyReferenceLb1EE8DestructEPv
libdmrconf.so.0:_ZN17QtMetaTypePrivate23QMetaTypeFunctionHelperIP22EncryptionKeyReferenceLb1EE9ConstructEPvPKv
libdmrconf.so.0:_ZN17QtMetaTypePrivate23QMetaTypeFunctionHelperIP23AnytoneAPRSFrequencyRefLb1EE8DestructEPv
libdmrconf.so.0:_ZN17QtMetaTypePrivate23QMetaTypeFunctionHelperIP23AnytoneAPRSFrequencyRefLb1EE9ConstructEPvPKv
libdmrconf.so.0:_ZN17QtMetaTypePrivate23QMetaTypeFunctionHelperIP23AnytoneContactExtensionLb1EE8DestructEPv
libdmrconf.so.0:_ZN17QtMetaTypePrivate23QMetaTypeFunctionHelperIP23AnytoneContactExtensionLb1EE9ConstructEPvPKv
libdmrconf.so.0:_ZN17QtMetaTypePrivate23QMetaTypeFunctionHelperIP24AnytoneAPRSFrequencyListLb1EE8DestructEPv
libdmrconf.so.0:_ZN17QtMetaTypePrivate23QMetaTypeFunctionHelperIP24AnytoneAPRSFrequencyListLb1EE9ConstructEPvPKv
libdmrconf.so.0:_ZN17QtMetaTypePrivate23QMetaTypeFunctionHelperIP24AnytoneSettingsExtensionLb1EE8DestructEPv
libdmrconf.so.0:_ZN17QtMetaTypePrivate23QMetaTypeFunctionHelperIP24AnytoneSettingsExtensionLb1EE9ConstructEPvPKv
libdmrconf.so.0:_ZN17QtMetaTypePrivate23QMetaTypeFunctionHelperIP24OpenGD77ChannelExtensionLb1EE8DestructEPv
libdmrconf.so.0:_ZN17QtMetaTypePrivate23QMetaTypeFunctionHelperIP24OpenGD77ChannelExtensionLb1EE9ConstructEPvPKv
libdmrconf.so.0:_ZN17QtMetaTypePrivate23QMetaTypeFunctionHelperIP24OpenGD77ContactExtensionLb1EE8DestructEPv
libdmrconf.so.0:_ZN17QtMetaTypePrivate23QMetaTypeFunctionHelperIP24OpenGD77ContactExtensionLb1EE9ConstructEPvPKv
libdmrconf.so.0:_ZN17QtMetaTypePrivate23QMetaTypeFunctionHelperIP25AnytoneFMChannelExtensionLb1EE8DestructEPv
libdmrconf.so.0:_ZN17QtMetaTypePrivate23QMetaTypeFunctionHelperIP25AnytoneFMChannelExtensionLb1EE9ConstructEPvPKv
libdmrconf.so.0:_ZN17QtMetaTypePrivate23QMetaTypeFunctionHelperIP26AnytoneDMRChannelExtensionLb1EE8DestructEPv
libdmrconf.so.0:_ZN17QtMetaTypePrivate23QMetaTypeFunctionHelperIP26AnytoneDMRChannelExtensionLb1EE9ConstructEPvPKv
libdmrconf.so.0:_ZN17QtMetaTypePrivate23QMetaTypeFunctionHelperIP26CommercialChannelExtensionLb1EE8DestructEPv
libdmrconf.so.0:_ZN17QtMetaTypePrivate23QMetaTypeFunctionHelperIP26CommercialChannelExtensionLb1EE9ConstructEPvPKv
libdmrconf.so.0:_ZN17QtMetaTypePrivate23QMetaTypeFunctionHelperIP26PositioningSystemReferenceLb1EE8DestructEPv
libdmrconf.so.0:_ZN17QtMetaTypePrivate23QMetaTypeFunctionHelperIP26PositioningSystemReferenceLb1EE9ConstructEPvPKv
libdmrconf.so.0:_ZN17QtMetaTypePrivate23QMetaTypeFunctionHelperIP27AnytoneDMRSettingsExtensionLb1EE8DestructEPv
libdmrconf.so.0:_ZN17QtMetaTypePrivate23QMetaTypeFunctionHelperIP27AnytoneDMRSettingsExtensionLb1EE9ConstructEPvPKv
libdmrconf.so.0:_ZN17QtMetaTypePrivate23QMetaTypeFunctionHelperIP27AnytoneGPSSettingsExtensionLb1EE8DestructEPv
libdmrconf.so.0:_ZN17QtMetaTypePrivate23QMetaTypeFunctionHelperIP27AnytoneGPSSettingsExtensionLb1EE9ConstructEPvPKv
libdmrconf.so.0:_ZN17QtMetaTypePrivate23QMetaTypeFunctionHelperIP27AnytoneKeySettingsExtensionLb1EE8DestructEPv
libdmrconf.so.0:_ZN17QtMetaTypePrivate23QMetaTypeFunctionHelperIP27AnytoneKeySettingsExtensionLb1EE9ConstructEPvPKv
libdmrconf.so.0:_ZN17QtMetaTypePrivate23QMetaTypeFunctionHelperIP27RadiodditySettingsExtensionLb1EE8DestructEPv
libdmrconf.so.0:_ZN17QtMetaTypePrivate23QMetaTypeFunctionHelperIP27RadiodditySettingsExtensionLb1EE9ConstructEPvPKv
libdmrconf.so.0:_ZN17QtMetaTypePrivate23QMetaTypeFunctionHelperIP28AnytoneAutoRepeaterOffsetRefLb1EE8DestructEPv
libdmrconf.so.0:_ZN17QtMetaTypePrivate23QMetaTypeFunctionHelperIP28AnytoneAutoRepeaterOffsetRefLb1EE9ConstructEPvPKv
libdmrconf.so.0:_ZN17QtMetaTypePrivate23QMetaTypeFunctionHelperIP28AnytoneBootSettingsExtensionLb1EE8DestructEPv
libdmrconf.so.0:_ZN17QtMetaTypePrivate23QMetaTypeFunctionHelperIP28AnytoneBootSettingsExtensionLb1EE9ConstructEPvPKv
libdmrconf.so.0:_ZN17QtMetaTypePrivate23QMetaTypeFunctionHelperIP28AnytoneMenuSettingsExtensionLb1EE8DestructEPv
libdmrconf.so.0:_ZN17QtMetaTypePrivate23QMetaTypeFunctionHelperIP28AnytoneMenuSettingsExtensionLb1EE9ConstructEPvPKv
libdmrconf.so.0:_ZN17QtMetaTypePrivate23QMetaTypeFunctionHelperIP28AnytoneToneSettingsExtensionLb1EE8DestructEPv
libdmrconf.so.0:_ZN17QtMetaTypePrivate23QMetaTypeFunctionHelperIP28AnytoneToneSettingsExtensionLb1EE9ConstructEPvPKv
libdmrconf.so.0:_ZN17QtMetaTypePrivate23QMetaTypeFunctionHelperIP29AnytoneAudioSettingsExtensionLb1EE8DestructEPv
libdmrconf.so.0:_ZN17QtMetaTypePrivate23QMetaTypeFunctionHelperIP29AnytoneAudioSettingsExtensionLb1EE9ConstructEPvPKv
libdmrconf.so.0:_ZN17QtMetaTypePrivate23QMetaTypeFunctionHelperIP29AnytoneAutoRepeaterOffsetListLb1EE8DestructEPv
libdmrconf.so.0:_ZN17QtMetaTypePrivate23QMetaTypeFunctionHelperIP29AnytoneAutoRepeaterOffsetListLb1EE9ConstructEPvPKv
libdmrconf.so.0:_ZN17QtMetaTypePrivate23QMetaTypeFunctionHelperIP30AnytoneFMAPRSSettingsExtensionLb1EE8DestructEPv
libdmrconf.so.0:_ZN17QtMetaTypePrivate23QMetaTypeFunctionHelperIP30AnytoneFMAPRSSettingsExtensionLb1EE9ConstructEPvPKv
libdmrconf.so.0:_ZN17QtMetaTypePrivate23QMetaTypeFunctionHelperIP31AnytoneDisplaySettingsExtensionLb1EE8DestructEPv
libdmrconf.so.0:_ZN17QtMetaTypePrivate23QMetaTypeFunctionHelperIP31AnytoneDisplaySettingsExtensionLb1EE9ConstructEPvPKv
libdmrconf.so.0:_ZN17QtMetaTypePrivate23QMetaTypeFunctionHelperIP31AnytoneRoamingSettingsExtensionLb1EE8DestructEPv
libdmrconf.so.0:_ZN17QtMetaTypePrivate23QMetaTypeFunctionHelperIP31AnytoneRoamingSettingsExtensionLb1EE9ConstructEPvPKv
libdmrconf.so.0:_ZN17QtMetaTypePrivate23QMetaTypeFunctionHelperIP31RadioddityBootSettingsExtensionLb1EE8DestructEPv
libdmrconf.so.0:_ZN17QtMetaTypePrivate23QMetaTypeFunctionHelperIP31RadioddityBootSettingsExtensionLb1EE9ConstructEPvPKv
libdmrconf.so.0:_ZN17QtMetaTypePrivate23QMetaTypeFunctionHelperIP31RadioddityToneSettingsExtensionLb1EE8DestructEPv
libdmrconf.so.0:_ZN17QtMetaTypePrivate23QMetaTypeFunctionHelperIP31RadioddityToneSettingsExtensionLb1EE9ConstructEPvPKv
libdmrconf.so.0:_ZN17QtMetaTypePrivate23QMetaTypeFunctionHelperIP33AnytoneBluetoothSettingsExtensionLb1EE8DestructEPv
libdmrconf.so.0:_ZN17QtMetaTypePrivate23QMetaTypeFunctionHelperIP33AnytoneBluetoothSettingsExtensionLb1EE9ConstructEPvPKv
libdmrconf.so.0:_ZN17QtMetaTypePrivate23QMetaTypeFunctionHelperIP33AnytonePowerSaveSettingsExtensionLb1EE8DestructEPv
libdmrconf.so.0:_ZN17QtMetaTypePrivate23QMetaTypeFunctionHelperIP33AnytonePowerSaveSettingsExtensionLb1EE9ConstructEPvPKv
libdmrconf.so.0:_ZN17QtMetaTypePrivate23QMetaTypeFunctionHelperIP33RadioddityButtonSettingsExtensionLb1EE8DestructEPv
libdmrconf.so.0:_ZN17QtMetaTypePrivate23QMetaTypeFunctionHelperIP33RadioddityButtonSettingsExtensionLb1EE9ConstructEPvPKv
libdmrconf.so.0:_ZN17QtMetaTypePrivate23QMetaTypeFunctionHelperIP36AnytoneAutoRepeaterSettingsExtensionLb1EE8DestructEPv
libdmrconf.so.0:_ZN17QtMetaTypePrivate23QMetaTypeFunctionHelperIP36AnytoneAutoRepeaterSettingsExtensionLb1EE9ConstructEPvPKv
libdmrconf.so.0:_ZN17QtMetaTypePrivate23QMetaTypeFunctionHelperIP39AnytoneSimplexRepeaterSettingsExtensionLb1EE8DestructEPv
libdmrconf.so.0:_ZN17QtMetaTypePrivate23QMetaTypeFunctionHelperIP39AnytoneSimplexRepeaterSettingsExtensionLb1EE9ConstructEPvPKv
libdmrconf.so.0:_ZN17QtMetaTypePrivate23QMetaTypeFunctionHelperIP5RadioLb1EE8DestructEPv
libdmrconf.so.0:_ZN17QtMetaTypePrivate23QMetaTypeFunctionHelperIP5RadioLb1EE9ConstructEPvPKv
libdmrconf.so.0:_ZN17QtMetaTypePrivate23QMetaTypeFunctionHelperIP6ConfigLb1EE8DestructEPv
libdmrconf.so.0:_ZN17QtMetaTypePrivate23QMetaTypeFunctionHelperIP6ConfigLb1EE9ConstructEPvPKv
libdmrconf.so.0:_ZN17QtMetaTypePrivate23QMetaTypeFunctionHelperIP6MelodyLb1EE8DestructEPv
libdmrconf.so.0:_ZN17QtMetaTypePrivate23QMetaTypeFunctionHelperIP6MelodyLb1EE9ConstructEPvPKv
libdmrconf.so.0:_ZN17QtMetaTypePrivate23QMetaTypeFunctionHelperIP8CodeplugLb1EE8DestructEPv
libdmrconf.so.0:_ZN17QtMetaTypePrivate23QMetaTypeFunctionHelperIP8CodeplugLb1EE9ConstructEPvPKv
libdmrconf.so.0:_ZN17QtMetaTypePrivate23QMetaTypeFunctionHelperIP8ZoneListLb1EE8DestructEPv
libdmrconf.so.0:_ZN17QtMetaTypePrivate23QMetaTypeFunctionHelperIP8ZoneListLb1EE9ConstructEPvPKv
libdmrconf.so.0:_ZN17QtMetaTypePrivate23QMetaTypeFunctionHelperIP9ScanListsLb1EE8DestructEPv
libdmrconf.so.0:_ZN17QtMetaTypePrivate23QMetaTypeFunctionHelperIP9ScanListsLb1EE9ConstructEPvPKv
libdmrconf.so.0:_ZN17RadioLimitContext10newMessageEN15RadioLimitIssue8SeverityE
libdmrconf.so.0:_ZN17RadioLimitContext27enableIgnoreFrequencyLimitsEb
libdmrconf.so.0:_ZN17RadioLimitContext3popEv
libdmrconf.so.0:_ZN17RadioLimitContext4pushERK7QString
libdmrconf.so.0:_ZN17RadioLimitContextC1Eb
libdmrconf.so.0:_ZN17RadioLimitContextC2Eb
libdmrconf.so.0:_ZN17RadioLimitElement11qt_metacallEN11QMetaObject4CallEiPPv
libdmrconf.so.0:_ZN17RadioLimitElement11qt_metacastEPKc
libdmrconf.so.0:_ZN17RadioLimitElementC1EP7QObject
libdmrconf.so.0:_ZN17RadioLimitElementC2EP7QObject
libdmrconf.so.0:_ZN17RadioLimitElementD0Ev
libdmrconf.so.0:_ZN17RadioLimitElementD1Ev
libdmrconf.so.0:_ZN17RadioLimitElementD2Ev
libdmrconf.so.0:_ZN17RadioLimitIgnored11qt_metacallEN11QMetaObject4CallEiPPv
libdmrconf.so.0:_ZN17RadioLimitIgnored11qt_metacastEPKc
libdmrconf.so.0:_ZN17RadioLimitIgnoredC1EN15RadioLimitIssue8SeverityEP7QObject
libdmrconf.so.0:_ZN17RadioLimitIgnoredC2EN15RadioLimitIssue8SeverityEP7QObject
libdmrconf.so.0:_ZN17RadioLimitObjects11qt_metacallEN11QMetaObject4CallEiPPv
libdmrconf.so.0:_ZN17RadioLimitObjects11qt_metacastEPKc
libdmrconf.so.0:_ZN17RadioLimitObjectsC1ERKSt16initializer_listISt4pairIRK11QMetaObjectP16RadioLimitObjectEEP7QObject
libdmrconf.so.0:_ZN17RadioLimitObjectsC2ERKSt16initializer_listISt4pairIRK11QMetaObjectP16RadioLimitObjectEEP7QObject
libdmrconf.so.0:_ZN17RadioLimitRefList11qt_metacallEN11QMetaObject4CallEiPPv
libdmrconf.so.0:_ZN17RadioLimitRefList11qt_metacastEPKc
libdmrconf.so.0:_ZN17RadioLimitRefListC1EiiRK11QMetaObjectP7QObject
libdmrconf.so.0:_ZN17RadioLimitRefListC2EiiRK11QMetaObjectP7QObject
libdmrconf.so.0:_ZN17ScanListReference11qt_metacallEN11QMetaObject4CallEiPPv
libdmrconf.so.0:_ZN17ScanListReference11qt_metacastEPKc
libdmrconf.so.0:_ZN17ScanListReferenceC1EP7QObject
libdmrconf.so.0:_ZN17ScanListReferenceC2EP7QObject
libdmrconf.so.0:_ZN17TalkGroupDatabase11qt_metacallEN11QMetaObject4CallEiPPv
libdmrconf.so.0:_ZN17TalkGroupDatabase11qt_metacastEPKc
libdmrconf.so.0:_ZN17TalkGroupDatabase16downloadFinishedEP13QNetworkReply
libdmrconf.so.0:_ZN17TalkGroupDatabase4loadERK7QString
libdmrconf.so.0:_ZN17TalkGroupDatabase4loadEv
libdmrconf.so.0:_ZN17TalkGroupDatabase5errorERK7QString
libdmrconf.so.0:_ZN17TalkGroupDatabase6loadedEv
libdmrconf.so.0:_ZN17TalkGroupDatabase8downloadEv
libdmrconf.so.0:_ZN17TalkGroupDatabase9TalkGroupC1ERK7QStringj
libdmrconf.so.0:_ZN17TalkGroupDatabase9TalkGroupC1Ev
libdmrconf.so.0:_ZN17TalkGroupDatabase9TalkGroupC2ERK7QStringj
libdmrconf.so.0:_ZN17TalkGroupDatabase9TalkGroupC2Ev
libdmrconf.so.0:_ZN17TalkGroupDatabaseC1EjP7QObject
libdmrconf.so.0:_ZN17TalkGroupDatabaseC2EjP7QObject
libdmrconf.so.0:_ZN17TyTButtonSettings11qt_metacallEN11QMetaObject4CallEiPPv
libdmrconf.so.0:_ZN17TyTButtonSettings11qt_metacastEPKc
libdmrconf.so.0:_ZN17TyTButtonSettings18setProgButton1LongENS_12ButtonActionE
libdmrconf.so.0:_ZN17TyTButtonSettings18setProgButton2LongENS_12ButtonActionE
libdmrconf.so.0:_ZN17TyTButtonSettings18setSideButton1LongENS_12ButtonActionE
libdmrconf.so.0:_ZN17TyTButtonSettings18setSideButton2LongENS_12ButtonActionE
libdmrconf.so.0:_ZN17TyTButtonSettings18setSideButton3LongENS_12ButtonActionE
libdmrconf.so.0:_ZN17TyTButtonSettings19setProgButton1ShortENS_12ButtonActionE
libdmrconf.so.0:_ZN17TyTButtonSettings19setProgButton2ShortENS_12ButtonActionE
libdmrconf.so.0:_ZN17TyTButtonSettings19setSideButton1ShortENS_12ButtonActionE
libdmrconf.so.0:_ZN17TyTButtonSettings19setSideButton2ShortENS_12ButtonActionE
libdmrconf.so.0:_ZN17TyTButtonSettings19setSideButton3ShortENS_12ButtonActionE
libdmrconf.so.0:_ZN17TyTButtonSettings20setLongPressDurationEj
libdmrconf.so.0:_ZN17TyTButtonSettingsC1EP7QObject
libdmrconf.so.0:_ZN17TyTButtonSettingsC2EP7QObject
libdmrconf.so.0:_ZN18BasicEncryptionKey11qt_metacallEN11QMetaObject4CallEiPPv
libdmrconf.so.0:_ZN18BasicEncryptionKey11qt_metacastEPKc
libdmrconf.so.0:_ZN18BasicEncryptionKey5parseERKN4YAML4NodeERN10ConfigItem7ContextERK10ErrorStack
libdmrconf.so.0:_ZN18BasicEncryptionKey9serializeERKN10ConfigItem7ContextERK10ErrorStack
libdmrconf.so.0:_ZN18BasicEncryptionKeyC1EP7QObject
libdmrconf.so.0:_ZN18BasicEncryptionKeyC2EP7QObject
libdmrconf.so.0:_ZN18ConfigCloneVisitor10takeResultERK10ErrorStack
libdmrconf.so.0:_ZN18ConfigCloneVisitor11processItemEP10ConfigItemRK10ErrorStack
libdmrconf.so.0:_ZN18ConfigCloneVisitor11processListEP24AbstractConfigObjectListRK10ErrorStack
libdmrconf.so.0:_ZN18ConfigCloneVisitor15processPropertyEP10ConfigItemRK13QMetaPropertyRK10ErrorStack
libdmrconf.so.0:_ZN18ConfigCloneVisitorC1ER5QHashIP12ConfigObjectS2_E
libdmrconf.so.0:_ZN18ConfigCloneVisitorC2ER5QHashIP12ConfigObjectS2_E
libdmrconf.so.0:_ZN18ConfigMergeVisitor11processItemEP10ConfigItemRK10ErrorStack
libdmrconf.so.0:_ZN18ConfigMergeVisitor11processZoneEP4ZoneRK10ErrorStack
libdmrconf.so.0:_ZN18ConfigMergeVisitor12ignoreObjectEP24AbstractConfigObjectListP12ConfigObjectS3_RK10ErrorStack
libdmrconf.so.0:_ZN18ConfigMergeVisitor13replaceObjectEP24AbstractConfigObjectListP12ConfigObjectS3_RK10ErrorStack
libdmrconf.so.0:_ZN18ConfigMergeVisitor14processChannelEP7ChannelRK10ErrorStack
libdmrconf.so.0:_ZN18ConfigMergeVisitor14processContactEP7ContactRK10ErrorStack
libdmrconf.so.0:_ZN18ConfigMergeVisitor14processRadioIDEP7RadioIDRK10ErrorStack
libdmrconf.so.0:_ZN18ConfigMergeVisitor15duplicateObjectEP24AbstractConfigObjectListP12ConfigObjectS3_RK10ErrorStack
libdmrconf.so.0:_ZN18ConfigMergeVisitor15processScanListEP8ScanListRK10ErrorStack
libdmrconf.so.0:_ZN18ConfigMergeVisitor16processGroupListEP11RXGroupListRK10ErrorStack
libdmrconf.so.0:_ZN18ConfigMergeVisitor18processRoamingZoneEP11RoamingZoneRK10ErrorStack
libdmrconf.so.0:_ZN18ConfigMergeVisitor21processRoamingChannelEP14RoamingChannelRK10ErrorStack
libdmrconf.so.0:_ZN18ConfigMergeVisitor24processPositioningSystemEP17PositioningSystemRK10ErrorStack
libdmrconf.so.0:_ZN18ConfigMergeVisitor9addObjectEP24AbstractConfigObjectListP12ConfigObjectS3_RK10ErrorStack
libdmrconf.so.0:_ZN18ConfigMergeVisitor9mergeListEP19ConfigObjectRefListS1_RK10ErrorStack
libdmrconf.so.0:_ZN18ConfigMergeVisitorC1EP6ConfigR5QHashIP12ConfigObjectS4_ENS_12ItemStrategyENS_11SetStrategyE
libdmrconf.so.0:_ZN18ConfigMergeVisitorC2EP6ConfigR5QHashIP12ConfigObjectS4_ENS_12ItemStrategyENS_11SetStrategyE
libdmrconf.so.0:_ZN18DR1801UVFileReader4readERK7QStringP16DR1801UVCodeplugRK10ErrorStack
libdmrconf.so.0:_ZN18DefaultRoamingZone11qt_metacallEN11QMetaObject4CallEiPPv
libdmrconf.so.0:_ZN18DefaultRoamingZone11qt_metacastEPKc
libdmrconf.so.0:_ZN18DefaultRoamingZone3getEv
libdmrconf.so.0:_ZN18DefaultRoamingZoneC1EP7QObject
libdmrconf.so.0:_ZN18DefaultRoamingZoneC2EP7QObject
libdmrconf.so.0:_ZN18FMChannelReference11qt_metacallEN11QMetaObject4CallEiPPv
libdmrconf.so.0:_ZN18FMChannelReference11qt_metacastEPKc
libdmrconf.so.0:_ZN18FMChannelReferenceC1EP7QObject
libdmrconf.so.0:_ZN18FMChannelReferenceC2EP7QObject
libdmrconf.so.0:_ZN18GPSSystemReference11qt_metacallEN11QMetaObject4CallEiPPv
libdmrconf.so.0:_ZN18GPSSystemReference11qt_metacastEPKc
libdmrconf.so.0:_ZN18GPSSystemReferenceC1EP7QObject
libdmrconf.so.0:_ZN18GPSSystemReferenceC2EP7QObject
libdmrconf.so.0:_ZN18GroupListReference11qt_metacallEN11QMetaObject4CallEiPPv
libdmrconf.so.0:_ZN18GroupListReference11qt_metacastEPKc
libdmrconf.so.0:_ZN18GroupListReferenceC1EP7QObject
libdmrconf.so.0:_ZN18GroupListReferenceC2EP7QObject
libdmrconf.so.0:_ZN18OpenGD77CallsignDB11qt_metacallEN11QMetaObject4CallEiPPv
libdmrconf.so.0:_ZN18OpenGD77CallsignDB11qt_metacastEPKc
libdmrconf.so.0:_ZN18OpenGD77CallsignDB14userdb_entry_t5clearEv
libdmrconf.so.0:_ZN18OpenGD77CallsignDB14userdb_entry_t7setNameERK7QString
libdmrconf.so.0:_ZN18OpenGD77CallsignDB14userdb_entry_t9fromEntryERKN12UserDatabase4UserE
libdmrconf.so.0:_ZN18OpenGD77CallsignDB14userdb_entry_t9setNumberEj
libdmrconf.so.0:_ZN18OpenGD77CallsignDB14userdb_entry_tC1Ev
libdmrconf.so.0:_ZN18OpenGD77CallsignDB14userdb_entry_tC2Ev
libdmrconf.so.0:_ZN18OpenGD77CallsignDB6encodeEP12UserDatabaseRKN10CallsignDB9SelectionERK10ErrorStack
libdmrconf.so.0:_ZN18OpenGD77CallsignDB8userdb_t5clearEv
libdmrconf.so.0:_ZN18OpenGD77CallsignDB8userdb_t7setSizeEj
libdmrconf.so.0:_ZN18OpenGD77CallsignDB8userdb_tC1Ev
libdmrconf.so.0:_ZN18OpenGD77CallsignDB8userdb_tC2Ev
libdmrconf.so.0:_ZN18OpenGD77CallsignDBC1EP7QObject
libdmrconf.so.0:_ZN18OpenGD77CallsignDBC2EP7QObject
libdmrconf.so.0:_ZN18OpenGD77CallsignDBD0Ev
libdmrconf.so.0:_ZN18OpenGD77CallsignDBD1Ev
libdmrconf.so.0:_ZN18OpenGD77CallsignDBD2Ev
libdmrconf.so.0:_ZN18PositioningSystems11qt_metacallEN11QMetaObject4CallEiPPv
libdmrconf.so.0:_ZN18PositioningSystems11qt_metacastEPKc
libdmrconf.so.0:_ZN18PositioningSystems13allocateChildERKN4YAML4NodeERN10ConfigItem7ContextERK10ErrorStack
libdmrconf.so.0:_ZN18PositioningSystems3addEP12ConfigObjectib
libdmrconf.so.0:_ZN18PositioningSystemsC1EP7QObject
libdmrconf.so.0:_ZN18PositioningSystemsC2EP7QObject
libdmrconf.so.0:_ZN18RadioddityCodeplug11ZoneElement11clearMemberEj
libdmrconf.so.0:_ZN18RadioddityCodeplug11ZoneElement12fromZoneObjAEPK4ZoneRN8Codeplug7ContextE
libdmrconf.so.0:_ZN18RadioddityCodeplug11ZoneElement12fromZoneObjBEPK4ZoneRN8Codeplug7ContextE
libdmrconf.so.0:_ZN18RadioddityCodeplug11ZoneElement5clearEv
libdmrconf.so.0:_ZN18RadioddityCodeplug11ZoneElement7setNameERK7QString
libdmrconf.so.0:_ZN18RadioddityCodeplug11ZoneElement9setMemberEjj
libdmrconf.so.0:_ZN18RadioddityCodeplug11ZoneElementC1EPh
libdmrconf.so.0:_ZN18RadioddityCodeplug11ZoneElementC1EPhj
libdmrconf.so.0:_ZN18RadioddityCodeplug11ZoneElementC2EPh
libdmrconf.so.0:_ZN18RadioddityCodeplug11ZoneElementC2EPhj
libdmrconf.so.0:_ZN18RadioddityCodeplug11ZoneElementD0Ev
libdmrconf.so.0:_ZN18RadioddityCodeplug11ZoneElementD1Ev
libdmrconf.so.0:_ZN18RadioddityCodeplug11ZoneElementD2Ev
libdmrconf.so.0:_ZN18RadioddityCodeplug11qt_metacallEN11QMetaObject4CallEiPPv
libdmrconf.so.0:_ZN18RadioddityCodeplug11qt_metacastEPKc
libdmrconf.so.0:_ZN18RadioddityCodeplug14ChannelElement11setTimeSlotEN10DMRChannel8TimeSlotE
libdmrconf.so.0:_ZN18RadioddityCodeplug14ChannelElement12enableRXOnlyEb
libdmrconf.so.0:_ZN18RadioddityCodeplug14ChannelElement12setBandwidthEN9FMChannel9BandwidthE
libdmrconf.so.0:_ZN18RadioddityCodeplug14ChannelElement12setTXTimeOutEj
libdmrconf.so.0:_ZN18RadioddityCodeplug14ChannelElement13enablePrivacyEb
libdmrconf.so.0:_ZN18RadioddityCodeplug14ChannelElement14fromChannelObjEPK7ChannelRN8Codeplug7ContextE
libdmrconf.so.0:_ZN18RadioddityCodeplug14ChannelElement14setRXColorCodeEj
libdmrconf.so.0:_ZN18RadioddityCodeplug14ChannelElement14setRXFrequencyEj
libdmrconf.so.0:_ZN18RadioddityCodeplug14ChannelElement14setTXColorCodeEj
libdmrconf.so.0:_ZN18RadioddityCodeplug14ChannelElement14setTXFrequencyEj
libdmrconf.so.0:_ZN18RadioddityCodeplug14ChannelElement15setContactIndexEj
libdmrconf.so.0:_ZN18RadioddityCodeplug14ChannelElement15setPrivacyGroupENS0_12PrivacyGroupE
libdmrconf.so.0:_ZN18RadioddityCodeplug14ChannelElement16enableTalkaroundEb
libdmrconf.so.0:_ZN18RadioddityCodeplug14ChannelElement16setScanListIndexEj
libdmrconf.so.0:_ZN18RadioddityCodeplug14ChannelElement17setAdmitCriterionENS0_5AdmitE
libdmrconf.so.0:_ZN18RadioddityCodeplug14ChannelElement17setGroupListIndexEj
libdmrconf.so.0:_ZN18RadioddityCodeplug14ChannelElement19setRXSignalingIndexEj
libdmrconf.so.0:_ZN18RadioddityCodeplug14ChannelElement19setTXSignalingIndexEj
libdmrconf.so.0:_ZN18RadioddityCodeplug14ChannelElement21enableDataCallConfirmEb
libdmrconf.so.0:_ZN18RadioddityCodeplug14ChannelElement21enableNonSTEFrequencyEb
libdmrconf.so.0:_ZN18RadioddityCodeplug14ChannelElement22setTXTimeOutRekeyDelayEj
libdmrconf.so.0:_ZN18RadioddityCodeplug14ChannelElement23enableEmergencyAlarmACKEb
libdmrconf.so.0:_ZN18RadioddityCodeplug14ChannelElement23setEmergencySystemIndexEj
libdmrconf.so.0:_ZN18RadioddityCodeplug14ChannelElement24enablePrivateCallConfirmEb
libdmrconf.so.0:_ZN18RadioddityCodeplug14ChannelElement28enableDualCapacityDirectModeEb
libdmrconf.so.0:_ZN18RadioddityCodeplug14ChannelElement5clearEv
libdmrconf.so.0:_ZN18RadioddityCodeplug14ChannelElement7setModeENS0_4ModeE
libdmrconf.so.0:_ZN18RadioddityCodeplug14ChannelElement7setNameERK7QString
libdmrconf.so.0:_ZN18RadioddityCodeplug14ChannelElement8setPowerEN7Channel5PowerE
libdmrconf.so.0:_ZN18RadioddityCodeplug14ChannelElement9enableVOXEb
libdmrconf.so.0:_ZN18RadioddityCodeplug14ChannelElement9setRXToneEN9Signaling4CodeE
libdmrconf.so.0:_ZN18RadioddityCodeplug14ChannelElement9setTXToneEN9Signaling4CodeE
libdmrconf.so.0:_ZN18RadioddityCodeplug14ChannelElementC1EPh
libdmrconf.so.0:_ZN18RadioddityCodeplug14ChannelElementC1EPhm
libdmrconf.so.0:_ZN18RadioddityCodeplug14ChannelElementC2EPh
libdmrconf.so.0:_ZN18RadioddityCodeplug14ChannelElementC2EPhm
libdmrconf.so.0:_ZN18RadioddityCodeplug14ChannelElementD0Ev
libdmrconf.so.0:_ZN18RadioddityCodeplug14ChannelElementD1Ev
libdmrconf.so.0:_ZN18RadioddityCodeplug14ChannelElementD2Ev
libdmrconf.so.0:_ZN18RadioddityCodeplug14ContactElement10enableRingEb
libdmrconf.so.0:_ZN18RadioddityCodeplug14ContactElement12setRingStyleEj
libdmrconf.so.0:_ZN18RadioddityCodeplug14ContactElement14fromContactObjEPK10DMRContactRN8Codeplug7ContextE
libdmrconf.so.0:_ZN18RadioddityCodeplug14ContactElement5clearEv
libdmrconf.so.0:_ZN18RadioddityCodeplug14ContactElement7setNameE7QString
libdmrconf.so.0:_ZN18RadioddityCodeplug14ContactElement7setTypeEN10DMRContact4TypeE
libdmrconf.so.0:_ZN18RadioddityCodeplug14ContactElement9setNumberEj
libdmrconf.so.0:_ZN18RadioddityCodeplug14ContactElementC1EPh
libdmrconf.so.0:_ZN18RadioddityCodeplug14ContactElementC1EPhj
libdmrconf.so.0:_ZN18RadioddityCodeplug14ContactElementC2EPh
libdmrconf.so.0:_ZN18RadioddityCodeplug14ContactElementC2EPhj
libdmrconf.so.0:_ZN18RadioddityCodeplug14ContactElementD0Ev
libdmrconf.so.0:_ZN18RadioddityCodeplug14ContactElementD1Ev
libdmrconf.so.0:_ZN18RadioddityCodeplug14ContactElementD2Ev
libdmrconf.so.0:_ZN18RadioddityCodeplug14decodeElementsERN8Codeplug7ContextERK10ErrorStack
libdmrconf.so.0:_ZN18RadioddityCodeplug14encodeElementsERKN8Codeplug5FlagsERNS0_7ContextERK10ErrorStack
libdmrconf.so.0:_ZN18RadioddityCodeplug15BootTextElement10fromConfigEP6Config
libdmrconf.so.0:_ZN18RadioddityCodeplug15BootTextElement12updateConfigEP6Config
libdmrconf.so.0:_ZN18RadioddityCodeplug15BootTextElement5clearEv
libdmrconf.so.0:_ZN18RadioddityCodeplug15BootTextElement8setLine1ERK7QString
libdmrconf.so.0:_ZN18RadioddityCodeplug15BootTextElement8setLine2ERK7QString
libdmrconf.so.0:_ZN18RadioddityCodeplug15BootTextElementC1EPh
libdmrconf.so.0:_ZN18RadioddityCodeplug15BootTextElementC1EPhj
libdmrconf.so.0:_ZN18RadioddityCodeplug15BootTextElementC2EPh
libdmrconf.so.0:_ZN18RadioddityCodeplug15BootTextElementC2EPhj
libdmrconf.so.0:_ZN18RadioddityCodeplug15BootTextElementD0Ev
libdmrconf.so.0:_ZN18RadioddityCodeplug15BootTextElementD1Ev
libdmrconf.so.0:_ZN18RadioddityCodeplug15BootTextElementD2Ev
libdmrconf.so.0:_ZN18RadioddityCodeplug15ScanListElement10setPrimaryEj
libdmrconf.so.0:_ZN18RadioddityCodeplug15ScanListElement11clearMemberEj
libdmrconf.so.0:_ZN18RadioddityCodeplug15ScanListElement11clearRevertEv
libdmrconf.so.0:_ZN18RadioddityCodeplug15ScanListElement11setHoldTimeEj
libdmrconf.so.0:_ZN18RadioddityCodeplug15ScanListElement11setSelectedEj
libdmrconf.so.0:_ZN18RadioddityCodeplug15ScanListElement12clearPrimaryEv
libdmrconf.so.0:_ZN18RadioddityCodeplug15ScanListElement12setSecondaryEj
libdmrconf.so.0:_ZN18RadioddityCodeplug15ScanListElement14clearSecondaryEv
libdmrconf.so.0:_ZN18RadioddityCodeplug15ScanListElement14enableTalkbackEb
libdmrconf.so.0:_ZN18RadioddityCodeplug15ScanListElement15fromScanListObjEPK8ScanListRN8Codeplug7ContextE
libdmrconf.so.0:_ZN18RadioddityCodeplug15ScanListElement17enableChannelMarkEb
libdmrconf.so.0:_ZN18RadioddityCodeplug15ScanListElement17setRevertSelectedEv
libdmrconf.so.0:_ZN18RadioddityCodeplug15ScanListElement18setPrimarySelectedEv
libdmrconf.so.0:_ZN18RadioddityCodeplug15ScanListElement20setSecondarySelectedEv
libdmrconf.so.0:_ZN18RadioddityCodeplug15ScanListElement21setPrioritySampleTimeEj
libdmrconf.so.0:_ZN18RadioddityCodeplug15ScanListElement5clearEv
libdmrconf.so.0:_ZN18RadioddityCodeplug15ScanListElement7setModeENS0_4ModeE
libdmrconf.so.0:_ZN18RadioddityCodeplug15ScanListElement7setNameERK7QString
libdmrconf.so.0:_ZN18RadioddityCodeplug15ScanListElement9setMemberEjj
libdmrconf.so.0:_ZN18RadioddityCodeplug15ScanListElement9setRevertEj
libdmrconf.so.0:_ZN18RadioddityCodeplug15ScanListElementC1EPh
libdmrconf.so.0:_ZN18RadioddityCodeplug15ScanListElementC1EPhj
libdmrconf.so.0:_ZN18RadioddityCodeplug15ScanListElementC2EPh
libdmrconf.so.0:_ZN18RadioddityCodeplug15ScanListElementC2EPhj
libdmrconf.so.0:_ZN18RadioddityCodeplug15ScanListElementD0Ev
libdmrconf.so.0:_ZN18RadioddityCodeplug15ScanListElementD1Ev
libdmrconf.so.0:_ZN18RadioddityCodeplug15ScanListElementD2Ev
libdmrconf.so.0:_ZN18RadioddityCodeplug15ZoneBankElement5clearEv
libdmrconf.so.0:_ZN18RadioddityCodeplug15ZoneBankElement6enableEjb
libdmrconf.so.0:_ZN18RadioddityCodeplug15ZoneBankElementC1EPh
libdmrconf.so.0:_ZN18RadioddityCodeplug15ZoneBankElementC1EPhj
libdmrconf.so.0:_ZN18RadioddityCodeplug15ZoneBankElementC2EPh
libdmrconf.so.0:_ZN18RadioddityCodeplug15ZoneBankElementC2EPhj
libdmrconf.so.0:_ZN18RadioddityCodeplug15ZoneBankElementD0Ev
libdmrconf.so.0:_ZN18RadioddityCodeplug15ZoneBankElementD1Ev
libdmrconf.so.0:_ZN18RadioddityCodeplug15ZoneBankElementD2Ev
libdmrconf.so.0:_ZN18RadioddityCodeplug16GroupListElement11clearMemberEj
libdmrconf.so.0:_ZN18RadioddityCodeplug16GroupListElement16toRXGroupListObjERN8Codeplug7ContextERK10ErrorStack
libdmrconf.so.0:_ZN18RadioddityCodeplug16GroupListElement18fromRXGroupListObjEPK11RXGroupListRN8Codeplug7ContextERK10ErrorStack
libdmrconf.so.0:_ZN18RadioddityCodeplug16GroupListElement5clearEv
libdmrconf.so.0:_ZN18RadioddityCodeplug16GroupListElement7setNameERK7QString
libdmrconf.so.0:_ZN18RadioddityCodeplug16GroupListElement9setMemberEjj
libdmrconf.so.0:_ZN18RadioddityCodeplug16GroupListElementC1EPh
libdmrconf.so.0:_ZN18RadioddityCodeplug16GroupListElementC1EPhj
libdmrconf.so.0:_ZN18RadioddityCodeplug16GroupListElementC2EPh
libdmrconf.so.0:_ZN18RadioddityCodeplug16GroupListElementC2EPhj
libdmrconf.so.0:_ZN18RadioddityCodeplug16GroupListElementD0Ev
libdmrconf.so.0:_ZN18RadioddityCodeplug16GroupListElementD1Ev
libdmrconf.so.0:_ZN18RadioddityCodeplug16GroupListElementD2Ev
libdmrconf.so.0:_ZN18RadioddityCodeplug17EncryptionElement11setBasicKeyEjRK10QByteArray
libdmrconf.so.0:_ZN18RadioddityCodeplug17EncryptionElement13clearBasicKeyEj
libdmrconf.so.0:_ZN18RadioddityCodeplug17EncryptionElement14setPrivacyTypeENS0_11PrivacyTypeE
libdmrconf.so.0:_ZN18RadioddityCodeplug17EncryptionElement17fromCommercialExtEP19CommercialExtensionRN8Codeplug7ContextE
libdmrconf.so.0:_ZN18RadioddityCodeplug17EncryptionElement17linkCommercialExtEP19CommercialExtensionRN8Codeplug7ContextE
libdmrconf.so.0:_ZN18RadioddityCodeplug17EncryptionElement19updateCommercialExtERN8Codeplug7ContextE
libdmrconf.so.0:_ZN18RadioddityCodeplug17EncryptionElement5clearEv
libdmrconf.so.0:_ZN18RadioddityCodeplug17EncryptionElementC1EPh
libdmrconf.so.0:_ZN18RadioddityCodeplug17EncryptionElementC1EPhm
libdmrconf.so.0:_ZN18RadioddityCodeplug17EncryptionElementC2EPh
libdmrconf.so.0:_ZN18RadioddityCodeplug17EncryptionElementC2EPhm
libdmrconf.so.0:_ZN18RadioddityCodeplug17EncryptionElementD0Ev
libdmrconf.so.0:_ZN18RadioddityCodeplug17EncryptionElementD1Ev
libdmrconf.so.0:_ZN18RadioddityCodeplug17EncryptionElementD2Ev
libdmrconf.so.0:_ZN18RadioddityCodeplug17VFOChannelElement11setStepSizeEd
libdmrconf.so.0:_ZN18RadioddityCodeplug17VFOChannelElement11setTXOffsetEd
libdmrconf.so.0:_ZN18RadioddityCodeplug17VFOChannelElement13setOffsetModeENS0_10OffsetModeE
libdmrconf.so.0:_ZN18RadioddityCodeplug17VFOChannelElement5clearEv
libdmrconf.so.0:_ZN18RadioddityCodeplug17VFOChannelElement7setNameERK7QString
libdmrconf.so.0:_ZN18RadioddityCodeplug17VFOChannelElementC1EPh
libdmrconf.so.0:_ZN18RadioddityCodeplug17VFOChannelElementC1EPhj
libdmrconf.so.0:_ZN18RadioddityCodeplug17VFOChannelElementC2EPh
libdmrconf.so.0:_ZN18RadioddityCodeplug17VFOChannelElementC2EPhj
libdmrconf.so.0:_ZN18RadioddityCodeplug18ChannelBankElement5clearEv
libdmrconf.so.0:_ZN18RadioddityCodeplug18ChannelBankElement6enableEjb
libdmrconf.so.0:_ZN18RadioddityCodeplug18ChannelBankElementC1EPh
libdmrconf.so.0:_ZN18RadioddityCodeplug18ChannelBankElementC1EPhj
libdmrconf.so.0:_ZN18RadioddityCodeplug18ChannelBankElementC2EPh
libdmrconf.so.0:_ZN18RadioddityCodeplug18ChannelBankElementC2EPhj
libdmrconf.so.0:_ZN18RadioddityCodeplug18ChannelBankElementD0Ev
libdmrconf.so.0:_ZN18RadioddityCodeplug18ChannelBankElementD1Ev
libdmrconf.so.0:_ZN18RadioddityCodeplug18ChannelBankElementD2Ev
libdmrconf.so.0:_ZN18RadioddityCodeplug18DTMFContactElement14fromContactObjEPK11DTMFContactRN8Codeplug7ContextE
libdmrconf.so.0:_ZN18RadioddityCodeplug18DTMFContactElement5clearEv
libdmrconf.so.0:_ZN18RadioddityCodeplug18DTMFContactElement7setNameERK7QString
libdmrconf.so.0:_ZN18RadioddityCodeplug18DTMFContactElement9setNumberERK7QString
libdmrconf.so.0:_ZN18RadioddityCodeplug18DTMFContactElementC1EPh
libdmrconf.so.0:_ZN18RadioddityCodeplug18DTMFContactElementC1EPhj
libdmrconf.so.0:_ZN18RadioddityCodeplug18DTMFContactElementC2EPh
libdmrconf.so.0:_ZN18RadioddityCodeplug18DTMFContactElementC2EPhj
libdmrconf.so.0:_ZN18RadioddityCodeplug18DTMFContactElementD0Ev
libdmrconf.so.0:_ZN18RadioddityCodeplug18DTMFContactElementD1Ev
libdmrconf.so.0:_ZN18RadioddityCodeplug18DTMFContactElementD2Ev
libdmrconf.so.0:_ZN18RadioddityCodeplug18MessageBankElement13appendMessageE7QString
libdmrconf.so.0:_ZN18RadioddityCodeplug18MessageBankElement5clearEv
libdmrconf.so.0:_ZN18RadioddityCodeplug18MessageBankElement6decodeERN8Codeplug7ContextERK10ErrorStack
libdmrconf.so.0:_ZN18RadioddityCodeplug18MessageBankElement6encodeERN8Codeplug7ContextERKNS1_5FlagsERK10ErrorStack
libdmrconf.so.0:_ZN18RadioddityCodeplug18MessageBankElementC1EPh
libdmrconf.so.0:_ZN18RadioddityCodeplug18MessageBankElementC1EPhj
libdmrconf.so.0:_ZN18RadioddityCodeplug18MessageBankElementC2EPh
libdmrconf.so.0:_ZN18RadioddityCodeplug18MessageBankElementC2EPhj
libdmrconf.so.0:_ZN18RadioddityCodeplug18MessageBankElementD0Ev
libdmrconf.so.0:_ZN18RadioddityCodeplug18MessageBankElementD1Ev
libdmrconf.so.0:_ZN18RadioddityCodeplug18MessageBankElementD2Ev
libdmrconf.so.0:_ZN18RadioddityCodeplug19BootSettingsElement14enableBootTextEb
libdmrconf.so.0:_ZN18RadioddityCodeplug19BootSettingsElement15setBootPasswordEj
libdmrconf.so.0:_ZN18RadioddityCodeplug19BootSettingsElement18enableBootPasswordEb
libdmrconf.so.0:_ZN18RadioddityCodeplug19BootSettingsElement5clearEv
libdmrconf.so.0:_ZN18RadioddityCodeplug19BootSettingsElementC1EPh
libdmrconf.so.0:_ZN18RadioddityCodeplug19BootSettingsElementC1EPhj
libdmrconf.so.0:_ZN18RadioddityCodeplug19BootSettingsElementC2EPh
libdmrconf.so.0:_ZN18RadioddityCodeplug19BootSettingsElementC2EPhj
libdmrconf.so.0:_ZN18RadioddityCodeplug19BootSettingsElementD0Ev
libdmrconf.so.0:_ZN18RadioddityCodeplug19BootSettingsElementD1Ev
libdmrconf.so.0:_ZN18RadioddityCodeplug19BootSettingsElementD2Ev
libdmrconf.so.0:_ZN18RadioddityCodeplug19MenuSettingsElement10enableToneEb
libdmrconf.so.0:_ZN18RadioddityCodeplug19MenuSettingsElement11enablePowerEb
libdmrconf.so.0:_ZN18RadioddityCodeplug19MenuSettingsElement13enableKeyToneEb
libdmrconf.so.0:_ZN18RadioddityCodeplug19MenuSettingsElement13enableMessageEb
libdmrconf.so.0:_ZN18RadioddityCodeplug19MenuSettingsElement13enablePrivacyEb
libdmrconf.so.0:_ZN18RadioddityCodeplug19MenuSettingsElement13enableSquelchEb
libdmrconf.so.0:_ZN18RadioddityCodeplug19MenuSettingsElement15enableBacklightEb
libdmrconf.so.0:_ZN18RadioddityCodeplug19MenuSettingsElement15enableCallAlertEb
libdmrconf.so.0:_ZN18RadioddityCodeplug19MenuSettingsElement15enableDualWatchEb
libdmrconf.so.0:_ZN18RadioddityCodeplug19MenuSettingsElement15enableScanStartEb
libdmrconf.so.0:_ZN18RadioddityCodeplug19MenuSettingsElement15setMenuHangTimeEj
libdmrconf.so.0:_ZN18RadioddityCodeplug19MenuSettingsElement16enableKeypadLockEb
libdmrconf.so.0:_ZN18RadioddityCodeplug19MenuSettingsElement16enableManualDialEb
libdmrconf.so.0:_ZN18RadioddityCodeplug19MenuSettingsElement16enableRadioCheckEb
libdmrconf.so.0:_ZN18RadioddityCodeplug19MenuSettingsElement16enableTalkaroundEb
libdmrconf.so.0:_ZN18RadioddityCodeplug19MenuSettingsElement16setBacklightTimeEj
libdmrconf.so.0:_ZN18RadioddityCodeplug19MenuSettingsElement16setDualWatchModeENS0_13DualWatchModeE
libdmrconf.so.0:_ZN18RadioddityCodeplug19MenuSettingsElement17enableEditContactEb
libdmrconf.so.0:_ZN18RadioddityCodeplug19MenuSettingsElement17enableIntroScreenEb
libdmrconf.so.0:_ZN18RadioddityCodeplug19MenuSettingsElement17enableMissedCallsEb
libdmrconf.so.0:_ZN18RadioddityCodeplug19MenuSettingsElement17enableRadioEnableEb
libdmrconf.so.0:_ZN18RadioddityCodeplug19MenuSettingsElement17setKeypadLockTimeEj
libdmrconf.so.0:_ZN18RadioddityCodeplug19MenuSettingsElement18enableEditScanListEb
libdmrconf.so.0:_ZN18RadioddityCodeplug19MenuSettingsElement18enableLEDIndicatorEb
libdmrconf.so.0:_ZN18RadioddityCodeplug19MenuSettingsElement18enablePasswordLockEb
libdmrconf.so.0:_ZN18RadioddityCodeplug19MenuSettingsElement18enableProgPasswordEb
libdmrconf.so.0:_ZN18RadioddityCodeplug19MenuSettingsElement18enableRadioDisableEb
libdmrconf.so.0:_ZN18RadioddityCodeplug19MenuSettingsElement19enableAnsweredCallsEb
libdmrconf.so.0:_ZN18RadioddityCodeplug19MenuSettingsElement19enableOutgoingCallsEb
libdmrconf.so.0:_ZN18RadioddityCodeplug19MenuSettingsElement19enableRemoteMonitorEb
libdmrconf.so.0:_ZN18RadioddityCodeplug19MenuSettingsElement20enableChannelDisplayEb
libdmrconf.so.0:_ZN18RadioddityCodeplug19MenuSettingsElement21setChannelDisplayModeENS0_18ChannelDisplayModeE
libdmrconf.so.0:_ZN18RadioddityCodeplug19MenuSettingsElement5clearEv
libdmrconf.so.0:_ZN18RadioddityCodeplug19MenuSettingsElement9enableVOXEb
libdmrconf.so.0:_ZN18RadioddityCodeplug19MenuSettingsElementC1EPh
libdmrconf.so.0:_ZN18RadioddityCodeplug19MenuSettingsElementC1EPhj
libdmrconf.so.0:_ZN18RadioddityCodeplug19MenuSettingsElementC2EPh
libdmrconf.so.0:_ZN18RadioddityCodeplug19MenuSettingsElementC2EPhj
libdmrconf.so.0:_ZN18RadioddityCodeplug19MenuSettingsElementD0Ev
libdmrconf.so.0:_ZN18RadioddityCodeplug19MenuSettingsElementD1Ev
libdmrconf.so.0:_ZN18RadioddityCodeplug19MenuSettingsElementD2Ev
libdmrconf.so.0:_ZN18RadioddityCodeplug19ScanListBankElement5clearEv
libdmrconf.so.0:_ZN18RadioddityCodeplug19ScanListBankElement6enableEjb
libdmrconf.so.0:_ZN18RadioddityCodeplug19ScanListBankElementC1EPh
libdmrconf.so.0:_ZN18RadioddityCodeplug19ScanListBankElementC1EPhj
libdmrconf.so.0:_ZN18RadioddityCodeplug19ScanListBankElementC2EPh
libdmrconf.so.0:_ZN18RadioddityCodeplug19ScanListBankElementC2EPhj
libdmrconf.so.0:_ZN18RadioddityCodeplug19ScanListBankElementD0Ev
libdmrconf.so.0:_ZN18RadioddityCodeplug19ScanListBankElementD1Ev
libdmrconf.so.0:_ZN18RadioddityCodeplug19ScanListBankElementD2Ev
libdmrconf.so.0:_ZN18RadioddityCodeplug20GroupListBankElement15setContactCountEjj
libdmrconf.so.0:_ZN18RadioddityCodeplug20GroupListBankElement5clearEv
libdmrconf.so.0:_ZN18RadioddityCodeplug20GroupListBankElement7disableEj
libdmrconf.so.0:_ZN18RadioddityCodeplug20GroupListBankElementC1EPh
libdmrconf.so.0:_ZN18RadioddityCodeplug20GroupListBankElementC1EPhj
libdmrconf.so.0:_ZN18RadioddityCodeplug20GroupListBankElementC2EPh
libdmrconf.so.0:_ZN18RadioddityCodeplug20GroupListBankElementC2EPhj
libdmrconf.so.0:_ZN18RadioddityCodeplug20GroupListBankElementD0Ev
libdmrconf.so.0:_ZN18RadioddityCodeplug20GroupListBankElementD1Ev
libdmrconf.so.0:_ZN18RadioddityCodeplug20GroupListBankElementD2Ev
libdmrconf.so.0:_ZN18RadioddityCodeplug21ButtonSettingsElement11KeyFunction6decodeEh
libdmrconf.so.0:_ZN18RadioddityCodeplug21ButtonSettingsElement11KeyFunction6encodeEN33RadioddityButtonSettingsExtension8FunctionE
libdmrconf.so.0:_ZN18RadioddityCodeplug21ButtonSettingsElement14setTKLongPressEN33RadioddityButtonSettingsExtension8FunctionE
libdmrconf.so.0:_ZN18RadioddityCodeplug21ButtonSettingsElement15disableOneTouchEj
libdmrconf.so.0:_ZN18RadioddityCodeplug21ButtonSettingsElement15setSK1LongPressEN33RadioddityButtonSettingsExtension8FunctionE
libdmrconf.so.0:_ZN18RadioddityCodeplug21ButtonSettingsElement15setSK2LongPressEN33RadioddityButtonSettingsExtension8FunctionE
libdmrconf.so.0:_ZN18RadioddityCodeplug21ButtonSettingsElement15setTKShortPressEN33RadioddityButtonSettingsExtension8FunctionE
libdmrconf.so.0:_ZN18RadioddityCodeplug21ButtonSettingsElement16setSK1ShortPressEN33RadioddityButtonSettingsExtension8FunctionE
libdmrconf.so.0:_ZN18RadioddityCodeplug21ButtonSettingsElement16setSK2ShortPressEN33RadioddityButtonSettingsExtension8FunctionE
libdmrconf.so.0:_ZN18RadioddityCodeplug21ButtonSettingsElement20setLongPressDurationE8Interval
libdmrconf.so.0:_ZN18RadioddityCodeplug21ButtonSettingsElement21setOneTouchAnalogCallEj
libdmrconf.so.0:_ZN18RadioddityCodeplug21ButtonSettingsElement22setOneTouchDigitalCallEjj
libdmrconf.so.0:_ZN18RadioddityCodeplug21ButtonSettingsElement25setOneTouchDigitalMessageEjj
libdmrconf.so.0:_ZN18RadioddityCodeplug21ButtonSettingsElement5clearEv
libdmrconf.so.0:_ZN18RadioddityCodeplug21ButtonSettingsElement6decodeERN8Codeplug7ContextERK10ErrorStack
libdmrconf.so.0:_ZN18RadioddityCodeplug21ButtonSettingsElement6encodeERN8Codeplug7ContextERK10ErrorStack
libdmrconf.so.0:_ZN18RadioddityCodeplug21ButtonSettingsElementC1EPh
libdmrconf.so.0:_ZN18RadioddityCodeplug21ButtonSettingsElementC1EPhj
libdmrconf.so.0:_ZN18RadioddityCodeplug21ButtonSettingsElementC2EPh
libdmrconf.so.0:_ZN18RadioddityCodeplug21ButtonSettingsElementC2EPhj
libdmrconf.so.0:_ZN18RadioddityCodeplug21ButtonSettingsElementD0Ev
libdmrconf.so.0:_ZN18RadioddityCodeplug21ButtonSettingsElementD1Ev
libdmrconf.so.0:_ZN18RadioddityCodeplug21ButtonSettingsElementD2Ev
libdmrconf.so.0:_ZN18RadioddityCodeplug22GeneralSettingsElement10fromConfigEPK6ConfigRN8Codeplug7ContextE
libdmrconf.so.0:_ZN18RadioddityCodeplug22GeneralSettingsElement10setRadioIDEj
libdmrconf.so.0:_ZN18RadioddityCodeplug22GeneralSettingsElement11setScanModeEN27RadiodditySettingsExtension8ScanModeE
libdmrconf.so.0:_ZN18RadioddityCodeplug22GeneralSettingsElement12updateConfigEP6ConfigRN8Codeplug7ContextE
libdmrconf.so.0:_ZN18RadioddityCodeplug22GeneralSettingsElement14disableAllLEDsEb
libdmrconf.so.0:_ZN18RadioddityCodeplug22GeneralSettingsElement14setMonitorTypeEN27RadiodditySettingsExtension11MonitorTypeE
libdmrconf.so.0:_ZN18RadioddityCodeplug22GeneralSettingsElement14setRepeaterSTEEj
libdmrconf.so.0:_ZN18RadioddityCodeplug22GeneralSettingsElement15disableAllTonesEb
libdmrconf.so.0:_ZN18RadioddityCodeplug22GeneralSettingsElement15enableAnimationEb
libdmrconf.so.0:_ZN18RadioddityCodeplug22GeneralSettingsElement15enableBatsaveRXEb
libdmrconf.so.0:_ZN18RadioddityCodeplug22GeneralSettingsElement15enableResetToneEb
libdmrconf.so.0:_ZN18RadioddityCodeplug22GeneralSettingsElement15setARTSToneModeEN31RadioddityToneSettingsExtension8ARTSToneE
libdmrconf.so.0:_ZN18RadioddityCodeplug22GeneralSettingsElement15setProgPasswordERK7QString
libdmrconf.so.0:_ZN18RadioddityCodeplug22GeneralSettingsElement16enableTXExitToneEb
libdmrconf.so.0:_ZN18RadioddityCodeplug22GeneralSettingsElement17clearProgPasswordEv
libdmrconf.so.0:_ZN18RadioddityCodeplug22GeneralSettingsElement17setVOXSensitivityEj
libdmrconf.so.0:_ZN18RadioddityCodeplug22GeneralSettingsElement18enableSelftestToneEb
libdmrconf.so.0:_ZN18RadioddityCodeplug22GeneralSettingsElement19setPreambleDurationEj
libdmrconf.so.0:_ZN18RadioddityCodeplug22GeneralSettingsElement19setRepeaterEndDelayEj
libdmrconf.so.0:_ZN18RadioddityCodeplug22GeneralSettingsElement20setCallAlertDurationEj
libdmrconf.so.0:_ZN18RadioddityCodeplug22GeneralSettingsElement20setGroupCallHangTimeEj
libdmrconf.so.0:_ZN18RadioddityCodeplug22GeneralSettingsElement21enableBatsavePreambleEb
libdmrconf.so.0:_ZN18RadioddityCodeplug22GeneralSettingsElement22enableUpChannelModeVFOEb
libdmrconf.so.0:_ZN18RadioddityCodeplug22GeneralSettingsElement22setPrivateCallHangTimeEj
libdmrconf.so.0:_ZN18RadioddityCodeplug22GeneralSettingsElement23enableTXOnActiveChannelEb
libdmrconf.so.0:_ZN18RadioddityCodeplug22GeneralSettingsElement23enableUnknownNumberToneEb
libdmrconf.so.0:_ZN18RadioddityCodeplug22GeneralSettingsElement23inhibitQuickKeyOverrideEb
libdmrconf.so.0:_ZN18RadioddityCodeplug22GeneralSettingsElement24enableDownChannelModeVFOEb
libdmrconf.so.0:_ZN18RadioddityCodeplug22GeneralSettingsElement25setLowBatteryWarnIntervalEj
libdmrconf.so.0:_ZN18RadioddityCodeplug22GeneralSettingsElement26enableAnalogTalkPermitToneEb
libdmrconf.so.0:_ZN18RadioddityCodeplug22GeneralSettingsElement27enableDigitalTalkPermitToneEb
libdmrconf.so.0:_ZN18RadioddityCodeplug22GeneralSettingsElement27setLoneWorkerReminderPeriodEj
libdmrconf.so.0:_ZN18RadioddityCodeplug22GeneralSettingsElement27setLoneWorkerResponsePeriodEj
libdmrconf.so.0:_ZN18RadioddityCodeplug22GeneralSettingsElement31enableChannelFreeIndicationToneEb
libdmrconf.so.0:_ZN18RadioddityCodeplug22GeneralSettingsElement5clearEv
libdmrconf.so.0:_ZN18RadioddityCodeplug22GeneralSettingsElement7setNameERK7QString
libdmrconf.so.0:_ZN18RadioddityCodeplug22GeneralSettingsElementC1EPh
libdmrconf.so.0:_ZN18RadioddityCodeplug22GeneralSettingsElementC1EPhj
libdmrconf.so.0:_ZN18RadioddityCodeplug22GeneralSettingsElementC2EPh
libdmrconf.so.0:_ZN18RadioddityCodeplug22GeneralSettingsElementC2EPhj
libdmrconf.so.0:_ZN18RadioddityCodeplug22GeneralSettingsElementD0Ev
libdmrconf.so.0:_ZN18RadioddityCodeplug22GeneralSettingsElementD1Ev
libdmrconf.so.0:_ZN18RadioddityCodeplug22GeneralSettingsElementD2Ev
libdmrconf.so.0:_ZN18RadioddityCodeplug5clearEv
libdmrconf.so.0:_ZN18RadioddityCodeplug6decodeEP6ConfigRK10ErrorStack
libdmrconf.so.0:_ZN18RadioddityCodeplug6encodeEP6ConfigRKN8Codeplug5FlagsERK10ErrorStack
libdmrconf.so.0:_ZN18RadioddityCodeplugC1EP7QObject
libdmrconf.so.0:_ZN18RadioddityCodeplugC2EP7QObject
libdmrconf.so.0:_ZN18RadioddityCodeplugD0Ev
libdmrconf.so.0:_ZN18RadioddityCodeplugD1Ev
libdmrconf.so.0:_ZN18RadioddityCodeplugD2Ev
libdmrconf.so.0:_ZN18RoamingChannelList11qt_metacallEN11QMetaObject4CallEiPPv
libdmrconf.so.0:_ZN18RoamingChannelList11qt_metacastEPKc
libdmrconf.so.0:_ZN18RoamingChannelList13allocateChildERKN4YAML4NodeERN10ConfigItem7ContextERK10ErrorStack
libdmrconf.so.0:_ZN18RoamingChannelList3addEP12ConfigObjectib
libdmrconf.so.0:_ZN18RoamingChannelListC1EP7QObject
libdmrconf.so.0:_ZN18RoamingChannelListC2EP7QObject
libdmrconf.so.0:_ZN18TyTConfigExtension11qt_metacallEN11QMetaObject4CallEiPPv
libdmrconf.so.0:_ZN18TyTConfigExtension11qt_metacastEPKc
libdmrconf.so.0:_ZN18TyTConfigExtensionC1EP7QObject
libdmrconf.so.0:_ZN18TyTConfigExtensionC2EP7QObject
libdmrconf.so.0:_ZN19APRSSystemReference11qt_metacallEN11QMetaObject4CallEiPPv
libdmrconf.so.0:_ZN19APRSSystemReference11qt_metacastEPKc
libdmrconf.so.0:_ZN19APRSSystemReferenceC1EP7QObject
libdmrconf.so.0:_ZN19APRSSystemReferenceC2EP7QObject
libdmrconf.so.0:_ZN19CommercialExtension11qt_metacallEN11QMetaObject4CallEiPPv
libdmrconf.so.0:_ZN19CommercialExtension11qt_metacastEPKc
libdmrconf.so.0:_ZN19CommercialExtensionC1EP7QObject
libdmrconf.so.0:_ZN19CommercialExtensionC2EP7QObject
libdmrconf.so.0:_ZN19ConfigObjectRefList11qt_metacallEN11QMetaObject4CallEiPPv
libdmrconf.so.0:_ZN19ConfigObjectRefList11qt_metacastEPKc
libdmrconf.so.0:_ZN19ConfigObjectRefList5labelERN10ConfigItem7ContextERK10ErrorStack
libdmrconf.so.0:_ZN19ConfigObjectRefList9serializeERKN10ConfigItem7ContextERK10ErrorStack
libdmrconf.so.0:_ZN19ConfigObjectRefListC1ERK11QMetaObjectP7QObject
libdmrconf.so.0:_ZN19ConfigObjectRefListC1ERKSt16initializer_listI11QMetaObjectEP7QObject
libdmrconf.so.0:_ZN19ConfigObjectRefListC2ERK11QMetaObjectP7QObject
libdmrconf.so.0:_ZN19ConfigObjectRefListC2ERKSt16initializer_listI11QMetaObjectEP7QObject
libdmrconf.so.0:_ZN19DMRChannelReference11qt_metacallEN11QMetaObject4CallEiPPv
libdmrconf.so.0:_ZN19DMRChannelReference11qt_metacastEPKc
libdmrconf.so.0:_ZN19DMRChannelReferenceC1EP7QObject
libdmrconf.so.0:_ZN19DMRChannelReferenceC2EP7QObject
libdmrconf.so.0:_ZN19DMRContactReference11qt_metacallEN11QMetaObject4CallEiPPv
libdmrconf.so.0:_ZN19DMRContactReference11qt_metacastEPKc
libdmrconf.so.0:_ZN19DMRContactReferenceC1EP7QObject
libdmrconf.so.0:_ZN19DMRContactReferenceC2EP7QObject
libdmrconf.so.0:_ZN19DMRRadioIDReference11qt_metacallEN11QMetaObject4CallEiPPv
libdmrconf.so.0:_ZN19DMRRadioIDReference11qt_metacastEPKc
libdmrconf.so.0:_ZN19DMRRadioIDReferenceC1EP7QObject
libdmrconf.so.0:_ZN19DMRRadioIDReferenceC2EP7QObject
libdmrconf.so.0:_ZN19ObjectFilterVisitor11processListEP24AbstractConfigObjectListRK10ErrorStack
libdmrconf.so.0:_ZN19ObjectFilterVisitor15processPropertyEP10ConfigItemRK13QMetaPropertyRK10ErrorStack
libdmrconf.so.0:_ZN19ObjectFilterVisitorC1ERKSt16initializer_listI11QMetaObjectE
libdmrconf.so.0:_ZN19ObjectFilterVisitorC2ERKSt16initializer_listI11QMetaObjectE
libdmrconf.so.0:_ZN19RadioddityInterface10identifierERK10ErrorStack
libdmrconf.so.0:_ZN19RadioddityInterface10read_startEjjRK10ErrorStack
libdmrconf.so.0:_ZN19RadioddityInterface11qt_metacallEN11QMetaObject4CallEiPPv
libdmrconf.so.0:_ZN19RadioddityInterface11qt_metacastEPKc
libdmrconf.so.0:_ZN19RadioddityInterface11read_finishERK10ErrorStack
libdmrconf.so.0:_ZN19RadioddityInterface11write_startEjjRK10ErrorStack
libdmrconf.so.0:_ZN19RadioddityInterface12write_finishERK10ErrorStack
libdmrconf.so.0:_ZN19RadioddityInterface13interfaceInfoEv
libdmrconf.so.0:_ZN19RadioddityInterface16selectMemoryBankENS_10MemoryBankERK10ErrorStack
libdmrconf.so.0:_ZN19RadioddityInterface4readEjjPhiRK10ErrorStack
libdmrconf.so.0:_ZN19RadioddityInterface5closeEv
libdmrconf.so.0:_ZN19RadioddityInterface5writeEjjPhiRK10ErrorStack
libdmrconf.so.0:_ZN19RadioddityInterface6detectEb
libdmrconf.so.0:_ZN19RadioddityInterfaceC1ERK19USBDeviceDescriptorRK10ErrorStackP7QObject
libdmrconf.so.0:_ZN19RadioddityInterfaceC2ERK19USBDeviceDescriptorRK10ErrorStackP7QObject
libdmrconf.so.0:_ZN19RadioddityInterfaceD0Ev
libdmrconf.so.0:_ZN19RadioddityInterfaceD1Ev
libdmrconf.so.0:_ZN19RadioddityInterfaceD2Ev
libdmrconf.so.0:_ZN19TyTChannelExtension10enableDCDMEb
libdmrconf.so.0:_ZN19TyTChannelExtension11qt_metacallEN11QMetaObject4CallEiPPv
libdmrconf.so.0:_ZN19TyTChannelExtension11qt_metacastEPKc
libdmrconf.so.0:_ZN19TyTChannelExtension11setKillToneENS_8KillToneE
libdmrconf.so.0:_ZN19TyTChannelExtension13setDMRSquelchEj
libdmrconf.so.0:_ZN19TyTChannelExtension14enableAutoScanEb
libdmrconf.so.0:_ZN19TyTChannelExtension16enableDCDMLeaderEb
libdmrconf.so.0:_ZN19TyTChannelExtension16enableLoneWorkerEb
libdmrconf.so.0:_ZN19TyTChannelExtension16enableTalkaroundEb
libdmrconf.so.0:_ZN19TyTChannelExtension17setRXRefFrequencyENS_12RefFrequencyE
libdmrconf.so.0:_ZN19TyTChannelExtension17setTXRefFrequencyENS_12RefFrequencyE
libdmrconf.so.0:_ZN19TyTChannelExtension18enableDisplayPTTIdEb
libdmrconf.so.0:_ZN19TyTChannelExtension18enableReverseBurstEb
libdmrconf.so.0:_ZN19TyTChannelExtension18enableTightSquelchEb
libdmrconf.so.0:_ZN19TyTChannelExtension18setInCallCriterionENS_15InCallCriterionE
libdmrconf.so.0:_ZN19TyTChannelExtension20enableAllowInterruptEb
libdmrconf.so.0:_ZN19TyTChannelExtension23enableDataCallConfirmedEb
libdmrconf.so.0:_ZN19TyTChannelExtension25enableCompressedUDPHeaderEb
libdmrconf.so.0:_ZN19TyTChannelExtension26enablePrivateCallConfirmedEb
libdmrconf.so.0:_ZN19TyTChannelExtension29enableEmergencyAlarmConfirmedEb
libdmrconf.so.0:_ZN19TyTChannelExtensionC1EP7QObject
libdmrconf.so.0:_ZN19TyTChannelExtensionC2EP7QObject
libdmrconf.so.0:_ZN19USBDeviceDescriptor6detectEb
libdmrconf.so.0:_ZN19USBDeviceDescriptorC1ERK13USBDeviceInfoRK15USBDeviceHandle
libdmrconf.so.0:_ZN19USBDeviceDescriptorC1ERK13USBDeviceInfoRK7QString
libdmrconf.so.0:_ZN19USBDeviceDescriptorC1ERKS_
libdmrconf.so.0:_ZN19USBDeviceDescriptorC1Ev
libdmrconf.so.0:_ZN19USBDeviceDescriptorC2ERK13USBDeviceInfoRK15USBDeviceHandle
libdmrconf.so.0:_ZN19USBDeviceDescriptorC2ERK13USBDeviceInfoRK7QString
libdmrconf.so.0:_ZN19USBDeviceDescriptorC2ERKS_
libdmrconf.so.0:_ZN19USBDeviceDescriptorC2Ev
libdmrconf.so.0:_ZN19USBDeviceDescriptoraSERKS_
libdmrconf.so.0:_ZN20AnytoneAPRSFrequency11qt_metacallEN11QMetaObject4CallEiPPv
libdmrconf.so.0:_ZN20AnytoneAPRSFrequency11qt_metacastEPKc
libdmrconf.so.0:_ZN20AnytoneAPRSFrequency12setFrequencyE9Frequency
libdmrconf.so.0:_ZN20AnytoneAPRSFrequencyC1EP7QObject
libdmrconf.so.0:_ZN20AnytoneAPRSFrequencyC2EP7QObject
libdmrconf.so.0:_ZN20AnytoneZoneExtension11qt_metacallEN11QMetaObject4CallEiPPv
libdmrconf.so.0:_ZN20AnytoneZoneExtension11qt_metacastEPKc
libdmrconf.so.0:_ZN20AnytoneZoneExtension12enableHiddenEb
libdmrconf.so.0:_ZN20AnytoneZoneExtensionC1EP7QObject
libdmrconf.so.0:_ZN20AnytoneZoneExtensionC2EP7QObject
libdmrconf.so.0:_ZN20RadioLimitSingleZone11qt_metacallEN11QMetaObject4CallEiPPv
libdmrconf.so.0:_ZN20RadioLimitSingleZone11qt_metacastEPKc
libdmrconf.so.0:_ZN20RadioLimitSingleZoneC1ExRKSt16initializer_listISt4pairI7QStringP17RadioLimitElementEEP7QObject
libdmrconf.so.0:_ZN20RadioLimitSingleZoneC2ExRKSt16initializer_listISt4pairI7QStringP17RadioLimitElementEEP7QObject
libdmrconf.so.0:_ZN20RoamingZoneReference11qt_metacallEN11QMetaObject4CallEiPPv
libdmrconf.so.0:_ZN20RoamingZoneReference11qt_metacastEPKc
libdmrconf.so.0:_ZN20RoamingZoneReferenceC1EP7QObject
libdmrconf.so.0:_ZN20RoamingZoneReferenceC2EP7QObject
libdmrconf.so.0:_ZN20TyTScanListExtension11qt_metacallEN11QMetaObject4CallEiPPv
libdmrconf.so.0:_ZN20TyTScanListExtension11qt_metacastEPKc
libdmrconf.so.0:_ZN20TyTScanListExtension11setHoldTimeEj
libdmrconf.so.0:_ZN20TyTScanListExtension21setPrioritySampleTimeEj
libdmrconf.so.0:_ZN20TyTScanListExtensionC1EP7QObject
libdmrconf.so.0:_ZN20TyTScanListExtensionC2EP7QObject
libdmrconf.so.0:_ZN20TyTSettingsExtension11qt_metacallEN11QMetaObject4CallEiPPv
libdmrconf.so.0:_ZN20TyTSettingsExtension11qt_metacastEPKc
libdmrconf.so.0:_ZN20TyTSettingsExtension14disableAllLEDsEb
libdmrconf.so.0:_ZN20TyTSettingsExtension14setMonitorTypeENS_11MonitorTypeE
libdmrconf.so.0:_ZN20TyTSettingsExtension15disableAllTonesEb
libdmrconf.so.0:_ZN20TyTSettingsExtension17enableBootPictureEb
libdmrconf.so.0:_ZN20TyTSettingsExtension17enableChannelModeEb
libdmrconf.so.0:_ZN20TyTSettingsExtension17setKeypadLockTimeEj
libdmrconf.so.0:_ZN20TyTSettingsExtension17setPCProgPasswordERK7QString
libdmrconf.so.0:_ZN20TyTSettingsExtension18enableChannelModeAEb
libdmrconf.so.0:_ZN20TyTSettingsExtension18enableChannelModeBEb
libdmrconf.so.0:_ZN20TyTSettingsExtension18setChannelHangTimeEj
libdmrconf.so.0:_ZN20TyTSettingsExtension18setPowerOnPasswordEj
libdmrconf.so.0:_ZN20TyTSettingsExtension19enablePowerSaveModeEb
libdmrconf.so.0:_ZN20TyTSettingsExtension20enableGroupCallMatchEb
libdmrconf.so.0:_ZN20TyTSettingsExtension20enableWakeupPreambleEb
libdmrconf.so.0:_ZN20TyTSettingsExtension20setBacklightDurationEj
libdmrconf.so.0:_ZN20TyTSettingsExtension20setGroupCallHangTimeEj
libdmrconf.so.0:_ZN20TyTSettingsExtension20setRadioProgPasswordEj
libdmrconf.so.0:_ZN20TyTSettingsExtension21enablePasswordAndLockEb
libdmrconf.so.0:_ZN20TyTSettingsExtension21enablePowerOnPasswordEb
libdmrconf.so.0:_ZN20TyTSettingsExtension21setAnalogScanHangTimeEj
libdmrconf.so.0:_ZN20TyTSettingsExtension21setTXPreambleDurationEj
libdmrconf.so.0:_ZN20TyTSettingsExtension22enableKeypadLockManualEb
libdmrconf.so.0:_ZN20TyTSettingsExtension22enablePrivateCallMatchEb
libdmrconf.so.0:_ZN20TyTSettingsExtension22setDigitalScanHangTimeEj
libdmrconf.so.0:_ZN20TyTSettingsExtension22setPrivateCallHangTimeEj
libdmrconf.so.0:_ZN20TyTSettingsExtension23enableBacklightAlwaysOnEb
libdmrconf.so.0:_ZN20TyTSettingsExtension23enableRadioProgPasswordEb
libdmrconf.so.0:_ZN20TyTSettingsExtension24setCallAlertToneDurationEj
libdmrconf.so.0:_ZN20TyTSettingsExtension25setLoneWorkerReminderTimeEj
libdmrconf.so.0:_ZN20TyTSettingsExtension25setLoneWorkerResponseTimeEj
libdmrconf.so.0:_ZN20TyTSettingsExtension25setLowBatteryWarnIntervalEj
libdmrconf.so.0:_ZN20TyTSettingsExtension26enableTalkPermitToneAnalogEb
libdmrconf.so.0:_ZN20TyTSettingsExtension27enableTalkPermitToneDigitalEb
libdmrconf.so.0:_ZN20TyTSettingsExtension29enableCallAlertToneContinuousEb
libdmrconf.so.0:_ZN20TyTSettingsExtension31enableChannelFreeIndicationToneEb
libdmrconf.so.0:_ZN20TyTSettingsExtensionC1EP7QObject
libdmrconf.so.0:_ZN20TyTSettingsExtensionC2EP7QObject
libdmrconf.so.0:_ZN21ConfigLabelingVisitor11processItemEP10ConfigItemRK10ErrorStack
libdmrconf.so.0:_ZN21ConfigLabelingVisitorC1ERN10ConfigItem7ContextE
libdmrconf.so.0:_ZN21ConfigLabelingVisitorC2ERN10ConfigItem7ContextE
libdmrconf.so.0:_ZN21ConfigObjectReference11qt_metacallEN11QMetaObject4CallEiPPv
libdmrconf.so.0:_ZN21ConfigObjectReference11qt_metacastEPKc
libdmrconf.so.0:_ZN21ConfigObjectReference18onReferenceDeletedEP7QObject
libdmrconf.so.0:_ZN21ConfigObjectReference3setEP12ConfigObject
libdmrconf.so.0:_ZN21ConfigObjectReference4copyEPKS_
libdmrconf.so.0:_ZN21ConfigObjectReference5allowEPK11QMetaObject
libdmrconf.so.0:_ZN21ConfigObjectReference5clearEv
libdmrconf.so.0:_ZN21ConfigObjectReference8modifiedEv
libdmrconf.so.0:_ZN21ConfigObjectReferenceC1ERK11QMetaObjectP7QObject
libdmrconf.so.0:_ZN21ConfigObjectReferenceC2ERK11QMetaObjectP7QObject
libdmrconf.so.0:_ZN21EnhancedEncryptionKey11qt_metacallEN11QMetaObject4CallEiPPv
libdmrconf.so.0:_ZN21EnhancedEncryptionKey11qt_metacastEPKc
libdmrconf.so.0:_ZN21EnhancedEncryptionKey5parseERKN4YAML4NodeERN10ConfigItem7ContextERK10ErrorStack
libdmrconf.so.0:_ZN21EnhancedEncryptionKey6setKeyERK10QByteArrayRK10ErrorStack
libdmrconf.so.0:_ZN21EnhancedEncryptionKey7fromHexERK7QStringRK10ErrorStack
libdmrconf.so.0:_ZN21EnhancedEncryptionKey9serializeERKN10ConfigItem7ContextERK10ErrorStack
libdmrconf.so.0:_ZN21EnhancedEncryptionKeyC1EP7QObject
libdmrconf.so.0:_ZN21EnhancedEncryptionKeyC2EP7QObject
libdmrconf.so.0:_ZN21FixReferencesVisistor11processListEP24AbstractConfigObjectListRK10ErrorStack
libdmrconf.so.0:_ZN21FixReferencesVisistor15processPropertyEP10ConfigItemRK13QMetaPropertyRK10ErrorStack
libdmrconf.so.0:_ZN21FixReferencesVisistorC1ER5QHashIP12ConfigObjectS2_Eb
libdmrconf.so.0:_ZN21FixReferencesVisistorC2ER5QHashIP12ConfigObjectS2_Eb
libdmrconf.so.0:_ZN21RadioLimitFrequencies11qt_metacallEN11QMetaObject4CallEiPPv
libdmrconf.so.0:_ZN21RadioLimitFrequencies11qt_metacastEPKc
libdmrconf.so.0:_ZN21RadioLimitFrequenciesC1EP7QObject
libdmrconf.so.0:_ZN21RadioLimitFrequenciesC1ERKSt16initializer_listISt4pairI9FrequencyS2_EEbP7QObject
libdmrconf.so.0:_ZN21RadioLimitFrequenciesC2EP7QObject
libdmrconf.so.0:_ZN21RadioLimitFrequenciesC2ERKSt16initializer_listISt4pairI9FrequencyS2_EEbP7QObject
libdmrconf.so.0:_ZN21RadioLimitIgnoredBool11qt_metacallEN11QMetaObject4CallEiPPv
libdmrconf.so.0:_ZN21RadioLimitIgnoredBool11qt_metacastEPKc
libdmrconf.so.0:_ZN21RadioLimitIgnoredBoolC1EN15RadioLimitIssue8SeverityEP7QObject
libdmrconf.so.0:_ZN21RadioLimitIgnoredBoolC2EN15RadioLimitIssue8SeverityEP7QObject
libdmrconf.so.0:_ZN21RadioLimitStringRegEx11qt_metacallEN11QMetaObject4CallEiPPv
libdmrconf.so.0:_ZN21RadioLimitStringRegEx11qt_metacastEPKc
libdmrconf.so.0:_ZN21RadioLimitStringRegExC1ERK7QStringP7QObject
libdmrconf.so.0:_ZN21RadioLimitStringRegExC2ERK7QStringP7QObject
libdmrconf.so.0:_ZN21RoamingChannelRefList11qt_metacallEN11QMetaObject4CallEiPPv
libdmrconf.so.0:_ZN21RoamingChannelRefList11qt_metacastEPKc
libdmrconf.so.0:_ZN21RoamingChannelRefListC1EP7QObject
libdmrconf.so.0:_ZN21RoamingChannelRefListC2EP7QObject
libdmrconf.so.0:_ZN22EncryptionKeyReference11qt_metacallEN11QMetaObject4CallEiPPv
libdmrconf.so.0:_ZN22EncryptionKeyReference11qt_metacastEPKc
libdmrconf.so.0:_ZN22EncryptionKeyReferenceC1EP7QObject
libdmrconf.so.0:_ZN22EncryptionKeyReferenceC2EP7QObject
libdmrconf.so.0:_ZN23AnytoneAPRSFrequencyRef11qt_metacallEN11QMetaObject4CallEiPPv
libdmrconf.so.0:_ZN23AnytoneAPRSFrequencyRef11qt_metacastEPKc
libdmrconf.so.0:_ZN23AnytoneAPRSFrequencyRefC1EP7QObject
libdmrconf.so.0:_ZN23AnytoneAPRSFrequencyRefC2EP7QObject
libdmrconf.so.0:_ZN23AnytoneChannelExtension11qt_metacallEN11QMetaObject4CallEiPPv
libdmrconf.so.0:_ZN23AnytoneChannelExtension11qt_metacastEPKc
libdmrconf.so.0:_ZN23AnytoneChannelExtension15enableHandsFreeEb
libdmrconf.so.0:_ZN23AnytoneChannelExtension16enableTalkaroundEb
libdmrconf.so.0:_ZN23AnytoneChannelExtension22setFrequencyCorrectionEi
libdmrconf.so.0:_ZN23AnytoneChannelExtensionC1EP7QObject
libdmrconf.so.0:_ZN23AnytoneChannelExtensionC2EP7QObject
libdmrconf.so.0:_ZN23AnytoneContactExtension11qt_metacallEN11QMetaObject4CallEiPPv
libdmrconf.so.0:_ZN23AnytoneContactExtension11qt_metacastEPKc
libdmrconf.so.0:_ZN23AnytoneContactExtension12setAlertTypeENS_9AlertTypeE
libdmrconf.so.0:_ZN23AnytoneContactExtensionC1EP7QObject
libdmrconf.so.0:_ZN23AnytoneContactExtensionC2EP7QObject
libdmrconf.so.0:_ZN23RadioLimitObjRefIgnored11qt_metacallEN11QMetaObject4CallEiPPv
libdmrconf.so.0:_ZN23RadioLimitObjRefIgnored11qt_metacastEPKc
libdmrconf.so.0:_ZN23RadioLimitObjRefIgnoredC1EP12ConfigObjectN15RadioLimitIssue8SeverityEP7QObject
libdmrconf.so.0:_ZN23RadioLimitObjRefIgnoredC2EP12ConfigObjectN15RadioLimitIssue8SeverityEP7QObject
libdmrconf.so.0:_ZN23RadioLimitStringIgnored11qt_metacallEN11QMetaObject4CallEiPPv
libdmrconf.so.0:_ZN23RadioLimitStringIgnored11qt_metacastEPKc
libdmrconf.so.0:_ZN23RadioLimitStringIgnoredC1EN15RadioLimitIssue8SeverityEP7QObject
libdmrconf.so.0:_ZN23RadioLimitStringIgnoredC2EN15RadioLimitIssue8SeverityEP7QObject
libdmrconf.so.0:_ZN24AbstractConfigObjectList11qt_metacallEN11QMetaObject4CallEiPPv
libdmrconf.so.0:_ZN24AbstractConfigObjectList11qt_metacastEPKc
libdmrconf.so.0:_ZN24AbstractConfigObjectList12elementAddedEi
libdmrconf.so.0:_ZN24AbstractConfigObjectList14elementRemovedEi
libdmrconf.so.0:_ZN24AbstractConfigObjectList15elementModifiedEi
libdmrconf.so.0:_ZN24AbstractConfigObjectList16onElementDeletedEP7QObject
libdmrconf.so.0:_ZN24AbstractConfigObjectList17onElementModifiedEP10ConfigItem
libdmrconf.so.0:_ZN24AbstractConfigObjectList3addEP12ConfigObjectib
libdmrconf.so.0:_ZN24AbstractConfigObjectList3delEP12ConfigObject
libdmrconf.so.0:_ZN24AbstractConfigObjectList4copyERKS_
libdmrconf.so.0:_ZN24AbstractConfigObjectList4moveEiii
libdmrconf.so.0:_ZN24AbstractConfigObjectList4takeEP12ConfigObject
libdmrconf.so.0:_ZN24AbstractConfigObjectList5clearEv
libdmrconf.so.0:_ZN24AbstractConfigObjectList6moveUpEi
libdmrconf.so.0:_ZN24AbstractConfigObjectList6moveUpEii
libdmrconf.so.0:_ZN24AbstractConfigObjectList7replaceEP12ConfigObjectib
libdmrconf.so.0:_ZN24AbstractConfigObjectList8moveDownEi
libdmrconf.so.0:_ZN24AbstractConfigObjectList8moveDownEii
libdmrconf.so.0:_ZN24AbstractConfigObjectListC1ERK11QMetaObjectP7QObject
libdmrconf.so.0:_ZN24AbstractConfigObjectListC1ERKSt16initializer_listI11QMetaObjectEP7QObject
libdmrconf.so.0:_ZN24AbstractConfigObjectListC2ERK11QMetaObjectP7QObject
libdmrconf.so.0:_ZN24AbstractConfigObjectListC2ERKSt16initializer_listI11QMetaObjectEP7QObject
libdmrconf.so.0:_ZN24AnytoneAPRSFrequencyList11qt_metacallEN11QMetaObject4CallEiPPv
libdmrconf.so.0:_ZN24AnytoneAPRSFrequencyList11qt_metacastEPKc
libdmrconf.so.0:_ZN24AnytoneAPRSFrequencyList13allocateChildERKN4YAML4NodeERN10ConfigItem7ContextERK10ErrorStack
libdmrconf.so.0:_ZN24AnytoneAPRSFrequencyListC1EP7QObject
libdmrconf.so.0:_ZN24AnytoneAPRSFrequencyListC2EP7QObject
libdmrconf.so.0:_ZN24AnytoneSettingsExtension10setSTETypeENS_7STETypeE
libdmrconf.so.0:_ZN24AnytoneSettingsExtension10setVFOStepE9Frequency
libdmrconf.so.0:_ZN24AnytoneSettingsExtension11qt_metacallEN11QMetaObject4CallEiPPv
libdmrconf.so.0:_ZN24AnytoneSettingsExtension11qt_metacastEPKc
libdmrconf.so.0:_ZN24AnytoneSettingsExtension13enableProModeEb
libdmrconf.so.0:_ZN24AnytoneSettingsExtension14setSTEDurationE8Interval
libdmrconf.so.0:_ZN24AnytoneSettingsExtension14setSelectedVFOENS_3VFOE
libdmrconf.so.0:_ZN24AnytoneSettingsExtension14setVFOScanTypeENS_11VFOScanTypeE
libdmrconf.so.0:_ZN24AnytoneSettingsExtension15setSTEFrequencyEd
libdmrconf.so.0:_ZN24AnytoneSettingsExtension16enableSubChannelEb
libdmrconf.so.0:_ZN24AnytoneSettingsExtension16setTBSTFrequencyE9Frequency
libdmrconf.so.0:_ZN24AnytoneSettingsExtension20enableKeepLastCallerEb
libdmrconf.so.0:_ZN24AnytoneSettingsExtension25enableMaintainCallChannelEb
libdmrconf.so.0:_ZN24AnytoneSettingsExtension25setMaxVFOScanFrequencyUHFE9Frequency
libdmrconf.so.0:_ZN24AnytoneSettingsExtension25setMaxVFOScanFrequencyVHFE9Frequency
libdmrconf.so.0:_ZN24AnytoneSettingsExtension25setMinVFOScanFrequencyUHFE9Frequency
libdmrconf.so.0:_ZN24AnytoneSettingsExtension25setMinVFOScanFrequencyVHFE9Frequency
libdmrconf.so.0:_ZN24AnytoneSettingsExtension5zoneAEv
libdmrconf.so.0:_ZN24AnytoneSettingsExtension5zoneBEv
libdmrconf.so.0:_ZN24AnytoneSettingsExtension8setModeAENS_7VFOModeE
libdmrconf.so.0:_ZN24AnytoneSettingsExtension8setModeBENS_7VFOModeE
libdmrconf.so.0:_ZN24AnytoneSettingsExtensionC1EP7QObject
libdmrconf.so.0:_ZN24AnytoneSettingsExtensionC2EP7QObject
libdmrconf.so.0:_ZN24OpenGD77ChannelExtension11qt_metacallEN11QMetaObject4CallEiPPv
libdmrconf.so.0:_ZN24OpenGD77ChannelExtension11qt_metacastEPKc
libdmrconf.so.0:_ZN24OpenGD77ChannelExtension17enableScanAllSkipEb
libdmrconf.so.0:_ZN24OpenGD77ChannelExtension18enableScanZoneSkipEb
libdmrconf.so.0:_ZN24OpenGD77ChannelExtension8setPowerENS_5PowerE
libdmrconf.so.0:_ZN24OpenGD77ChannelExtensionC1EP7QObject
libdmrconf.so.0:_ZN24OpenGD77ChannelExtensionC2EP7QObject
libdmrconf.so.0:_ZN24OpenGD77ContactExtension11qt_metacallEN11QMetaObject4CallEiPPv
libdmrconf.so.0:_ZN24OpenGD77ContactExtension11qt_metacastEPKc
libdmrconf.so.0:_ZN24OpenGD77ContactExtension19setTimeSlotOverrideENS_16TimeSlotOverrideE
libdmrconf.so.0:_ZN24OpenGD77ContactExtensionC1EP7QObject
libdmrconf.so.0:_ZN24OpenGD77ContactExtensionC2EP7QObject
libdmrconf.so.0:_ZN25AnytoneAutoRepeaterOffset11qt_metacallEN11QMetaObject4CallEiPPv
libdmrconf.so.0:_ZN25AnytoneAutoRepeaterOffset11qt_metacastEPKc
libdmrconf.so.0:_ZN25AnytoneAutoRepeaterOffset9setOffsetE9Frequency
libdmrconf.so.0:_ZN25AnytoneAutoRepeaterOffsetC1EP7QObject
libdmrconf.so.0:_ZN25AnytoneAutoRepeaterOffsetC2EP7QObject
libdmrconf.so.0:_ZN25AnytoneFMChannelExtension11qt_metacallEN11QMetaObject4CallEiPPv
libdmrconf.so.0:_ZN25AnytoneFMChannelExtension11qt_metacastEPKc
libdmrconf.so.0:_ZN25AnytoneFMChannelExtension14setCustomCTCSSEd
libdmrconf.so.0:_ZN25AnytoneFMChannelExtension14setSquelchModeENS_11SquelchModeE
libdmrconf.so.0:_ZN25AnytoneFMChannelExtension15enableScramblerEb
libdmrconf.so.0:_ZN25AnytoneFMChannelExtension18enableReverseBurstEb
libdmrconf.so.0:_ZN25AnytoneFMChannelExtension19enableRXCustomCTCSSEb
libdmrconf.so.0:_ZN25AnytoneFMChannelExtension19enableTXCustomCTCSSEb
libdmrconf.so.0:_ZN25AnytoneFMChannelExtensionC1EP7QObject
libdmrconf.so.0:_ZN25AnytoneFMChannelExtensionC2EP7QObject
libdmrconf.so.0:_ZN26AnytoneDMRChannelExtension11qt_metacallEN11QMetaObject4CallEiPPv
libdmrconf.so.0:_ZN26AnytoneDMRChannelExtension11qt_metacastEPKc
libdmrconf.so.0:_ZN26AnytoneDMRChannelExtension13enableDataACKEb
libdmrconf.so.0:_ZN26AnytoneDMRChannelExtension16enableLoneWorkerEb
libdmrconf.so.0:_ZN26AnytoneDMRChannelExtension16enableSMSConfirmEb
libdmrconf.so.0:_ZN26AnytoneDMRChannelExtension17enableCallConfirmEb
libdmrconf.so.0:_ZN26AnytoneDMRChannelExtension17enableSimplexTDMAEb
libdmrconf.so.0:_ZN26AnytoneDMRChannelExtension17enableThroughModeEb
libdmrconf.so.0:_ZN26AnytoneDMRChannelExtension18enableAdaptiveTDMAEb
libdmrconf.so.0:_ZN26AnytoneDMRChannelExtension9enableSMSEb
libdmrconf.so.0:_ZN26AnytoneDMRChannelExtensionC1EP7QObject
libdmrconf.so.0:_ZN26AnytoneDMRChannelExtensionC2EP7QObject
libdmrconf.so.0:_ZN26CommercialChannelExtension11qt_metacallEN11QMetaObject4CallEiPPv
libdmrconf.so.0:_ZN26CommercialChannelExtension11qt_metacastEPKc
libdmrconf.so.0:_ZN26CommercialChannelExtension13encryptionKeyEv
libdmrconf.so.0:_ZN26CommercialChannelExtension16encryptionKeyRefEv
libdmrconf.so.0:_ZN26CommercialChannelExtension16setEncryptionKeyEP13EncryptionKey
libdmrconf.so.0:_ZN26CommercialChannelExtension19setEncryptionKeyRefEP22EncryptionKeyReference
libdmrconf.so.0:_ZN26CommercialChannelExtensionC1EP7QObject
libdmrconf.so.0:_ZN26CommercialChannelExtensionC2EP7QObject
libdmrconf.so.0:_ZN26PositioningSystemReference11qt_metacallEN11QMetaObject4CallEiPPv
libdmrconf.so.0:_ZN26PositioningSystemReference11qt_metacastEPKc
libdmrconf.so.0:_ZN26PositioningSystemReferenceC1EP7QObject
libdmrconf.so.0:_ZN26PositioningSystemReferenceC1ERK11QMetaObjectP7QObject
libdmrconf.so.0:_ZN26PositioningSystemReferenceC2EP7QObject
libdmrconf.so.0:_ZN26PositioningSystemReferenceC2ERK11QMetaObjectP7QObject
libdmrconf.so.0:_ZN26RadioLimitGroupCallRefList11qt_metacallEN11QMetaObject4CallEiPPv
libdmrconf.so.0:_ZN26RadioLimitGroupCallRefList11qt_metacastEPKc
libdmrconf.so.0:_ZN26RadioLimitGroupCallRefListC1EiiP7QObject
libdmrconf.so.0:_ZN26RadioLimitGroupCallRefListC2EiiP7QObject
libdmrconf.so.0:_ZN27AnytoneDMRSettingsExtension11qt_metacallEN11QMetaObject4CallEiPPv
libdmrconf.so.0:_ZN27AnytoneDMRSettingsExtension11qt_metacastEPKc
libdmrconf.so.0:_ZN27AnytoneDMRSettingsExtension12setSMSFormatENS_9SMSFormatE
libdmrconf.so.0:_ZN27AnytoneDMRSettingsExtension13setEncryptionENS_14EncryptionTypeE
libdmrconf.so.0:_ZN27AnytoneDMRSettingsExtension15setPreWaveDelayE8Interval
libdmrconf.so.0:_ZN27AnytoneDMRSettingsExtension17enableFilterOwnIDEb
libdmrconf.so.0:_ZN27AnytoneDMRSettingsExtension17setWakeHeadPeriodE8Interval
libdmrconf.so.0:_ZN27AnytoneDMRSettingsExtension19setMonitorSlotMatchENS_9SlotMatchE
libdmrconf.so.0:_ZN27AnytoneDMRSettingsExtension20enableMonitorIDMatchEb
libdmrconf.so.0:_ZN27AnytoneDMRSettingsExtension20setGroupCallHangTimeE8Interval
libdmrconf.so.0:_ZN27AnytoneDMRSettingsExtension20setTalkerAliasSourceENS_17TalkerAliasSourceE
libdmrconf.so.0:_ZN27AnytoneDMRSettingsExtension21enableSendTalkerAliasEb
libdmrconf.so.0:_ZN27AnytoneDMRSettingsExtension22setPrivateCallHangTimeE8Interval
libdmrconf.so.0:_ZN27AnytoneDMRSettingsExtension22setTalkerAliasEncodingENS_19TalkerAliasEncodingE
libdmrconf.so.0:_ZN27AnytoneDMRSettingsExtension25enableMonitorTimeSlotHoldEb
libdmrconf.so.0:_ZN27AnytoneDMRSettingsExtension26setManualGroupCallHangTimeE8Interval
libdmrconf.so.0:_ZN27AnytoneDMRSettingsExtension27enableMonitorColorCodeMatchEb
libdmrconf.so.0:_ZN27AnytoneDMRSettingsExtension28setManualPrivateCallHangTimeE8Interval
libdmrconf.so.0:_ZN27AnytoneDMRSettingsExtensionC1EP7QObject
libdmrconf.so.0:_ZN27AnytoneDMRSettingsExtensionC2EP7QObject
libdmrconf.so.0:_ZN27AnytoneGPSSettingsExtension11qt_metacallEN11QMetaObject4CallEiPPv
libdmrconf.so.0:_ZN27AnytoneGPSSettingsExtension11qt_metacastEPKc
libdmrconf.so.0:_ZN27AnytoneGPSSettingsExtension11setTimeZoneERK9QTimeZone
libdmrconf.so.0:_ZN27AnytoneGPSSettingsExtension15setIANATimeZoneERK7QString
libdmrconf.so.0:_ZN27AnytoneGPSSettingsExtension15setUpdatePeriodE8Interval
libdmrconf.so.0:_ZN27AnytoneGPSSettingsExtension23enablePositionReportingEb
libdmrconf.so.0:_ZN27AnytoneGPSSettingsExtension7setModeENS_7GPSModeE
libdmrconf.so.0:_ZN27AnytoneGPSSettingsExtension8setUnitsENS_5UnitsE
libdmrconf.so.0:_ZN27AnytoneGPSSettingsExtensionC1EP7QObject
libdmrconf.so.0:_ZN27AnytoneGPSSettingsExtensionC2EP7QObject
libdmrconf.so.0:_ZN27AnytoneKeySettingsExtension11qt_metacallEN11QMetaObject4CallEiPPv
libdmrconf.so.0:_ZN27AnytoneKeySettingsExtension11qt_metacastEPKc
libdmrconf.so.0:_ZN27AnytoneKeySettingsExtension14enableKnobLockEb
libdmrconf.so.0:_ZN27AnytoneKeySettingsExtension15setFuncKey1LongENS_11KeyFunctionE
libdmrconf.so.0:_ZN27AnytoneKeySettingsExtension15setFuncKey2LongENS_11KeyFunctionE
libdmrconf.so.0:_ZN27AnytoneKeySettingsExtension15setFuncKey3LongENS_11KeyFunctionE
libdmrconf.so.0:_ZN27AnytoneKeySettingsExtension15setFuncKey4LongENS_11KeyFunctionE
libdmrconf.so.0:_ZN27AnytoneKeySettingsExtension15setFuncKey5LongENS_11KeyFunctionE
libdmrconf.so.0:_ZN27AnytoneKeySettingsExtension15setFuncKey6LongENS_11KeyFunctionE
libdmrconf.so.0:_ZN27AnytoneKeySettingsExtension15setFuncKeyALongENS_11KeyFunctionE
libdmrconf.so.0:_ZN27AnytoneKeySettingsExtension15setFuncKeyBLongENS_11KeyFunctionE
libdmrconf.so.0:_ZN27AnytoneKeySettingsExtension15setFuncKeyCLongENS_11KeyFunctionE
libdmrconf.so.0:_ZN27AnytoneKeySettingsExtension15setFuncKeyDLongENS_11KeyFunctionE
libdmrconf.so.0:_ZN27AnytoneKeySettingsExtension16enableKeypadLockEb
libdmrconf.so.0:_ZN27AnytoneKeySettingsExtension16setFuncKey1ShortENS_11KeyFunctionE
libdmrconf.so.0:_ZN27AnytoneKeySettingsExtension16setFuncKey2ShortENS_11KeyFunctionE
libdmrconf.so.0:_ZN27AnytoneKeySettingsExtension16setFuncKey3ShortENS_11KeyFunctionE
libdmrconf.so.0:_ZN27AnytoneKeySettingsExtension16setFuncKey4ShortENS_11KeyFunctionE
libdmrconf.so.0:_ZN27AnytoneKeySettingsExtension16setFuncKey5ShortENS_11KeyFunctionE
libdmrconf.so.0:_ZN27AnytoneKeySettingsExtension16setFuncKey6ShortENS_11KeyFunctionE
libdmrconf.so.0:_ZN27AnytoneKeySettingsExtension16setFuncKeyAShortENS_11KeyFunctionE
libdmrconf.so.0:_ZN27AnytoneKeySettingsExtension16setFuncKeyBShortENS_11KeyFunctionE
libdmrconf.so.0:_ZN27AnytoneKeySettingsExtension16setFuncKeyCShortENS_11KeyFunctionE
libdmrconf.so.0:_ZN27AnytoneKeySettingsExtension16setFuncKeyDShortENS_11KeyFunctionE
libdmrconf.so.0:_ZN27AnytoneKeySettingsExtension17enableAutoKeyLockEb
libdmrconf.so.0:_ZN27AnytoneKeySettingsExtension18enableSideKeysLockEb
libdmrconf.so.0:_ZN27AnytoneKeySettingsExtension19enableForcedKeyLockEb
libdmrconf.so.0:_ZN27AnytoneKeySettingsExtension20setLongPressDurationE8Interval
libdmrconf.so.0:_ZN27AnytoneKeySettingsExtensionC1EP7QObject
libdmrconf.so.0:_ZN27AnytoneKeySettingsExtensionC2EP7QObject
libdmrconf.so.0:_ZN27RadiodditySettingsExtension11qt_metacallEN11QMetaObject4CallEiPPv
libdmrconf.so.0:_ZN27RadiodditySettingsExtension11qt_metacastEPKc
libdmrconf.so.0:_ZN27RadiodditySettingsExtension11setLanguageENS_8LanguageE
libdmrconf.so.0:_ZN27RadiodditySettingsExtension11setScanModeENS_8ScanModeE
libdmrconf.so.0:_ZN27RadiodditySettingsExtension14disableAllLEDsEb
libdmrconf.so.0:_ZN27RadiodditySettingsExtension14setMonitorTypeENS_11MonitorTypeE
libdmrconf.so.0:_ZN27RadiodditySettingsExtension14setRepeaterSTEE8Interval
libdmrconf.so.0:_ZN27RadiodditySettingsExtension17enableTXInterruptEb
libdmrconf.so.0:_ZN27RadiodditySettingsExtension17setPowerSaveDelayE8Interval
libdmrconf.so.0:_ZN27RadiodditySettingsExtension19enablePowerSaveModeEb
libdmrconf.so.0:_ZN27RadiodditySettingsExtension19setPreambleDurationE8Interval
libdmrconf.so.0:_ZN27RadiodditySettingsExtension19setRepeaterEndDelayE8Interval
libdmrconf.so.0:_ZN27RadiodditySettingsExtension20enableWakeupPreambleEb
libdmrconf.so.0:_ZN27RadiodditySettingsExtension20setGroupCallHangTimeE8Interval
libdmrconf.so.0:_ZN27RadiodditySettingsExtension22enableUpChannelModeVFOEb
libdmrconf.so.0:_ZN27RadiodditySettingsExtension22setPrivateCallHangTimeE8Interval
libdmrconf.so.0:_ZN27RadiodditySettingsExtension23enableTXOnActiveChannelEb
libdmrconf.so.0:_ZN27RadiodditySettingsExtension23inhibitQuickKeyOverrideEb
libdmrconf.so.0:_ZN27RadiodditySettingsExtension24enableDownChannelModeVFOEb
libdmrconf.so.0:_ZN27RadiodditySettingsExtension25setLoneWorkerResponseTimeE8Interval
libdmrconf.so.0:_ZN27RadiodditySettingsExtension27setLoneWorkerReminderPeriodE8Interval
libdmrconf.so.0:_ZN27RadiodditySettingsExtensionC1EP7QObject
libdmrconf.so.0:_ZN27RadiodditySettingsExtensionC2EP7QObject
libdmrconf.so.0:_ZN28AnytoneAutoRepeaterOffsetRef11qt_metacallEN11QMetaObject4CallEiPPv
libdmrconf.so.0:_ZN28AnytoneAutoRepeaterOffsetRef11qt_metacastEPKc
libdmrconf.so.0:_ZN28AnytoneAutoRepeaterOffsetRefC1EP7QObject
libdmrconf.so.0:_ZN28AnytoneAutoRepeaterOffsetRefC2EP7QObject
libdmrconf.so.0:_ZN28AnytoneBootSettingsExtension11enableResetEb
libdmrconf.so.0:_ZN28AnytoneBootSettingsExtension11qt_metacallEN11QMetaObject4CallEiPPv
libdmrconf.so.0:_ZN28AnytoneBootSettingsExtension11qt_metacastEPKc
libdmrconf.so.0:_ZN28AnytoneBootSettingsExtension14enableGPSCheckEb
libdmrconf.so.0:_ZN28AnytoneBootSettingsExtension14setBootDisplayENS_11BootDisplayE
libdmrconf.so.0:_ZN28AnytoneBootSettingsExtension15setBootPasswordERK7QString
libdmrconf.so.0:_ZN28AnytoneBootSettingsExtension18enableBootPasswordEb
libdmrconf.so.0:_ZN28AnytoneBootSettingsExtension20enableDefaultChannelEb
libdmrconf.so.0:_ZN28AnytoneBootSettingsExtensionC1EP7QObject
libdmrconf.so.0:_ZN28AnytoneBootSettingsExtensionC2EP7QObject
libdmrconf.so.0:_ZN28AnytoneMenuSettingsExtension11qt_metacallEN11QMetaObject4CallEiPPv
libdmrconf.so.0:_ZN28AnytoneMenuSettingsExtension11qt_metacastEPKc
libdmrconf.so.0:_ZN28AnytoneMenuSettingsExtension11setDurationE8Interval
libdmrconf.so.0:_ZN28AnytoneMenuSettingsExtension15enableSeparatorEb
libdmrconf.so.0:_ZN28AnytoneMenuSettingsExtensionC1EP7QObject
libdmrconf.so.0:_ZN28AnytoneMenuSettingsExtensionC2EP7QObject
libdmrconf.so.0:_ZN28AnytoneToneSettingsExtension11qt_metacallEN11QMetaObject4CallEiPPv
libdmrconf.so.0:_ZN28AnytoneToneSettingsExtension11qt_metacastEPKc
libdmrconf.so.0:_ZN28AnytoneToneSettingsExtension13enableKeyToneEb
libdmrconf.so.0:_ZN28AnytoneToneSettingsExtension14enableSMSAlertEb
libdmrconf.so.0:_ZN28AnytoneToneSettingsExtension15enableCallAlertEb
libdmrconf.so.0:_ZN28AnytoneToneSettingsExtension15setKeyToneLevelEj
libdmrconf.so.0:_ZN28AnytoneToneSettingsExtension17enableStartupToneEb
libdmrconf.so.0:_ZN28AnytoneToneSettingsExtension21enableTOTNotificationEb
libdmrconf.so.0:_ZN28AnytoneToneSettingsExtension22enableDigitalResetToneEb
libdmrconf.so.0:_ZN28AnytoneToneSettingsExtension22enableTalkPermitAnalogEb
libdmrconf.so.0:_ZN28AnytoneToneSettingsExtension23enableFMIdleChannelToneEb
libdmrconf.so.0:_ZN28AnytoneToneSettingsExtension23enableTalkPermitDigitalEb
libdmrconf.so.0:_ZN28AnytoneToneSettingsExtension24enableDMRIdleChannelToneEb
libdmrconf.so.0:_ZN28AnytoneToneSettingsExtensionC1EP7QObject
libdmrconf.so.0:_ZN28AnytoneToneSettingsExtensionC2EP7QObject
libdmrconf.so.0:_ZN29AnytoneAudioSettingsExtension11qt_metacallEN11QMetaObject4CallEiPPv
libdmrconf.so.0:_ZN29AnytoneAudioSettingsExtension11qt_metacastEPKc
libdmrconf.so.0:_ZN29AnytoneAudioSettingsExtension11setVOXDelayE8Interval
libdmrconf.so.0:_ZN29AnytoneAudioSettingsExtension12setFMMicGainEj
libdmrconf.so.0:_ZN29AnytoneAudioSettingsExtension12setMaxVolumeEj
libdmrconf.so.0:_ZN29AnytoneAudioSettingsExtension12setMuteDelayE8Interval
libdmrconf.so.0:_ZN29AnytoneAudioSettingsExtension12setVOXSourceENS_9VoxSourceE
libdmrconf.so.0:_ZN29AnytoneAudioSettingsExtension15enableFMMicGainEb
libdmrconf.so.0:_ZN29AnytoneAudioSettingsExtension15enableRecordingEb
libdmrconf.so.0:_ZN29AnytoneAudioSettingsExtension18enableEnhanceAudioEb
libdmrconf.so.0:_ZN29AnytoneAudioSettingsExtension21setMaxHeadPhoneVolumeEj
libdmrconf.so.0:_ZN29AnytoneAudioSettingsExtensionC1EP7QObject
libdmrconf.so.0:_ZN29AnytoneAudioSettingsExtensionC2EP7QObject
libdmrconf.so.0:_ZN29AnytoneAutoRepeaterOffsetList11qt_metacallEN11QMetaObject4CallEiPPv
libdmrconf.so.0:_ZN29AnytoneAutoRepeaterOffsetList11qt_metacastEPKc
libdmrconf.so.0:_ZN29AnytoneAutoRepeaterOffsetList13allocateChildERKN4YAML4NodeERN10ConfigItem7ContextERK10ErrorStack
libdmrconf.so.0:_ZN29AnytoneAutoRepeaterOffsetListC1EP7QObject
libdmrconf.so.0:_ZN29AnytoneAutoRepeaterOffsetListC2EP7QObject
libdmrconf.so.0:_ZN29RadioLimitTransmitFrequencies11qt_metacallEN11QMetaObject4CallEiPPv
libdmrconf.so.0:_ZN29RadioLimitTransmitFrequencies11qt_metacastEPKc
libdmrconf.so.0:_ZN29RadioLimitTransmitFrequenciesC1EP7QObject
libdmrconf.so.0:_ZN29RadioLimitTransmitFrequenciesC1ERKSt16initializer_listISt4pairI9FrequencyS2_EEP7QObject
libdmrconf.so.0:_ZN29RadioLimitTransmitFrequenciesC2EP7QObject
libdmrconf.so.0:_ZN29RadioLimitTransmitFrequenciesC2ERKSt16initializer_listISt4pairI9FrequencyS2_EEP7QObject
libdmrconf.so.0:_ZN30AnytoneFMAPRSSettingsExtension10setTXDelayE8Interval
libdmrconf.so.0:_ZN30AnytoneFMAPRSSettingsExtension11qt_metacallEN11QMetaObject4CallEiPPv
libdmrconf.so.0:_ZN30AnytoneFMAPRSSettingsExtension11qt_metacastEPKc
libdmrconf.so.0:_ZN30AnytoneFMAPRSSettingsExtension13enablePassAllEb
libdmrconf.so.0:_ZN30AnytoneFMAPRSSettingsExtension15setPreWaveDelayE8Interval
libdmrconf.so.0:_ZN30AnytoneFMAPRSSettingsExtension16enableReportItemEb
libdmrconf.so.0:_ZN30AnytoneFMAPRSSettingsExtension16enableReportMicEEb
libdmrconf.so.0:_ZN30AnytoneFMAPRSSettingsExtension16enableReportNMEAEb
libdmrconf.so.0:_ZN30AnytoneFMAPRSSettingsExtension17enableReportOtherEb
libdmrconf.so.0:_ZN30AnytoneFMAPRSSettingsExtension18enableReportObjectEb
libdmrconf.so.0:_ZN30AnytoneFMAPRSSettingsExtension18enableReportStatusEb
libdmrconf.so.0:_ZN30AnytoneFMAPRSSettingsExtension19enableReportMessageEb
libdmrconf.so.0:_ZN30AnytoneFMAPRSSettingsExtension19enableReportWeatherEb
libdmrconf.so.0:_ZN30AnytoneFMAPRSSettingsExtension20enableReportPositionEb
libdmrconf.so.0:_ZN30AnytoneFMAPRSSettingsExtensionC1EP7QObject
libdmrconf.so.0:_ZN30AnytoneFMAPRSSettingsExtensionC2EP7QObject
libdmrconf.so.0:_ZN31AnytoneDisplaySettingsExtension11qt_metacallEN11QMetaObject4CallEiPPv
libdmrconf.so.0:_ZN31AnytoneDisplaySettingsExtension11qt_metacastEPKc
libdmrconf.so.0:_ZN31AnytoneDisplaySettingsExtension11setLanguageENS_8LanguageE
libdmrconf.so.0:_ZN31AnytoneDisplaySettingsExtension12setCallColorENS_5ColorE
libdmrconf.so.0:_ZN31AnytoneDisplaySettingsExtension13setBrightnessEj
libdmrconf.so.0:_ZN31AnytoneDisplaySettingsExtension13setDateFormatENS_10DateFormatE
libdmrconf.so.0:_ZN31AnytoneDisplaySettingsExtension14enableShowCallEb
libdmrconf.so.0:_ZN31AnytoneDisplaySettingsExtension15enableShowClockEb
libdmrconf.so.0:_ZN31AnytoneDisplaySettingsExtension16setZoneNameColorENS_5ColorE
libdmrconf.so.0:_ZN31AnytoneDisplaySettingsExtension17enableShowContactEb
libdmrconf.so.0:_ZN31AnytoneDisplaySettingsExtension17setZoneBNameColorENS_5ColorE
libdmrconf.so.0:_ZN31AnytoneDisplaySettingsExtension18enableShowTimeSlotEb
libdmrconf.so.0:_ZN31AnytoneDisplaySettingsExtension19enableCallEndPromptEb
libdmrconf.so.0:_ZN31AnytoneDisplaySettingsExtension19enableShowColorCodeEb
libdmrconf.so.0:_ZN31AnytoneDisplaySettingsExtension19enableShowLastHeardEb
libdmrconf.so.0:_ZN31AnytoneDisplaySettingsExtension19setChannelNameColorENS_5ColorE
libdmrconf.so.0:_ZN31AnytoneDisplaySettingsExtension19setStandbyTextColorENS_5ColorE
libdmrconf.so.0:_ZN31AnytoneDisplaySettingsExtension20setBacklightDurationE8Interval
libdmrconf.so.0:_ZN31AnytoneDisplaySettingsExtension20setChannelBNameColorENS_5ColorE
libdmrconf.so.0:_ZN31AnytoneDisplaySettingsExtension20setLastCallerDisplayENS_21LastCallerDisplayModeE
libdmrconf.so.0:_ZN31AnytoneDisplaySettingsExtension21enableShowChannelTypeEb
libdmrconf.so.0:_ZN31AnytoneDisplaySettingsExtension22enableDisplayFrequencyEb
libdmrconf.so.0:_ZN31AnytoneDisplaySettingsExtension22setBacklightDurationRXE8Interval
libdmrconf.so.0:_ZN31AnytoneDisplaySettingsExtension22setBacklightDurationTXE8Interval
libdmrconf.so.0:_ZN31AnytoneDisplaySettingsExtension23enableShowChannelNumberEb
libdmrconf.so.0:_ZN31AnytoneDisplaySettingsExtension24enableVolumeChangePromptEb
libdmrconf.so.0:_ZN31AnytoneDisplaySettingsExtension25setStandbyBackgroundColorENS_5ColorE
libdmrconf.so.0:_ZN31AnytoneDisplaySettingsExtension29enableCustomChannelBackgroundEb
libdmrconf.so.0:_ZN31AnytoneDisplaySettingsExtensionC1EP7QObject
libdmrconf.so.0:_ZN31AnytoneDisplaySettingsExtensionC2EP7QObject
libdmrconf.so.0:_ZN31AnytoneRoamingSettingsExtension11qt_metacallEN11QMetaObject4CallEiPPv
libdmrconf.so.0:_ZN31AnytoneRoamingSettingsExtension11qt_metacastEPKc
libdmrconf.so.0:_ZN31AnytoneRoamingSettingsExtension14enableAutoRoamEb
libdmrconf.so.0:_ZN31AnytoneRoamingSettingsExtension16enableGPSRoamingEb
libdmrconf.so.0:_ZN31AnytoneRoamingSettingsExtension16setAutoRoamDelayE8Interval
libdmrconf.so.0:_ZN31AnytoneRoamingSettingsExtension17setAutoRoamPeriodE8Interval
libdmrconf.so.0:_ZN31AnytoneRoamingSettingsExtension18enableNotificationEb
libdmrconf.so.0:_ZN31AnytoneRoamingSettingsExtension18setOutOfRangeAlertENS_15OutOfRangeAlertE
libdmrconf.so.0:_ZN31AnytoneRoamingSettingsExtension20setNotificationCountEj
libdmrconf.so.0:_ZN31AnytoneRoamingSettingsExtension24enableRepeaterRangeCheckEb
libdmrconf.so.0:_ZN31AnytoneRoamingSettingsExtension24setRepeaterCheckIntervalE8Interval
libdmrconf.so.0:_ZN31AnytoneRoamingSettingsExtension24setRoamingStartConditionENS_9RoamStartE
libdmrconf.so.0:_ZN31AnytoneRoamingSettingsExtension25setRoamingReturnConditionENS_9RoamStartE
libdmrconf.so.0:_ZN31AnytoneRoamingSettingsExtension26setRepeaterRangeCheckCountEj
libdmrconf.so.0:_ZN31AnytoneRoamingSettingsExtensionC1EP7QObject
libdmrconf.so.0:_ZN31AnytoneRoamingSettingsExtensionC2EP7QObject
libdmrconf.so.0:_ZN31RadioddityBootSettingsExtension10setDisplayENS_11DisplayModeE
libdmrconf.so.0:_ZN31RadioddityBootSettingsExtension11qt_metacallEN11QMetaObject4CallEiPPv
libdmrconf.so.0:_ZN31RadioddityBootSettingsExtension11qt_metacastEPKc
libdmrconf.so.0:_ZN31RadioddityBootSettingsExtension15setBootPasswordERK7QString
libdmrconf.so.0:_ZN31RadioddityBootSettingsExtension15setProgPasswordERK7QString
libdmrconf.so.0:_ZN31RadioddityBootSettingsExtensionC1EP7QObject
libdmrconf.so.0:_ZN31RadioddityBootSettingsExtensionC2EP7QObject
libdmrconf.so.0:_ZN31RadioddityToneSettingsExtension11qt_metacallEN11QMetaObject4CallEiPPv
libdmrconf.so.0:_ZN31RadioddityToneSettingsExtension11qt_metacastEPKc
libdmrconf.so.0:_ZN31RadioddityToneSettingsExtension12setFMMicGainEj
libdmrconf.so.0:_ZN31RadioddityToneSettingsExtension13enableKeyToneEb
libdmrconf.so.0:_ZN31RadioddityToneSettingsExtension15disableAllTonesEb
libdmrconf.so.0:_ZN31RadioddityToneSettingsExtension15enableResetToneEb
libdmrconf.so.0:_ZN31RadioddityToneSettingsExtension15setARTSToneModeENS_8ARTSToneE
libdmrconf.so.0:_ZN31RadioddityToneSettingsExtension16enableTXExitToneEb
libdmrconf.so.0:_ZN31RadioddityToneSettingsExtension16setKeyToneVolumeEj
libdmrconf.so.0:_ZN31RadioddityToneSettingsExtension18enableSelftestToneEb
libdmrconf.so.0:_ZN31RadioddityToneSettingsExtension20enableLowBatteryWarnEb
libdmrconf.so.0:_ZN31RadioddityToneSettingsExtension20setCallAlertDurationE8Interval
libdmrconf.so.0:_ZN31RadioddityToneSettingsExtension23enableUnknownNumberToneEb
libdmrconf.so.0:_ZN31RadioddityToneSettingsExtension23setLowBatteryWarnVolumeEj
libdmrconf.so.0:_ZN31RadioddityToneSettingsExtension25setLowBatteryWarnIntervalE8Interval
libdmrconf.so.0:_ZN31RadioddityToneSettingsExtension26enableAnalogTalkPermitToneEb
libdmrconf.so.0:_ZN31RadioddityToneSettingsExtension27enableDigitalTalkPermitToneEb
libdmrconf.so.0:_ZN31RadioddityToneSettingsExtension31enableChannelFreeIndicationToneEb
libdmrconf.so.0:_ZN31RadioddityToneSettingsExtensionC1EP7QObject
libdmrconf.so.0:_ZN31RadioddityToneSettingsExtensionC2EP7QObject
libdmrconf.so.0:_ZN33AnytoneBluetoothSettingsExtension11qt_metacallEN11QMetaObject4CallEiPPv
libdmrconf.so.0:_ZN33AnytoneBluetoothSettingsExtension11qt_metacastEPKc
libdmrconf.so.0:_ZN33AnytoneBluetoothSettingsExtension14enablePTTLatchEb
libdmrconf.so.0:_ZN33AnytoneBluetoothSettingsExtension16setPTTSleepTimerE8Interval
libdmrconf.so.0:_ZN33AnytoneBluetoothSettingsExtensionC1EP7QObject
libdmrconf.so.0:_ZN33AnytoneBluetoothSettingsExtensionC2EP7QObject
libdmrconf.so.0:_ZN33AnytonePowerSaveSettingsExtension10enableATPCEb
libdmrconf.so.0:_ZN33AnytonePowerSaveSettingsExtension11qt_metacallEN11QMetaObject4CallEiPPv
libdmrconf.so.0:_ZN33AnytonePowerSaveSettingsExtension11qt_metacastEPKc
libdmrconf.so.0:_ZN33AnytonePowerSaveSettingsExtension12setPowerSaveENS_9PowerSaveE
libdmrconf.so.0:_ZN33AnytonePowerSaveSettingsExtension15setAutoShutdownE8Interval
libdmrconf.so.0:_ZN33AnytonePowerSaveSettingsExtension29enableResetAutoShutdownOnCallEb
libdmrconf.so.0:_ZN33AnytonePowerSaveSettingsExtensionC1EP7QObject
libdmrconf.so.0:_ZN33AnytonePowerSaveSettingsExtensionC2EP7QObject
libdmrconf.so.0:_ZN33RadioddityButtonSettingsExtension11qt_metacallEN11QMetaObject4CallEiPPv
libdmrconf.so.0:_ZN33RadioddityButtonSettingsExtension11qt_metacastEPKc
libdmrconf.so.0:_ZN33RadioddityButtonSettingsExtension15setFuncKey1LongENS_8FunctionE
libdmrconf.so.0:_ZN33RadioddityButtonSettingsExtension15setFuncKey2LongENS_8FunctionE
libdmrconf.so.0:_ZN33RadioddityButtonSettingsExtension15setFuncKey3LongENS_8FunctionE
libdmrconf.so.0:_ZN33RadioddityButtonSettingsExtension16setFuncKey1ShortENS_8FunctionE
libdmrconf.so.0:_ZN33RadioddityButtonSettingsExtension16setFuncKey2ShortENS_8FunctionE
libdmrconf.so.0:_ZN33RadioddityButtonSettingsExtension16setFuncKey3ShortENS_8FunctionE
libdmrconf.so.0:_ZN33RadioddityButtonSettingsExtension20setLongPressDurationE8Interval
libdmrconf.so.0:_ZN33RadioddityButtonSettingsExtensionC1EP7QObject
libdmrconf.so.0:_ZN33RadioddityButtonSettingsExtensionC2EP7QObject
libdmrconf.so.0:_ZN36AnytoneAutoRepeaterSettingsExtension10setUHF2MaxE9Frequency
libdmrconf.so.0:_ZN36AnytoneAutoRepeaterSettingsExtension10setUHF2MinE9Frequency
libdmrconf.so.0:_ZN36AnytoneAutoRepeaterSettingsExtension10setVHF2MaxE9Frequency
libdmrconf.so.0:_ZN36AnytoneAutoRepeaterSettingsExtension10setVHF2MinE9Frequency
libdmrconf.so.0:_ZN36AnytoneAutoRepeaterSettingsExtension11qt_metacallEN11QMetaObject4CallEiPPv
libdmrconf.so.0:_ZN36AnytoneAutoRepeaterSettingsExtension11qt_metacastEPKc
libdmrconf.so.0:_ZN36AnytoneAutoRepeaterSettingsExtension13setDirectionAENS_9DirectionE
libdmrconf.so.0:_ZN36AnytoneAutoRepeaterSettingsExtension13setDirectionBENS_9DirectionE
libdmrconf.so.0:_ZN36AnytoneAutoRepeaterSettingsExtension9setUHFMaxE9Frequency
libdmrconf.so.0:_ZN36AnytoneAutoRepeaterSettingsExtension9setUHFMinE9Frequency
libdmrconf.so.0:_ZN36AnytoneAutoRepeaterSettingsExtension9setVHFMaxE9Frequency
libdmrconf.so.0:_ZN36AnytoneAutoRepeaterSettingsExtension9setVHFMinE9Frequency
libdmrconf.so.0:_ZN36AnytoneAutoRepeaterSettingsExtensionC1EP7QObject
libdmrconf.so.0:_ZN36AnytoneAutoRepeaterSettingsExtensionC2EP7QObject
libdmrconf.so.0:_ZN39AnytoneSimplexRepeaterSettingsExtension11qt_metacallEN11QMetaObject4CallEiPPv
libdmrconf.so.0:_ZN39AnytoneSimplexRepeaterSettingsExtension11qt_metacastEPKc
libdmrconf.so.0:_ZN39AnytoneSimplexRepeaterSettingsExtension11setTimeSlotENS_8TimeSlotE
libdmrconf.so.0:_ZN39AnytoneSimplexRepeaterSettingsExtension13enableMonitorEb
libdmrconf.so.0:_ZN39AnytoneSimplexRepeaterSettingsExtension6enableEb
libdmrconf.so.0:_ZN39AnytoneSimplexRepeaterSettingsExtensionC1EP7QObject
libdmrconf.so.0:_ZN39AnytoneSimplexRepeaterSettingsExtensionC2EP7QObject
libdmrconf.so.0:_ZN4GD7311qt_metacallEN11QMetaObject4CallEiPPv
libdmrconf.so.0:_ZN4GD7311qt_metacastEPKc
libdmrconf.so.0:_ZN4GD7311startUploadEP6ConfigbRKN8Codeplug5FlagsERK10ErrorStack
libdmrconf.so.0:_ZN4GD7313startDownloadEbRK10ErrorStack
libdmrconf.so.0:_ZN4GD7315uploadCallsignsEv
libdmrconf.so.0:_ZN4GD7316defaultRadioInfoEv
libdmrconf.so.0:_ZN4GD7321startUploadCallsignDBEP12UserDatabasebRKN10CallsignDB9SelectionERK10ErrorStack
libdmrconf.so.0:_ZN4GD733runEv
libdmrconf.so.0:_ZN4GD736uploadEv
libdmrconf.so.0:_ZN4GD738codeplugEv
libdmrconf.so.0:_ZN4GD738downloadEv
libdmrconf.so.0:_ZN4GD73C1EP13GD73InterfaceP7QObject
libdmrconf.so.0:_ZN4GD73C2EP13GD73InterfaceP7QObject
libdmrconf.so.0:_ZN4GD7711qt_metacallEN11QMetaObject4CallEiPPv
libdmrconf.so.0:_ZN4GD7711qt_metacastEPKc
libdmrconf.so.0:_ZN4GD7715uploadCallsignsEv
libdmrconf.so.0:_ZN4GD7716defaultRadioInfoEv
libdmrconf.so.0:_ZN4GD7721startUploadCallsignDBEP12UserDatabasebRKN10CallsignDB9SelectionERK10ErrorStack
libdmrconf.so.0:_ZN4GD778codeplugEv
libdmrconf.so.0:_ZN4GD77C1EP19RadioddityInterfaceP7QObject
libdmrconf.so.0:_ZN4GD77C2EP19RadioddityInterfaceP7QObject
libdmrconf.so.0:_ZN4RD5R11qt_metacallEN11QMetaObject4CallEiPPv
libdmrconf.so.0:_ZN4RD5R11qt_metacastEPKc
libdmrconf.so.0:_ZN4RD5R16defaultRadioInfoEv
libdmrconf.so.0:_ZN4RD5R8codeplugEv
libdmrconf.so.0:_ZN4RD5RC1EP19RadioddityInterfaceP7QObject
libdmrconf.so.0:_ZN4RD5RC2EP19RadioddityInterfaceP7QObject
libdmrconf.so.0:_ZN4RD5RD0Ev
libdmrconf.so.0:_ZN4RD5RD1Ev
libdmrconf.so.0:_ZN4RD5RD2Ev
libdmrconf.so.0:_ZN4YAML6detail16unspecified_bool10true_valueEPNS1_11NOT_ALLOWEDE
libdmrconf.so.0:_ZN4Zone11qt_metacallEN11QMetaObject4CallEiPPv
libdmrconf.so.0:_ZN4Zone11qt_metacastEPKc
libdmrconf.so.0:_ZN4Zone19setAnytoneExtensionEP20AnytoneZoneExtension
libdmrconf.so.0:_ZN4Zone1AEv
libdmrconf.so.0:_ZN4Zone1BEv
libdmrconf.so.0:_ZN4Zone5clearEv
libdmrconf.so.0:_ZN4Zone8modifiedEv
libdmrconf.so.0:_ZN4ZoneC1EP7QObject
libdmrconf.so.0:_ZN4ZoneC1ERK7QStringP7QObject
libdmrconf.so.0:_ZN4ZoneC2EP7QObject
libdmrconf.so.0:_ZN4ZoneC2ERK7QStringP7QObject
libdmrconf.so.0:_ZN4ZoneaSERKS_
libdmrconf.so.0:_ZN5CRC326updateEPKhm
libdmrconf.so.0:_ZN5CRC326updateERK10QByteArray
libdmrconf.so.0:_ZN5CRC326updateEh
libdmrconf.so.0:_ZN5CRC32C1Ev
libdmrconf.so.0:_ZN5CRC32C2Ev
libdmrconf.so.0:_ZN5MD39010callsignDBEv
libdmrconf.so.0:_ZN5MD39011qt_metacallEN11QMetaObject4CallEiPPv
libdmrconf.so.0:_ZN5MD39011qt_metacastEPKc
libdmrconf.so.0:_ZN5MD39016defaultRadioInfoEv
libdmrconf.so.0:_ZN5MD3908codeplugEv
libdmrconf.so.0:_ZN5MD390C1EP12TyTInterfaceRK10ErrorStackP7QObject
libdmrconf.so.0:_ZN5MD390C2EP12TyTInterfaceRK10ErrorStackP7QObject
libdmrconf.so.0:_ZN5QHashI7QString15QHashDummyValueE11deleteNode2EPN9QHashData4NodeE
libdmrconf.so.0:_ZN5QHashI7QString15QHashDummyValueE13duplicateNodeEPN9QHashData4NodeEPv
libdmrconf.so.0:_ZN5QHashI7QStringN11ChirpFormat4ModeEE11deleteNode2EPN9QHashData4NodeE
libdmrconf.so.0:_ZN5QHashI7QStringN11ChirpFormat4ModeEE13duplicateNodeEPN9QHashData4NodeEPv
libdmrconf.so.0:_ZN5QHashI7QStringN11ChirpFormat6DuplexEE11deleteNode2EPN9QHashData4NodeE
libdmrconf.so.0:_ZN5QHashI7QStringN11ChirpFormat6DuplexEE13duplicateNodeEPN9QHashData4NodeEPv
libdmrconf.so.0:_ZN5QHashI7QStringN11ChirpFormat8ToneModeEE11deleteNode2EPN9QHashData4NodeE
libdmrconf.so.0:_ZN5QHashI7QStringN11ChirpFormat8ToneModeEE13duplicateNodeEPN9QHashData4NodeEPv
libdmrconf.so.0:_ZN5QHashI7QStringN11ChirpFormat9CrossModeEE11deleteNode2EPN9QHashData4NodeE
libdmrconf.so.0:_ZN5QHashI7QStringN11ChirpFormat9CrossModeEE13duplicateNodeEPN9QHashData4NodeEPv
libdmrconf.so.0:_ZN5QHashI7QStringN8Codeplug7Context5TableEE11deleteNode2EPN9QHashData4NodeE
libdmrconf.so.0:_ZN5QHashI7QStringN8Codeplug7Context5TableEE13duplicateNodeEPN9QHashData4NodeEPv
libdmrconf.so.0:_ZN5QHashI7QStringN9RadioInfo5RadioEE11deleteNode2EPN9QHashData4NodeE
libdmrconf.so.0:_ZN5QHashI7QStringN9RadioInfo5RadioEE13duplicateNodeEPN9QHashData4NodeEPv
libdmrconf.so.0:_ZN5QHashI7QStringP12ConfigObjectE11deleteNode2EPN9QHashData4NodeE
libdmrconf.so.0:_ZN5QHashI7QStringP12ConfigObjectE13duplicateNodeEPN9QHashData4NodeEPv
libdmrconf.so.0:_ZN5QHashI7QStringP16RadioLimitObjectE11deleteNode2EPN9QHashData4NodeE
libdmrconf.so.0:_ZN5QHashI7QStringP16RadioLimitObjectE13duplicateNodeEPN9QHashData4NodeEPv
libdmrconf.so.0:_ZN5QHashI7QStringP17RadioLimitElementE11deleteNode2EPN9QHashData4NodeE
libdmrconf.so.0:_ZN5QHashI7QStringP17RadioLimitElementE13duplicateNodeEPN9QHashData4NodeEPv
libdmrconf.so.0:_ZN5QHashI7QStringS_IP12ConfigObjectS0_EE11deleteNode2EPN9QHashData4NodeE
libdmrconf.so.0:_ZN5QHashI7QStringS_IP12ConfigObjectS0_EE13duplicateNodeEPN9QHashData4NodeEPv
libdmrconf.so.0:_ZN5QHashI7QStringS_IS0_P12ConfigObjectEE11deleteNode2EPN9QHashData4NodeE
libdmrconf.so.0:_ZN5QHashI7QStringS_IS0_P12ConfigObjectEE13duplicateNodeEPN9QHashData4NodeEPv
libdmrconf.so.0:_ZN5QHashI7QStringjE11deleteNode2EPN9QHashData4NodeE
libdmrconf.so.0:_ZN5QHashI7QStringjE13duplicateNodeEPN9QHashData4NodeEPv
libdmrconf.so.0:_ZN5QHashI7QStringxE11deleteNode2EPN9QHashData4NodeE
libdmrconf.so.0:_ZN5QHashI7QStringxE13duplicateNodeEPN9QHashData4NodeEPv
libdmrconf.so.0:_ZN5QHashIN9Signaling4CodeEfE11deleteNode2EPN9QHashData4NodeE
libdmrconf.so.0:_ZN5QHashIN9Signaling4CodeEfE13duplicateNodeEPN9QHashData4NodeEPv
libdmrconf.so.0:_ZN5QHashIN9Signaling4CodeEtE11deleteNode2EPN9QHashData4NodeE
libdmrconf.so.0:_ZN5QHashIN9Signaling4CodeEtE13duplicateNodeEPN9QHashData4NodeEPv
libdmrconf.so.0:_ZN5QHashIP10ConfigItem15QHashDummyValueE11deleteNode2EPN9QHashData4NodeE
libdmrconf.so.0:_ZN5QHashIP10ConfigItem15QHashDummyValueE13duplicateNodeEPN9QHashData4NodeEPv
libdmrconf.so.0:_ZN5QHashIP10ConfigItemjE11deleteNode2EPN9QHashData4NodeE
libdmrconf.so.0:_ZN5QHashIP10ConfigItemjE13duplicateNodeEPN9QHashData4NodeEPv
libdmrconf.so.0:_ZN5QHashIP12ConfigObject15QHashDummyValueE11deleteNode2EPN9QHashData4NodeE
libdmrconf.so.0:_ZN5QHashIP12ConfigObject15QHashDummyValueE13duplicateNodeEPN9QHashData4NodeEPv
libdmrconf.so.0:_ZN5QHashIP12ConfigObject7QStringE11deleteNode2EPN9QHashData4NodeE
libdmrconf.so.0:_ZN5QHashIP12ConfigObject7QStringE13duplicateNodeEPN9QHashData4NodeEPv
libdmrconf.so.0:_ZN5QHashIP12ConfigObjectS1_E11deleteNode2EPN9QHashData4NodeE
libdmrconf.so.0:_ZN5QHashIP12ConfigObjectS1_E13duplicateNodeEPN9QHashData4NodeEPv
libdmrconf.so.0:_ZN5QHashIfN9Signaling4CodeEE11deleteNode2EPN9QHashData4NodeE
libdmrconf.so.0:_ZN5QHashIfN9Signaling4CodeEE13duplicateNodeEPN9QHashData4NodeEPv
libdmrconf.so.0:_ZN5QHashIh15QHashDummyValueE11deleteNode2EPN9QHashData4NodeE
libdmrconf.so.0:_ZN5QHashIh15QHashDummyValueE13duplicateNodeEPN9QHashData4NodeEPv
libdmrconf.so.0:_ZN5QHashIj15QHashDummyValueE11deleteNode2EPN9QHashData4NodeE
libdmrconf.so.0:_ZN5QHashIj15QHashDummyValueE13duplicateNodeEPN9QHashData4NodeEPv
libdmrconf.so.0:_ZN5QHashIj7QStringE11deleteNode2EPN9QHashData4NodeE
libdmrconf.so.0:_ZN5QHashIj7QStringE13duplicateNodeEPN9QHashData4NodeEPv
libdmrconf.so.0:_ZN5QHashIj9RadioInfoE11deleteNode2EPN9QHashData4NodeE
libdmrconf.so.0:_ZN5QHashIj9RadioInfoE13duplicateNodeEPN9QHashData4NodeEPv
libdmrconf.so.0:_ZN5QHashIjP10ConfigItemE11deleteNode2EPN9QHashData4NodeE
libdmrconf.so.0:_ZN5QHashIjP10ConfigItemE13duplicateNodeEPN9QHashData4NodeEPv
libdmrconf.so.0:_ZN5QHashItN9Signaling4CodeEE11deleteNode2EPN9QHashData4NodeE
libdmrconf.so.0:_ZN5QHashItN9Signaling4CodeEE13duplicateNodeEPN9QHashData4NodeEPv
libdmrconf.so.0:_ZN5Radio10callsignDBEv
libdmrconf.so.0:_ZN5Radio11qt_metacallEN11QMetaObject4CallEiPPv
libdmrconf.so.0:_ZN5Radio11qt_metacastEPKc
libdmrconf.so.0:_ZN5Radio11uploadErrorEPS_
libdmrconf.so.0:_ZN5Radio13downloadErrorEPS_
libdmrconf.so.0:_ZN5Radio13uploadStartedEv
libdmrconf.so.0:_ZN5Radio14uploadCompleteEPS_
libdmrconf.so.0:_ZN5Radio14uploadProgressEi
libdmrconf.so.0:_ZN5Radio15downloadStartedEv
libdmrconf.so.0:_ZN5Radio16downloadFinishedEPS_P8Codeplug
libdmrconf.so.0:_ZN5Radio16downloadProgressEi
libdmrconf.so.0:_ZN5Radio6detectERK19USBDeviceDescriptorRK9RadioInfoRK10ErrorStack
libdmrconf.so.0:_ZN5RadioC1EP7QObject
libdmrconf.so.0:_ZN5RadioC2EP7QObject
libdmrconf.so.0:_ZN5RadioD0Ev
libdmrconf.so.0:_ZN5RadioD1Ev
libdmrconf.so.0:_ZN5RadioD2Ev
libdmrconf.so.0:_ZN5UV39010callsignDBEv
libdmrconf.so.0:_ZN5UV39011qt_metacallEN11QMetaObject4CallEiPPv
libdmrconf.so.0:_ZN5UV39011qt_metacastEPKc
libdmrconf.so.0:_ZN5UV39016defaultRadioInfoEv
libdmrconf.so.0:_ZN5UV3908codeplugEv
libdmrconf.so.0:_ZN5UV390C1EP12TyTInterfaceP7QObject
libdmrconf.so.0:_ZN5UV390C2EP12TyTInterfaceP7QObject
libdmrconf.so.0:_ZN5UV390D0Ev
libdmrconf.so.0:_ZN5UV390D1Ev
libdmrconf.so.0:_ZN5UV390D2Ev
libdmrconf.so.0:_ZN6Config11qt_metacallEN11QMetaObject4CallEiPPv
libdmrconf.so.0:_ZN6Config11qt_metacastEPKc
libdmrconf.so.0:_ZN6Config11setModifiedEb
libdmrconf.so.0:_ZN6Config15setTyTExtensionEP18TyTConfigExtension
libdmrconf.so.0:_ZN6Config16onConfigModifiedEv
libdmrconf.so.0:_ZN6Config4copyERK10ConfigItem
libdmrconf.so.0:_ZN6Config4linkERKN4YAML4NodeERKN10ConfigItem7ContextERK10ErrorStack
libdmrconf.so.0:_ZN6Config5clearEv
libdmrconf.so.0:_ZN6Config5parseERKN4YAML4NodeERN10ConfigItem7ContextERK10ErrorStack
libdmrconf.so.0:_ZN6Config6toYAMLER11QTextStreamRK10ErrorStack
libdmrconf.so.0:_ZN6Config7readCSVER11QTextStreamR7QString
libdmrconf.so.0:_ZN6Config7readCSVERK7QStringRS0_
libdmrconf.so.0:_ZN6Config8populateERN4YAML4NodeERKN10ConfigItem7ContextERK10ErrorStack
libdmrconf.so.0:_ZN6Config8readYAMLERK7QStringRK10ErrorStack
libdmrconf.so.0:_ZN6ConfigC1EP7QObject
libdmrconf.so.0:_ZN6ConfigC2EP7QObject
libdmrconf.so.0:_ZN6D578UV11qt_metacallEN11QMetaObject4CallEiPPv
libdmrconf.so.0:_ZN6D578UV11qt_metacastEPKc
libdmrconf.so.0:_ZN6D578UV16defaultRadioInfoEv
libdmrconf.so.0:_ZN6D578UVC1EP16AnytoneInterfaceP7QObject
libdmrconf.so.0:_ZN6D578UVC2EP16AnytoneInterfaceP7QObject
libdmrconf.so.0:_ZN6D868UV11qt_metacallEN11QMetaObject4CallEiPPv
libdmrconf.so.0:_ZN6D868UV11qt_metacastEPKc
libdmrconf.so.0:_ZN6D868UV16defaultRadioInfoEv
libdmrconf.so.0:_ZN6D868UVC1EP16AnytoneInterfaceP7QObject
libdmrconf.so.0:_ZN6D868UVC2EP16AnytoneInterfaceP7QObject
libdmrconf.so.0:_ZN6D878UV11qt_metacallEN11QMetaObject4CallEiPPv
libdmrconf.so.0:_ZN6D878UV11qt_metacastEPKc
libdmrconf.so.0:_ZN6D878UV16defaultRadioInfoEv
libdmrconf.so.0:_ZN6D878UVC1EP16AnytoneInterfaceP7QObject
libdmrconf.so.0:_ZN6D878UVC2EP16AnytoneInterfaceP7QObject
libdmrconf.so.0:_ZN6DM170110callsignDBEv
libdmrconf.so.0:_ZN6DM170111qt_metacallEN11QMetaObject4CallEiPPv
libdmrconf.so.0:_ZN6DM170111qt_metacastEPKc
libdmrconf.so.0:_ZN6DM170116defaultRadioInfoEv
libdmrconf.so.0:_ZN6DM17018codeplugEv
libdmrconf.so.0:_ZN6DM1701C1EP12TyTInterfaceP7QObject
libdmrconf.so.0:_ZN6DM1701C2EP12TyTInterfaceP7QObject
libdmrconf.so.0:_ZN6Logger10addHandlerEP10LogHandler
libdmrconf.so.0:_ZN6Logger10remHandlerEP10LogHandler
libdmrconf.so.0:_ZN6Logger11qt_metacallEN11QMetaObject4CallEiPPv
libdmrconf.so.0:_ZN6Logger11qt_metacastEPKc
libdmrconf.so.0:_ZN6Logger16onHandlerDeletedEP7QObject
libdmrconf.so.0:_ZN6Logger3getEv
libdmrconf.so.0:_ZN6Logger3logERK10LogMessage
libdmrconf.so.0:_ZN6LoggerC1Ev
libdmrconf.so.0:_ZN6LoggerC2Ev
libdmrconf.so.0:_ZN6LoggerD0Ev
libdmrconf.so.0:_ZN6LoggerD1Ev
libdmrconf.so.0:_ZN6LoggerD2Ev
libdmrconf.so.0:_ZN6MD201710callsignDBEv
libdmrconf.so.0:_ZN6MD201711qt_metacallEN11QMetaObject4CallEiPPv
libdmrconf.so.0:_ZN6MD201711qt_metacastEPKc
libdmrconf.so.0:_ZN6MD201716defaultRadioInfoEv
libdmrconf.so.0:_ZN6MD20178codeplugEv
libdmrconf.so.0:_ZN6MD2017C1EP12TyTInterfaceP7QObject
libdmrconf.so.0:_ZN6MD2017C2EP12TyTInterfaceP7QObject
libdmrconf.so.0:_ZN6MD2017D0Ev
libdmrconf.so.0:_ZN6MD2017D1Ev
libdmrconf.so.0:_ZN6MD2017D2Ev
libdmrconf.so.0:_ZN6Melody11qt_metacallEN11QMetaObject4CallEiPPv
libdmrconf.so.0:_ZN6Melody11qt_metacastEPKc
libdmrconf.so.0:_ZN6Melody12fromLilypondERK7QString
libdmrconf.so.0:_ZN6Melody23quantizationTimingErrorERK7QVectorI5QPairIdjEEj
libdmrconf.so.0:_ZN6Melody3endEv
libdmrconf.so.0:_ZN6Melody4Note12fromLilypondERK7QStringNS0_8DurationE
libdmrconf.so.0:_ZN6Melody4Note23quantizationTimingErrorEjj
libdmrconf.so.0:_ZN6Melody4Note5inferEdjj
libdmrconf.so.0:_ZN6Melody4NoteC1Ev
libdmrconf.so.0:_ZN6Melody4NoteC2Ev
libdmrconf.so.0:_ZN6Melody4copyERK10ConfigItem
libdmrconf.so.0:_ZN6Melody5beginEv
libdmrconf.so.0:_ZN6Melody5inferERK7QVectorI5QPairIdjEE
libdmrconf.so.0:_ZN6Melody6setBPMEj
libdmrconf.so.0:_ZN6MelodyC1EjP7QObject
libdmrconf.so.0:_ZN6MelodyC2EjP7QObject
libdmrconf.so.0:_ZN6MelodyixEm
libdmrconf.so.0:_ZN7Channel10disableVOXEv
libdmrconf.so.0:_ZN7Channel10setTimeoutEj
libdmrconf.so.0:_ZN7Channel11qt_metacallEN11QMetaObject4CallEiPPv
libdmrconf.so.0:_ZN7Channel11qt_metacastEPKc
libdmrconf.so.0:_ZN7Channel11scanListRefEv
libdmrconf.so.0:_ZN7Channel11setScanListEP8ScanList
libdmrconf.so.0:_ZN7Channel13setVOXDefaultEv
libdmrconf.so.0:_ZN7Channel14disableTimeoutEv
libdmrconf.so.0:_ZN7Channel14setRXFrequencyE9Frequency
libdmrconf.so.0:_ZN7Channel14setTXFrequencyE9Frequency
libdmrconf.so.0:_ZN7Channel15setDefaultPowerEv
libdmrconf.so.0:_ZN7Channel17setDefaultTimeoutEv
libdmrconf.so.0:_ZN7Channel19onReferenceModifiedEv
libdmrconf.so.0:_ZN7Channel22setTyTChannelExtensionEP19TyTChannelExtension
libdmrconf.so.0:_ZN7Channel27setOpenGD77ChannelExtensionEP24OpenGD77ChannelExtension
libdmrconf.so.0:_ZN7Channel4copyERK10ConfigItem
libdmrconf.so.0:_ZN7Channel4linkERKN4YAML4NodeERKN10ConfigItem7ContextERK10ErrorStack
libdmrconf.so.0:_ZN7Channel5clearEv
libdmrconf.so.0:_ZN7Channel5parseERKN4YAML4NodeERN10ConfigItem7ContextERK10ErrorStack
libdmrconf.so.0:_ZN7Channel6setVOXEj
libdmrconf.so.0:_ZN7Channel8populateERN4YAML4NodeERKN10ConfigItem7ContextERK10ErrorStack
libdmrconf.so.0:_ZN7Channel8setPowerENS_5PowerE
libdmrconf.so.0:_ZN7Channel9setRXOnlyEb
libdmrconf.so.0:_ZN7ChannelC1EP7QObject
libdmrconf.so.0:_ZN7ChannelC1ERKS_P7QObject
libdmrconf.so.0:_ZN7ChannelC2EP7QObject
libdmrconf.so.0:_ZN7ChannelC2ERKS_P7QObject
libdmrconf.so.0:_ZN7Contact11qt_metacallEN11QMetaObject4CallEiPPv
libdmrconf.so.0:_ZN7Contact11qt_metacastEPKc
libdmrconf.so.0:_ZN7Contact4linkERKN4YAML4NodeERKN10ConfigItem7ContextERK10ErrorStack
libdmrconf.so.0:_ZN7Contact5clearEv
libdmrconf.so.0:_ZN7Contact5parseERKN4YAML4NodeERN10ConfigItem7ContextERK10ErrorStack
libdmrconf.so.0:_ZN7Contact7setRingEb
libdmrconf.so.0:_ZN7ContactC1EP7QObject
libdmrconf.so.0:_ZN7ContactC1ERK7QStringbP7QObject
libdmrconf.so.0:_ZN7ContactC2EP7QObject
libdmrconf.so.0:_ZN7ContactC2ERK7QStringbP7QObject
libdmrconf.so.0:_ZN7D878UV211qt_metacallEN11QMetaObject4CallEiPPv
libdmrconf.so.0:_ZN7D878UV211qt_metacastEPKc
libdmrconf.so.0:_ZN7D878UV216defaultRadioInfoEv
libdmrconf.so.0:_ZN7D878UV2C1EP16AnytoneInterfaceP7QObject
libdmrconf.so.0:_ZN7D878UV2C2EP16AnytoneInterfaceP7QObject
libdmrconf.so.0:_ZN7DFUFile11qt_metacallEN11QMetaObject4CallEiPPv
libdmrconf.so.0:_ZN7DFUFile11qt_metacastEPKc
libdmrconf.so.0:_ZN7DFUFile4dataEjj
libdmrconf.so.0:_ZN7DFUFile4readER5QFileRK10ErrorStack
libdmrconf.so.0:_ZN7DFUFile4readERK7QStringRK10ErrorStack
libdmrconf.so.0:_ZN7DFUFile5Image10addElementERKNS_7ElementE
libdmrconf.so.0:_ZN7DFUFile5Image10addElementEjji
libdmrconf.so.0:_ZN7DFUFile5Image10remElementEi
libdmrconf.so.0:_ZN7DFUFile5Image20setAlternateSettingsEh
libdmrconf.so.0:_ZN7DFUFile5Image4dataEj
libdmrconf.so.0:_ZN7DFUFile5Image4readER5QFileR5CRC32R7QString
libdmrconf.so.0:_ZN7DFUFile5Image4sortEv
libdmrconf.so.0:_ZN7DFUFile5Image7elementEi
libdmrconf.so.0:_ZN7DFUFile5Image7setNameERK7QString
libdmrconf.so.0:_ZN7DFUFile5ImageC1ERK7QStringh
libdmrconf.so.0:_ZN7DFUFile5ImageC1ERKS0_
libdmrconf.so.0:_ZN7DFUFile5ImageC1Ev
libdmrconf.so.0:_ZN7DFUFile5ImageC2ERK7QStringh
libdmrconf.so.0:_ZN7DFUFile5ImageC2ERKS0_
libdmrconf.so.0:_ZN7DFUFile5ImageC2Ev
libdmrconf.so.0:_ZN7DFUFile5ImageD0Ev
libdmrconf.so.0:_ZN7DFUFile5ImageD1Ev
libdmrconf.so.0:_ZN7DFUFile5ImageD2Ev
libdmrconf.so.0:_ZN7DFUFile5ImageaSERKS0_
libdmrconf.so.0:_ZN7DFUFile5imageEi
libdmrconf.so.0:_ZN7DFUFile5writeER5QFileRK10ErrorStack
libdmrconf.so.0:_ZN7DFUFile5writeERK7QStringRK10ErrorStack
libdmrconf.so.0:_ZN7DFUFile7Element10setAddressEj
libdmrconf.so.0:_ZN7DFUFile7Element4dataEv
libdmrconf.so.0:_ZN7DFUFile7Element4readER5QFileR5CRC32R7QString
libdmrconf.so.0:_ZN7DFUFile7ElementC1ERKS0_
libdmrconf.so.0:_ZN7DFUFile7ElementC1Ejj
libdmrconf.so.0:_ZN7DFUFile7ElementC1Ev
libdmrconf.so.0:_ZN7DFUFile7ElementC2ERKS0_
libdmrconf.so.0:_ZN7DFUFile7ElementC2Ejj
libdmrconf.so.0:_ZN7DFUFile7ElementC2Ev
libdmrconf.so.0:_ZN7DFUFile7ElementaSERKS0_
libdmrconf.so.0:_ZN7DFUFile8addImageERK7QStringh
libdmrconf.so.0:_ZN7DFUFile8addImageERKNS_5ImageE
libdmrconf.so.0:_ZN7DFUFile8remImageEi
libdmrconf.so.0:_ZN7DFUFileC1EP7QObject
libdmrconf.so.0:_ZN7DFUFileC2EP7QObject
libdmrconf.so.0:_ZN7OpenRTX11qt_metacallEN11QMetaObject4CallEiPPv
libdmrconf.so.0:_ZN7OpenRTX11qt_metacastEPKc
libdmrconf.so.0:_ZN7OpenRTX11startUploadEP6ConfigbRKN8Codeplug5FlagsERK10ErrorStack
libdmrconf.so.0:_ZN7OpenRTX13startDownloadEbRK10ErrorStack
libdmrconf.so.0:_ZN7OpenRTX16defaultRadioInfoEv
libdmrconf.so.0:_ZN7OpenRTX21startUploadCallsignDBEP12UserDatabasebRKN10CallsignDB9SelectionERK10ErrorStack
libdmrconf.so.0:_ZN7OpenRTX3runEv
libdmrconf.so.0:_ZN7OpenRTX6uploadERK10ErrorStack
libdmrconf.so.0:_ZN7OpenRTX7connectERK10ErrorStack
libdmrconf.so.0:_ZN7OpenRTX8codeplugEv
libdmrconf.so.0:_ZN7OpenRTX8downloadERK10ErrorStack
libdmrconf.so.0:_ZN7OpenRTXC1EP16OpenRTXInterfaceP7QObject
libdmrconf.so.0:_ZN7OpenRTXC2EP16OpenRTXInterfaceP7QObject
libdmrconf.so.0:_ZN7OpenRTXD0Ev
libdmrconf.so.0:_ZN7OpenRTXD1Ev
libdmrconf.so.0:_ZN7OpenRTXD2Ev
libdmrconf.so.0:_ZN7RadioID11qt_metacallEN11QMetaObject4CallEiPPv
libdmrconf.so.0:_ZN7RadioID11qt_metacastEPKc
libdmrconf.so.0:_ZN7RadioIDC1EP7QObject
libdmrconf.so.0:_ZN7RadioIDC1ERK7QStringP7QObject
libdmrconf.so.0:_ZN7RadioIDC2EP7QObject
libdmrconf.so.0:_ZN7RadioIDC2ERK7QStringP7QObject
libdmrconf.so.0:_ZN7Visitor10processIntEP10ConfigItemRK13QMetaPropertyRK10ErrorStack
libdmrconf.so.0:_ZN7Visitor11processBoolEP10ConfigItemRK13QMetaPropertyRK10ErrorStack
libdmrconf.so.0:_ZN7Visitor11processEnumEP10ConfigItemRK13QMetaPropertyRK10ErrorStack
libdmrconf.so.0:_ZN7Visitor11processItemEP10ConfigItemRK10ErrorStack
libdmrconf.so.0:_ZN7Visitor11processListEP24AbstractConfigObjectListRK10ErrorStack
libdmrconf.so.0:_ZN7Visitor11processUIntEP10ConfigItemRK13QMetaPropertyRK10ErrorStack
libdmrconf.so.0:_ZN7Visitor13processDoubleEP10ConfigItemRK13QMetaPropertyRK10ErrorStack
libdmrconf.so.0:_ZN7Visitor13processStringEP10ConfigItemRK13QMetaPropertyRK10ErrorStack
libdmrconf.so.0:_ZN7Visitor15processIntervalEP10ConfigItemRK13QMetaPropertyRK10ErrorStack
libdmrconf.so.0:_ZN7Visitor15processPropertyEP10ConfigItemRK13QMetaPropertyRK10ErrorStack
libdmrconf.so.0:_ZN7Visitor16processFrequencyEP10ConfigItemRK13QMetaPropertyRK10ErrorStack
libdmrconf.so.0:_ZN7Visitor16processReferenceEP21ConfigObjectReferenceRK10ErrorStack
libdmrconf.so.0:_ZN7Visitor18processUnknownTypeEP10ConfigItemRK13QMetaPropertyRK10ErrorStack
libdmrconf.so.0:_ZN7Visitor7processEP6ConfigRK10ErrorStack
libdmrconf.so.0:_ZN7VisitorC1Ev
libdmrconf.so.0:_ZN7VisitorC2Ev
libdmrconf.so.0:_ZN7VisitorD0Ev
libdmrconf.so.0:_ZN7VisitorD1Ev
libdmrconf.so.0:_ZN7VisitorD2Ev
libdmrconf.so.0:_ZN8CSVLexer11qt_metacallEN11QMetaObject4CallEiPPv
libdmrconf.so.0:_ZN8CSVLexer11qt_metacastEPKc
libdmrconf.so.0:_ZN8CSVLexer3lexEv
libdmrconf.so.0:_ZN8CSVLexer3popEv
libdmrconf.so.0:_ZN8CSVLexer4nextEv
libdmrconf.so.0:_ZN8CSVLexer4pushEv
libdmrconf.so.0:_ZN8CSVLexerC1ER11QTextStreamP7QObject
libdmrconf.so.0:_ZN8CSVLexerC2ER11QTextStreamP7QObject
libdmrconf.so.0:_ZN8Codeplug11qt_metacallEN11QMetaObject4CallEiPPv
libdmrconf.so.0:_ZN8Codeplug11qt_metacastEPKc
libdmrconf.so.0:_ZN8Codeplug5FlagsC1Ev
libdmrconf.so.0:_ZN8Codeplug5FlagsC2Ev
libdmrconf.so.0:_ZN8Codeplug7Context3addEP10ConfigItemj
libdmrconf.so.0:_ZN8Codeplug7Context3objEPK11QMetaObjectj
libdmrconf.so.0:_ZN8Codeplug7Context5indexEP10ConfigItem
libdmrconf.so.0:_ZN8Codeplug7Context8addTableEPK11QMetaObject
libdmrconf.so.0:_ZN8Codeplug7Context8getTableEPK11QMetaObject
libdmrconf.so.0:_ZN8Codeplug7ContextC1EP6Config
libdmrconf.so.0:_ZN8Codeplug7ContextC2EP6Config
libdmrconf.so.0:_ZN8Codeplug7Element10setBCD4_beEjt
libdmrconf.so.0:_ZN8Codeplug7Element10setBCD4_leEjt
libdmrconf.so.0:_ZN8Codeplug7Element10setBCD8_beEjj
libdmrconf.so.0:_ZN8Codeplug7Element10setBCD8_leEjj
libdmrconf.so.0:_ZN8Codeplug7Element10writeASCIIEjRK7QStringjh
libdmrconf.so.0:_ZN8Codeplug7Element12setUInt16_beEjt
libdmrconf.so.0:_ZN8Codeplug7Element12setUInt16_leEjt
libdmrconf.so.0:_ZN8Codeplug7Element12setUInt24_beEjj
libdmrconf.so.0:_ZN8Codeplug7Element12setUInt24_leEjj
libdmrconf.so.0:_ZN8Codeplug7Element12setUInt32_beEjj
libdmrconf.so.0:_ZN8Codeplug7Element12setUInt32_leEjj
libdmrconf.so.0:_ZN8Codeplug7Element12setUInt64_beEjm
libdmrconf.so.0:_ZN8Codeplug7Element12setUInt64_leEjm
libdmrconf.so.0:_ZN8Codeplug7Element12writeUnicodeEjRK7QStringjt
libdmrconf.so.0:_ZN8Codeplug7Element4fillEhji
libdmrconf.so.0:_ZN8Codeplug7Element5clearEv
libdmrconf.so.0:_ZN8Codeplug7Element6setBitERKNS0_6Offset9BitOffsetEb
libdmrconf.so.0:_ZN8Codeplug7Element6setBitEjjb
libdmrconf.so.0:_ZN8Codeplug7Element7setBCD2Ejh
libdmrconf.so.0:_ZN8Codeplug7Element7setInt8Eja
libdmrconf.so.0:_ZN8Codeplug7Element8clearBitEjj
libdmrconf.so.0:_ZN8Codeplug7Element8setUInt2Ejjh
libdmrconf.so.0:_ZN8Codeplug7Element8setUInt3Ejjh
libdmrconf.so.0:_ZN8Codeplug7Element8setUInt4Ejjh
libdmrconf.so.0:_ZN8Codeplug7Element8setUInt5Ejjh
libdmrconf.so.0:_ZN8Codeplug7Element8setUInt6Ejjh
libdmrconf.so.0:_ZN8Codeplug7Element8setUInt8Ejh
libdmrconf.so.0:_ZN8Codeplug7ElementC1EPhm
libdmrconf.so.0:_ZN8Codeplug7ElementC1ERKS0_
libdmrconf.so.0:_ZN8Codeplug7ElementC2EPhm
libdmrconf.so.0:_ZN8Codeplug7ElementC2ERKS0_
libdmrconf.so.0:_ZN8Codeplug7ElementD0Ev
libdmrconf.so.0:_ZN8Codeplug7ElementD1Ev
libdmrconf.so.0:_ZN8Codeplug7ElementD2Ev
libdmrconf.so.0:_ZN8Codeplug7ElementaSERKS0_
libdmrconf.so.0:_ZN8CodeplugC1EP7QObject
libdmrconf.so.0:_ZN8CodeplugC2EP7QObject
libdmrconf.so.0:_ZN8CodeplugD0Ev
libdmrconf.so.0:_ZN8CodeplugD1Ev
libdmrconf.so.0:_ZN8CodeplugD2Ev
libdmrconf.so.0:_ZN8DMR6X2UV11qt_metacallEN11QMetaObject4CallEiPPv
libdmrconf.so.0:_ZN8DMR6X2UV11qt_metacastEPKc
libdmrconf.so.0:_ZN8DMR6X2UV16defaultRadioInfoEv
libdmrconf.so.0:_ZN8DMR6X2UVC1EP16AnytoneInterfaceP7QObject
libdmrconf.so.0:_ZN8DMR6X2UVC2EP16AnytoneInterfaceP7QObject
libdmrconf.so.0:_ZN8DR1801UV11qt_metacallEN11QMetaObject4CallEiPPv
libdmrconf.so.0:_ZN8DR1801UV11qt_metacastEPKc
libdmrconf.so.0:_ZN8DR1801UV11startUploadEP6ConfigbRKN8Codeplug5FlagsERK10ErrorStack
libdmrconf.so.0:_ZN8DR1801UV13startDownloadEbRK10ErrorStack
libdmrconf.so.0:_ZN8DR1801UV16defaultRadioInfoEv
libdmrconf.so.0:_ZN8DR1801UV21startUploadCallsignDBEP12UserDatabasebRKN10CallsignDB9SelectionERK10ErrorStack
libdmrconf.so.0:_ZN8DR1801UV3runEv
libdmrconf.so.0:_ZN8DR1801UV6uploadEv
libdmrconf.so.0:_ZN8DR1801UV8codeplugEv
libdmrconf.so.0:_ZN8DR1801UV8downloadEv
libdmrconf.so.0:_ZN8DR1801UVC1EP17DR1801UVInterfaceP7QObject
libdmrconf.so.0:_ZN8DR1801UVC2EP17DR1801UVInterfaceP7QObject
libdmrconf.so.0:_ZN8HIDevice10DescriptorC1ERK13USBDeviceInfohh
libdmrconf.so.0:_ZN8HIDevice10DescriptorC2ERK13USBDeviceInfohh
libdmrconf.so.0:_ZN8HIDevice10write_readEPKhjPhjRK10ErrorStack
libdmrconf.so.0:_ZN8HIDevice11qt_metacallEN11QMetaObject4CallEiPPv
libdmrconf.so.0:_ZN8HIDevice11qt_metacastEPKc
libdmrconf.so.0:_ZN8HIDevice13hid_send_recvEPKhjPhjRK10ErrorStack
libdmrconf.so.0:_ZN8HIDevice13read_callbackEP15libusb_transfer
libdmrconf.so.0:_ZN8HIDevice5closeEv
libdmrconf.so.0:_ZN8HIDevice6detectEtt
libdmrconf.so.0:_ZN8HIDeviceC1ERK19USBDeviceDescriptorRK10ErrorStackP7QObject
libdmrconf.so.0:_ZN8HIDeviceC2ERK19USBDeviceDescriptorRK10ErrorStackP7QObject
libdmrconf.so.0:_ZN8HIDeviceD0Ev
libdmrconf.so.0:_ZN8HIDeviceD1Ev
libdmrconf.so.0:_ZN8HIDeviceD2Ev
libdmrconf.so.0:_ZN8Interval5parseERK7QString
libdmrconf.so.0:_ZN8OpenGD7711qt_metacallEN11QMetaObject4CallEiPPv
libdmrconf.so.0:_ZN8OpenGD7711qt_metacastEPKc
libdmrconf.so.0:_ZN8OpenGD7711startUploadEP6ConfigbRKN8Codeplug5FlagsERK10ErrorStack
libdmrconf.so.0:_ZN8OpenGD7713startDownloadEbRK10ErrorStack
libdmrconf.so.0:_ZN8OpenGD7715uploadCallsignsEv
libdmrconf.so.0:_ZN8OpenGD7716defaultRadioInfoEv
libdmrconf.so.0:_ZN8OpenGD7721startUploadCallsignDBEP12UserDatabasebRKN10CallsignDB9SelectionERK10ErrorStack
libdmrconf.so.0:_ZN8OpenGD773runEv
libdmrconf.so.0:_ZN8OpenGD776uploadEv
libdmrconf.so.0:_ZN8OpenGD778codeplugEv
libdmrconf.so.0:_ZN8OpenGD778downloadEv
libdmrconf.so.0:_ZN8OpenGD77C1EP17OpenGD77InterfaceP7QObject
libdmrconf.so.0:_ZN8OpenGD77C2EP17OpenGD77InterfaceP7QObject
libdmrconf.so.0:_ZN8OpenGD77D0Ev
libdmrconf.so.0:_ZN8OpenGD77D1Ev
libdmrconf.so.0:_ZN8OpenGD77D2Ev
libdmrconf.so.0:_ZN8ScanList10addChannelEP7Channeli
libdmrconf.so.0:_ZN8ScanList10remChannelEP7Channel
libdmrconf.so.0:_ZN8ScanList10remChannelEi
libdmrconf.so.0:_ZN8ScanList11qt_metacallEN11QMetaObject4CallEiPPv
libdmrconf.so.0:_ZN8ScanList11qt_metacastEPKc
libdmrconf.so.0:_ZN8ScanList16setRevertChannelEP7Channel
libdmrconf.so.0:_ZN8ScanList17setPrimaryChannelEP7Channel
libdmrconf.so.0:_ZN8ScanList19setSecondaryChannelEP7Channel
libdmrconf.so.0:_ZN8ScanList23setTyTScanListExtensionEP20TyTScanListExtension
libdmrconf.so.0:_ZN8ScanList5clearEv
libdmrconf.so.0:_ZN8ScanList6revertEv
libdmrconf.so.0:_ZN8ScanList7primaryEv
libdmrconf.so.0:_ZN8ScanList8channelsEv
libdmrconf.so.0:_ZN8ScanList9secondaryEv
libdmrconf.so.0:_ZN8ScanListC1EP7QObject
libdmrconf.so.0:_ZN8ScanListC1ERK7QStringP7QObject
libdmrconf.so.0:_ZN8ScanListC2EP7QObject
libdmrconf.so.0:_ZN8ScanListC2ERK7QStringP7QObject
libdmrconf.so.0:_ZN8ScanListaSERKS_
libdmrconf.so.0:_ZN8TyTRadio11qt_metacallEN11QMetaObject4CallEiPPv
libdmrconf.so.0:_ZN8TyTRadio11qt_metacastEPKc
libdmrconf.so.0:_ZN8TyTRadio11startUploadEP6ConfigbRKN8Codeplug5FlagsERK10ErrorStack
libdmrconf.so.0:_ZN8TyTRadio13startDownloadEbRK10ErrorStack
libdmrconf.so.0:_ZN8TyTRadio15uploadCallsignsEv
libdmrconf.so.0:_ZN8TyTRadio21startUploadCallsignDBEP12UserDatabasebRKN10CallsignDB9SelectionERK10ErrorStack
libdmrconf.so.0:_ZN8TyTRadio3runEv
libdmrconf.so.0:_ZN8TyTRadio6uploadEv
libdmrconf.so.0:_ZN8TyTRadio8downloadEv
libdmrconf.so.0:_ZN8TyTRadioC1EP12TyTInterfaceP7QObject
libdmrconf.so.0:_ZN8TyTRadioC2EP12TyTInterfaceP7QObject
libdmrconf.so.0:_ZN8TyTRadioD0Ev
libdmrconf.so.0:_ZN8TyTRadioD1Ev
libdmrconf.so.0:_ZN8TyTRadioD2Ev
libdmrconf.so.0:_ZN8ZoneList11qt_metacallEN11QMetaObject4CallEiPPv
libdmrconf.so.0:_ZN8ZoneList11qt_metacastEPKc
libdmrconf.so.0:_ZN8ZoneList13allocateChildERKN4YAML4NodeERN10ConfigItem7ContextERK10ErrorStack
libdmrconf.so.0:_ZN8ZoneList3addEP12ConfigObjectib
libdmrconf.so.0:_ZN8ZoneListC1EP7QObject
libdmrconf.so.0:_ZN8ZoneListC2EP7QObject
libdmrconf.so.0:_ZN9CSVParser11_parse_zoneExR8CSVLexer
libdmrconf.so.0:_ZN9CSVParser11qt_metacallEN11QMetaObject4CallEiPPv
libdmrconf.so.0:_ZN9CSVParser11qt_metacastEPKc
libdmrconf.so.0:_ZN9CSVParser12_parse_zonesER8CSVLexer
libdmrconf.so.0:_ZN9CSVParser13_parse_speechER8CSVLexer
libdmrconf.so.0:_ZN9CSVParser13_parse_userdbER8CSVLexer
libdmrconf.so.0:_ZN9CSVParser14_parse_contactExR8CSVLexer
libdmrconf.so.0:_ZN9CSVParser15_parse_contactsER8CSVLexer
libdmrconf.so.0:_ZN9CSVParser15_parse_radio_idER8CSVLexer
libdmrconf.so.0:_ZN9CSVParser15_parse_rx_groupExR8CSVLexer
libdmrconf.so.0:_ZN9CSVParser15_parse_scanlistExR8CSVLexer
libdmrconf.so.0:_ZN9CSVParser16_parse_mic_levelER8CSVLexer
libdmrconf.so.0:_ZN9CSVParser16_parse_rx_groupsER8CSVLexer
libdmrconf.so.0:_ZN9CSVParser16_parse_scanlistsER8CSVLexer
libdmrconf.so.0:_ZN9CSVParser17_parse_gps_systemExR8CSVLexer
libdmrconf.so.0:_ZN9CSVParser17_parse_introline1ER8CSVLexer
libdmrconf.so.0:_ZN9CSVParser17_parse_introline2ER8CSVLexer
libdmrconf.so.0:_ZN9CSVParser17_parse_radio_nameER8CSVLexer
libdmrconf.so.0:_ZN9CSVParser18_parse_aprs_systemExR8CSVLexer
libdmrconf.so.0:_ZN9CSVParser18_parse_gps_systemsER8CSVLexer
libdmrconf.so.0:_ZN9CSVParser19_parse_aprs_systemsER8CSVLexer
libdmrconf.so.0:_ZN9CSVParser19_parse_roaming_zoneExR8CSVLexer
libdmrconf.so.0:_ZN9CSVParser20_parse_roaming_zonesER8CSVLexer
libdmrconf.so.0:_ZN9CSVParser21_parse_analog_channelExR8CSVLexer
libdmrconf.so.0:_ZN9CSVParser22_parse_analog_channelsER8CSVLexer
libdmrconf.so.0:_ZN9CSVParser22_parse_digital_channelExR8CSVLexer
libdmrconf.so.0:_ZN9CSVParser23_parse_digital_channelsER8CSVLexer
libdmrconf.so.0:_ZN9CSVParser5parseER11QTextStream
libdmrconf.so.0:_ZN9CSVParserC1EP10CSVHandlerP7QObject
libdmrconf.so.0:_ZN9CSVParserC2EP10CSVHandlerP7QObject
libdmrconf.so.0:_ZN9CSVReader10handleZoneExRK7QStringbRK5QListIxExxRS0_
libdmrconf.so.0:_ZN9CSVReader11qt_metacallEN11QMetaObject4CallEiPPv
libdmrconf.so.0:_ZN9CSVReader11qt_metacastEPKc
libdmrconf.so.0:_ZN9CSVReader12handleSpeechEbxxR7QString
libdmrconf.so.0:_ZN9CSVReader13handleRadioIdERK5QListIxExxR7QString
libdmrconf.so.0:_ZN9CSVReader14handleMicLevelEjxxR7QString
libdmrconf.so.0:_ZN9CSVReader14handleScanListExRK7QStringxxxRK5QListIxExxRS0_
libdmrconf.so.0:_ZN9CSVReader15handleGPSSystemExRK7QStringxxxxxRS0_
libdmrconf.so.0:_ZN9CSVReader15handleGroupListExRK7QStringRK5QListIxExxRS0_
libdmrconf.so.0:_ZN9CSVReader15handleRadioNameERK7QStringxxRS0_
libdmrconf.so.0:_ZN9CSVReader16handleAPRSSystemExRK7QStringxxS2_jS2_jS2_S2_S2_xxRS0_
libdmrconf.so.0:_ZN9CSVReader16handleIntroLine1ERK7QStringxxRS0_
libdmrconf.so.0:_ZN9CSVReader16handleIntroLine2ERK7QStringxxRS0_
libdmrconf.so.0:_ZN9CSVReader17handleDTMFContactExRK7QStringS2_bxxRS0_
libdmrconf.so.0:_ZN9CSVReader17handleRoamingZoneExRK7QStringRK5QListIxExxRS0_
libdmrconf.so.0:_ZN9CSVReader19handleAnalogChannelExRK7QStringddN7Channel5PowerExxxbN9FMChannel5AdmitExN9Signaling4CodeES8_NS5_9BandwidthExxRS0_
libdmrconf.so.0:_ZN9CSVReader20handleDigitalChannelExRK7QStringddN7Channel5PowerExxbN10DMRChannel5AdmitExNS5_8TimeSlotExxxxxxxRS0_
libdmrconf.so.0:_ZN9CSVReader20handleDigitalContactExRK7QStringN10DMRContact4TypeExbxxRS0_
libdmrconf.so.0:_ZN9CSVReader4readEP6ConfigR11QTextStreamR7QString
libdmrconf.so.0:_ZN9CSVReaderC1EP6ConfigP7QObject
libdmrconf.so.0:_ZN9CSVReaderC2EP6ConfigP7QObject
libdmrconf.so.0:_ZN9DFUDevice10DescriptorC1ERK13USBDeviceInfohh
libdmrconf.so.0:_ZN9DFUDevice10DescriptorC2ERK13USBDeviceInfohh
libdmrconf.so.0:_ZN9DFUDevice10get_statusERK10ErrorStack
libdmrconf.so.0:_ZN9DFUDevice11qt_metacallEN11QMetaObject4CallEiPPv
libdmrconf.so.0:_ZN9DFUDevice11qt_metacastEPKc
libdmrconf.so.0:_ZN9DFUDevice12clear_statusERK10ErrorStack
libdmrconf.so.0:_ZN9DFUDevice5abortERK10ErrorStack
libdmrconf.so.0:_ZN9DFUDevice5closeEv
libdmrconf.so.0:_ZN9DFUDevice6detachEiRK10ErrorStack
libdmrconf.so.0:_ZN9DFUDevice6detectEtt
libdmrconf.so.0:_ZN9DFUDevice6uploadEjPhjRK10ErrorStack
libdmrconf.so.0:_ZN9DFUDevice8downloadEjPhjRK10ErrorStack
libdmrconf.so.0:_ZN9DFUDevice9get_stateERiRK10ErrorStack
libdmrconf.so.0:_ZN9DFUDevice9wait_idleERK10ErrorStack
libdmrconf.so.0:_ZN9DFUDeviceC1ERK19USBDeviceDescriptorRK10ErrorStackP7QObject
libdmrconf.so.0:_ZN9DFUDeviceC2ERK19USBDeviceDescriptorRK10ErrorStackP7QObject
libdmrconf.so.0:_ZN9DFUDeviceD0Ev
libdmrconf.so.0:_ZN9DFUDeviceD1Ev
libdmrconf.so.0:_ZN9DFUDeviceD2Ev
libdmrconf.so.0:_ZN9FMChannel10setSquelchEj
libdmrconf.so.0:_ZN9FMChannel11qt_metacallEN11QMetaObject4CallEiPPv
libdmrconf.so.0:_ZN9FMChannel11qt_metacastEPKc
libdmrconf.so.0:_ZN9FMChannel12setBandwidthENS_9BandwidthE
libdmrconf.so.0:_ZN9FMChannel13setAPRSSystemEP10APRSSystem
libdmrconf.so.0:_ZN9FMChannel14disableSquelchEv
libdmrconf.so.0:_ZN9FMChannel17setSquelchDefaultEv
libdmrconf.so.0:_ZN9FMChannel26setAnytoneChannelExtensionEP25AnytoneFMChannelExtension
libdmrconf.so.0:_ZN9FMChannel4aprsEv
libdmrconf.so.0:_ZN9FMChannel4copyERK10ConfigItem
libdmrconf.so.0:_ZN9FMChannel5clearEv
libdmrconf.so.0:_ZN9FMChannel5parseERKN4YAML4NodeERN10ConfigItem7ContextERK10ErrorStack
libdmrconf.so.0:_ZN9FMChannel7setAPRSEP19APRSSystemReference
libdmrconf.so.0:_ZN9FMChannel8populateERN4YAML4NodeERKN10ConfigItem7ContextERK10ErrorStack
libdmrconf.so.0:_ZN9FMChannel8setAdmitENS_5AdmitE
libdmrconf.so.0:_ZN9FMChannel9serializeERKN10ConfigItem7ContextERK10ErrorStack
libdmrconf.so.0:_ZN9FMChannel9setRXToneEN9Signaling4CodeE
libdmrconf.so.0:_ZN9FMChannel9setTXToneEN9Signaling4CodeE
libdmrconf.so.0:_ZN9FMChannelC1EP7QObject
libdmrconf.so.0:_ZN9FMChannelC1ERKS_P7QObject
libdmrconf.so.0:_ZN9FMChannelC2EP7QObject
libdmrconf.so.0:_ZN9FMChannelC2ERKS_P7QObject
libdmrconf.so.0:_ZN9Frequency10fromStringERK7QString
libdmrconf.so.0:_ZN9Frequency5parseERK7QString
libdmrconf.so.0:_ZN9FrequencyC1ERKS_
libdmrconf.so.0:_ZN9FrequencyC1Ev
libdmrconf.so.0:_ZN9FrequencyC1Ey
libdmrconf.so.0:_ZN9FrequencyC2ERKS_
libdmrconf.so.0:_ZN9FrequencyC2Ev
libdmrconf.so.0:_ZN9FrequencyC2Ey
libdmrconf.so.0:_ZN9FrequencyaSERKS_
libdmrconf.so.0:_ZN9GPSSystem10setContactEP19DMRContactReference
libdmrconf.so.0:_ZN9GPSSystem11qt_metacallEN11QMetaObject4CallEiPPv
libdmrconf.so.0:_ZN9GPSSystem11qt_metacastEPKc
libdmrconf.so.0:_ZN9GPSSystem13setContactObjEP10DMRContact
libdmrconf.so.0:_ZN9GPSSystem16setRevertChannelEP10DMRChannel
libdmrconf.so.0:_ZN9GPSSystem6revertEv
libdmrconf.so.0:_ZN9GPSSystem7contactEv
libdmrconf.so.0:_ZN9GPSSystem9serializeERKN10ConfigItem7ContextERK10ErrorStack
libdmrconf.so.0:_ZN9GPSSystem9setRevertEP19DMRChannelReference
libdmrconf.so.0:_ZN9GPSSystemC1EP7QObject
libdmrconf.so.0:_ZN9GPSSystemC1ERK7QStringP10DMRContactP10DMRChanneljP7QObject
libdmrconf.so.0:_ZN9GPSSystemC2EP7QObject
libdmrconf.so.0:_ZN9GPSSystemC2ERK7QStringP10DMRContactP10DMRChanneljP7QObject
libdmrconf.so.0:_ZN9QtPrivate11QSlotObjectIM10ConfigItemFvPS1_ENS_4ListIJS2_EEEvE4implEiPNS_15QSlotObjectBaseEP7QObjectPPvPb
libdmrconf.so.0:_ZN9QtPrivate11QSlotObjectIM21ConfigObjectReferenceFvP7QObjectENS_4ListIJS3_EEEvE4implEiPNS_15QSlotObjectBaseES3_PPvPb
libdmrconf.so.0:_ZN9RadioInfo11hasRadioKeyERK7QString
libdmrconf.so.0:_ZN9RadioInfo4byIDENS_5RadioE
libdmrconf.so.0:_ZN9RadioInfo5byKeyERK7QString
libdmrconf.so.0:_ZN9RadioInfo9allRadiosERK13USBDeviceInfob
libdmrconf.so.0:_ZN9RadioInfo9allRadiosEb
libdmrconf.so.0:_ZN9RadioInfoC1ENS_5RadioERK7QStringS1_RK13USBDeviceInfoRK5QListIS_E
libdmrconf.so.0:_ZN9RadioInfoC1ENS_5RadioERK7QStringS3_S1_RK13USBDeviceInfoRK5QListIS_E
libdmrconf.so.0:_ZN9RadioInfoC1Ev
libdmrconf.so.0:_ZN9RadioInfoC2ENS_5RadioERK7QStringS1_RK13USBDeviceInfoRK5QListIS_E
libdmrconf.so.0:_ZN9RadioInfoC2ENS_5RadioERK7QStringS3_S1_RK13USBDeviceInfoRK5QListIS_E
libdmrconf.so.0:_ZN9RadioInfoC2Ev
libdmrconf.so.0:_ZN9ScanLists11qt_metacallEN11QMetaObject4CallEiPPv
libdmrconf.so.0:_ZN9ScanLists11qt_metacastEPKc
libdmrconf.so.0:_ZN9ScanLists13allocateChildERKN4YAML4NodeERN10ConfigItem7ContextERK10ErrorStack
libdmrconf.so.0:_ZN9ScanLists3addEP12ConfigObjectib
libdmrconf.so.0:_ZN9ScanListsC1EP7QObject
libdmrconf.so.0:_ZN9ScanListsC2EP7QObject
libdmrconf.so.0:_ZN9Signaling11isDCSNormalENS_4CodeE
libdmrconf.so.0:_ZN9Signaling11isDCSNumberEt
libdmrconf.so.0:_ZN9Signaling11qt_metacallEN11QMetaObject4CallEiPPv
libdmrconf.so.0:_ZN9Signaling11qt_metacastEPKc
libdmrconf.so.0:_ZN9Signaling11toDCSNumberENS_4CodeE
libdmrconf.so.0:_ZN9Signaling12configStringENS_4CodeE
libdmrconf.so.0:_ZN9Signaling13fromDCSNumberEtb
libdmrconf.so.0:_ZN9Signaling13isDCSInvertedENS_4CodeE
libdmrconf.so.0:_ZN9Signaling16isCTCSSFrequencyEf
libdmrconf.so.0:_ZN9Signaling16toCTCSSFrequencyENS_4CodeE
libdmrconf.so.0:_ZN9Signaling18fromCTCSSFrequencyEf
libdmrconf.so.0:_ZN9Signaling5isDCSENS_4CodeE
libdmrconf.so.0:_ZN9Signaling7isCTCSSENS_4CodeE
libdmrconf.so.0:_ZN9Signaling9codeLabelENS_4CodeE
libdmrconf.so.0:_ZN9USBSerial10DescriptorC1EttRK7QStringb
libdmrconf.so.0:_ZN9USBSerial10DescriptorC2EttRK7QStringb
libdmrconf.so.0:_ZN9USBSerial11qt_metacallEN11QMetaObject4CallEiPPv
libdmrconf.so.0:_ZN9USBSerial11qt_metacastEPKc
libdmrconf.so.0:_ZN9USBSerial16signalingChangedEv
libdmrconf.so.0:_ZN9USBSerial19formatPinoutSignalsEv
libdmrconf.so.0:_ZN9USBSerial5closeEv
libdmrconf.so.0:_ZN9USBSerial6detectEttb
libdmrconf.so.0:_ZN9USBSerial6detectEv
libdmrconf.so.0:_ZN9USBSerial7onCloseEv
libdmrconf.so.0:_ZN9USBSerial7onErrorEN11QSerialPort15SerialPortErrorE
libdmrconf.so.0:_ZN9USBSerialC1ERK19USBDeviceDescriptorN11QSerialPort8BaudRateERK10ErrorStackP7QObject
libdmrconf.so.0:_ZN9USBSerialC2ERK19USBDeviceDescriptorN11QSerialPort8BaudRateERK10ErrorStackP7QObject
libdmrconf.so.0:_ZN9USBSerialD0Ev
libdmrconf.so.0:_ZN9USBSerialD1Ev
libdmrconf.so.0:_ZN9USBSerialD2Ev
libdmrconf.so.0:_ZNK10APRSSystem10metaObjectEv
libdmrconf.so.0:_ZNK10APRSSystem11destinationEv
libdmrconf.so.0:_ZNK10APRSSystem13revertChannelEv
libdmrconf.so.0:_ZNK10APRSSystem16anytoneExtensionEv
libdmrconf.so.0:_ZNK10APRSSystem4iconEv
libdmrconf.so.0:_ZNK10APRSSystem4pathEv
libdmrconf.so.0:_ZNK10APRSSystem5cloneEv
libdmrconf.so.0:_ZNK10APRSSystem6revertEv
libdmrconf.so.0:_ZNK10APRSSystem6sourceEv
libdmrconf.so.0:_ZNK10APRSSystem7messageEv
libdmrconf.so.0:_ZNK10APRSSystem7srcSSIDEv
libdmrconf.so.0:_ZNK10APRSSystem8destSSIDEv
libdmrconf.so.0:_ZNK10AddressMap4findEj
libdmrconf.so.0:_ZNK10AddressMap8containsEj
libdmrconf.so.0:_ZNK10CSVHandler10metaObjectEv
libdmrconf.so.0:_ZNK10CallsignDB10metaObjectEv
libdmrconf.so.0:_ZNK10CallsignDB9Selection10countLimitEv
libdmrconf.so.0:_ZNK10CallsignDB9Selection13hasCountLimitEv
libdmrconf.so.0:_ZNK10ConfigItem10metaObjectEv
libdmrconf.so.0:_ZNK10ConfigItem11descriptionERK13QMetaProperty
libdmrconf.so.0:_ZNK10ConfigItem11descriptionEv
libdmrconf.so.0:_ZNK10ConfigItem14hasDescriptionERK13QMetaProperty
libdmrconf.so.0:_ZNK10ConfigItem14hasDescriptionEv
libdmrconf.so.0:_ZNK10ConfigItem15longDescriptionERK13QMetaProperty
libdmrconf.so.0:_ZNK10ConfigItem15longDescriptionEv
libdmrconf.so.0:_ZNK10ConfigItem16findItemsOfTypesERK11QStringListR4QSetIPS_E
libdmrconf.so.0:_ZNK10ConfigItem18hasLongDescriptionERK13QMetaProperty
libdmrconf.so.0:_ZNK10ConfigItem18hasLongDescriptionEv
libdmrconf.so.0:_ZNK10ConfigItem6configEv
libdmrconf.so.0:_ZNK10ConfigItem7Context5getIdEP12ConfigObject
libdmrconf.so.0:_ZNK10ConfigItem7Context6getObjERK7QString
libdmrconf.so.0:_ZNK10ConfigItem7Context7versionEv
libdmrconf.so.0:_ZNK10ConfigItem7Context8containsEP12ConfigObject
libdmrconf.so.0:_ZNK10ConfigItem7Context8containsERK7QString
libdmrconf.so.0:_ZNK10ConfigItem7compareERKS_
libdmrconf.so.0:_ZNK10DMRChannel10metaObjectEv
libdmrconf.so.0:_ZNK10DMRChannel10radioIdObjEv
libdmrconf.so.0:_ZNK10DMRChannel11roamingZoneEv
libdmrconf.so.0:_ZNK10DMRChannel12groupListObjEv
libdmrconf.so.0:_ZNK10DMRChannel12txContactObjEv
libdmrconf.so.0:_ZNK10DMRChannel19commercialExtensionEv
libdmrconf.so.0:_ZNK10DMRChannel23anytoneChannelExtensionEv
libdmrconf.so.0:_ZNK10DMRChannel4aprsEv
libdmrconf.so.0:_ZNK10DMRChannel5admitEv
libdmrconf.so.0:_ZNK10DMRChannel5cloneEv
libdmrconf.so.0:_ZNK10DMRChannel7aprsObjEv
libdmrconf.so.0:_ZNK10DMRChannel7contactEv
libdmrconf.so.0:_ZNK10DMRChannel7radioIdEv
libdmrconf.so.0:_ZNK10DMRChannel7roamingEv
libdmrconf.so.0:_ZNK10DMRChannel8timeSlotEv
libdmrconf.so.0:_ZNK10DMRChannel9colorCodeEv
libdmrconf.so.0:_ZNK10DMRChannel9groupListEv
libdmrconf.so.0:_ZNK10DMRContact10metaObjectEv
libdmrconf.so.0:_ZNK10DMRContact16anytoneExtensionEv
libdmrconf.so.0:_ZNK10DMRContact24openGD77ContactExtensionEv
libdmrconf.so.0:_ZNK10DMRContact4typeEv
libdmrconf.so.0:_ZNK10DMRContact5cloneEv
libdmrconf.so.0:_ZNK10DMRContact6numberEv
libdmrconf.so.0:_ZNK10DMRRadioID10metaObjectEv
libdmrconf.so.0:_ZNK10DMRRadioID5cloneEv
libdmrconf.so.0:_ZNK10DMRRadioID6numberEv
libdmrconf.so.0:_ZNK10ErrorStack4pushERKNS_7MessageE
libdmrconf.so.0:_ZNK10ErrorStack4takeERKS_
libdmrconf.so.0:_ZNK10ErrorStack5Stack5countEv
libdmrconf.so.0:_ZNK10ErrorStack5Stack6formatERK7QString
libdmrconf.so.0:_ZNK10ErrorStack5Stack7isEmptyEv
libdmrconf.so.0:_ZNK10ErrorStack5Stack7messageEj
libdmrconf.so.0:_ZNK10ErrorStack5countEv
libdmrconf.so.0:_ZNK10ErrorStack6formatERK7QString
libdmrconf.so.0:_ZNK10ErrorStack7Message4fileEv
libdmrconf.so.0:_ZNK10ErrorStack7Message4lineEv
libdmrconf.so.0:_ZNK10ErrorStack7Message6formatEv
libdmrconf.so.0:_ZNK10ErrorStack7Message7messageEv
libdmrconf.so.0:_ZNK10ErrorStack7isEmptyEv
libdmrconf.so.0:_ZNK10ErrorStack7messageEj
libdmrconf.so.0:_ZNK10GD73Limits10metaObjectEv
libdmrconf.so.0:_ZNK10GD77Limits10metaObjectEv
libdmrconf.so.0:_ZNK10LogHandler10metaObjectEv
libdmrconf.so.0:_ZNK10LogMessage4fileEv
libdmrconf.so.0:_ZNK10LogMessage4lineEv
libdmrconf.so.0:_ZNK10LogMessage5levelEv
libdmrconf.so.0:_ZNK10LogMessage7messageEv
libdmrconf.so.0:_ZNK10RD5RLimits10metaObjectEv
libdmrconf.so.0:_ZNK11C7000Device10metaObjectEv
libdmrconf.so.0:_ZNK11C7000Device6Packet10subcommandEv
libdmrconf.so.0:_ZNK11C7000Device6Packet11payloadSizeEv
libdmrconf.so.0:_ZNK11C7000Device6Packet5flagsEv
libdmrconf.so.0:_ZNK11C7000Device6Packet7commandEv
libdmrconf.so.0:_ZNK11C7000Device6Packet7encodedEv
libdmrconf.so.0:_ZNK11C7000Device6Packet7isValidEv
libdmrconf.so.0:_ZNK11C7000Device6Packet7payloadEv
libdmrconf.so.0:_ZNK11C7000Device6isOpenEv
libdmrconf.so.0:_ZNK11ChannelList10metaObjectEv
libdmrconf.so.0:_ZNK11ChannelList14findDMRChannelE9FrequencyS0_N10DMRChannel8TimeSlotEj
libdmrconf.so.0:_ZNK11ChannelList21findFMChannelByTxFreqE9Frequency
libdmrconf.so.0:_ZNK11ChannelList7channelEi
libdmrconf.so.0:_ZNK11ContactList10metaObjectEv
libdmrconf.so.0:_ZNK11ContactList11dtmfContactEi
libdmrconf.so.0:_ZNK11ContactList12digitalCountEv
libdmrconf.so.0:_ZNK11ContactList14digitalContactEi
libdmrconf.so.0:_ZNK11ContactList18findDigitalContactEj
libdmrconf.so.0:_ZNK11ContactList7contactEi
libdmrconf.so.0:_ZNK11ContactList9dtmfCountEv
libdmrconf.so.0:_ZNK11DFUSEDevice9blocksizeEv
libdmrconf.so.0:_ZNK11DTMFContact10metaObjectEv
libdmrconf.so.0:_ZNK11DTMFContact5cloneEv
libdmrconf.so.0:_ZNK11DTMFContact6numberEv
libdmrconf.so.0:_ZNK11DTMFRadioID10metaObjectEv
libdmrconf.so.0:_ZNK11DTMFRadioID5cloneEv
libdmrconf.so.0:_ZNK11DTMFRadioID6numberEv
libdmrconf.so.0:_ZNK11MD390Limits10metaObjectEv
libdmrconf.so.0:_ZNK11RXGroupList10metaObjectEv
libdmrconf.so.0:_ZNK11RXGroupList5cloneEv
libdmrconf.so.0:_ZNK11RXGroupList5countEv
libdmrconf.so.0:_ZNK11RXGroupList7contactEi
libdmrconf.so.0:_ZNK11RXGroupList8contactsEv
libdmrconf.so.0:_ZNK11RadioIDList10metaObjectEv
libdmrconf.so.0:_ZNK11RadioIDList4findEj
libdmrconf.so.0:_ZNK11RadioIDList5getIdEi
libdmrconf.so.0:_ZNK11RadioLimits10metaObjectEv
libdmrconf.so.0:_ZNK11RadioLimits12verifyConfigEPK6ConfigR17RadioLimitContext
libdmrconf.so.0:_ZNK11RadioLimits13hasCallSignDBEv
libdmrconf.so.0:_ZNK11RadioLimits20numCallSignDBEntriesEv
libdmrconf.so.0:_ZNK11RadioLimits21callSignDBImplementedEv
libdmrconf.so.0:_ZNK11RoamingZone10metaObjectEv
libdmrconf.so.0:_ZNK11RoamingZone5cloneEv
libdmrconf.so.0:_ZNK11RoamingZone5countEv
libdmrconf.so.0:_ZNK11RoamingZone7channelEi
libdmrconf.so.0:_ZNK11RoamingZone8channelsEv
libdmrconf.so.0:_ZNK11RoamingZone8containsEPK14RoamingChannel
libdmrconf.so.0:_ZNK11SMSTemplate10metaObjectEv
libdmrconf.so.0:_ZNK11SMSTemplate5cloneEv
libdmrconf.so.0:_ZNK11SMSTemplate7messageEv
libdmrconf.so.0:_ZNK11TyTCodeplug10metaObjectEv
libdmrconf.so.0:_ZNK11TyTCodeplug11ZoneElement11memberIndexEj
libdmrconf.so.0:_ZNK11TyTCodeplug11ZoneElement4nameEv
libdmrconf.so.0:_ZNK11TyTCodeplug11ZoneElement7isValidEv
libdmrconf.so.0:_ZNK11TyTCodeplug11ZoneElement8linkZoneEP4ZoneRN8Codeplug7ContextE
libdmrconf.so.0:_ZNK11TyTCodeplug11ZoneElement9toZoneObjEv
libdmrconf.so.0:_ZNK11TyTCodeplug14ChannelElement10dtmfDecodeEh
libdmrconf.so.0:_ZNK11TyTCodeplug14ChannelElement10loneWorkerEv
libdmrconf.so.0:_ZNK11TyTCodeplug14ChannelElement10talkaroundEv
libdmrconf.so.0:_ZNK11TyTCodeplug14ChannelElement11privacyTypeEv
libdmrconf.so.0:_ZNK11TyTCodeplug14ChannelElement11rxFrequencyEv
libdmrconf.so.0:_ZNK11TyTCodeplug14ChannelElement11rxSignalingEv
libdmrconf.so.0:_ZNK11TyTCodeplug14ChannelElement11txFrequencyEv
libdmrconf.so.0:_ZNK11TyTCodeplug14ChannelElement11txSignalingEv
libdmrconf.so.0:_ZNK11TyTCodeplug14ChannelElement12contactIndexEv
libdmrconf.so.0:_ZNK11TyTCodeplug14ChannelElement12displayPTTIdEv
libdmrconf.so.0:_ZNK11TyTCodeplug14ChannelElement12privacyIndexEv
libdmrconf.so.0:_ZNK11TyTCodeplug14ChannelElement12toChannelObjERK10ErrorStack
libdmrconf.so.0:_ZNK11TyTCodeplug14ChannelElement13scanListIndexEv
libdmrconf.so.0:_ZNK11TyTCodeplug14ChannelElement14admitCriterionEv
libdmrconf.so.0:_ZNK11TyTCodeplug14ChannelElement14groupListIndexEv
libdmrconf.so.0:_ZNK11TyTCodeplug14ChannelElement14linkChannelObjEP7ChannelRN8Codeplug7ContextERK10ErrorStack
libdmrconf.so.0:_ZNK11TyTCodeplug14ChannelElement14rxRefFrequencyEv
libdmrconf.so.0:_ZNK11TyTCodeplug14ChannelElement14txRefFrequencyEv
libdmrconf.so.0:_ZNK11TyTCodeplug14ChannelElement15dataCallConfirmEv
libdmrconf.so.0:_ZNK11TyTCodeplug14ChannelElement17emergencyAlarmACKEv
libdmrconf.so.0:_ZNK11TyTCodeplug14ChannelElement18privateCallConfirmEv
libdmrconf.so.0:_ZNK11TyTCodeplug14ChannelElement19txTimeOutRekeyDelayEv
libdmrconf.so.0:_ZNK11TyTCodeplug14ChannelElement20emergencySystemIndexEv
libdmrconf.so.0:_ZNK11TyTCodeplug14ChannelElement22positioningSystemIndexEv
libdmrconf.so.0:_ZNK11TyTCodeplug14ChannelElement22rxSignalingSystemIndexEv
libdmrconf.so.0:_ZNK11TyTCodeplug14ChannelElement22txSignalingSystemIndexEv
libdmrconf.so.0:_ZNK11TyTCodeplug14ChannelElement3voxEv
libdmrconf.so.0:_ZNK11TyTCodeplug14ChannelElement4modeEv
libdmrconf.so.0:_ZNK11TyTCodeplug14ChannelElement4nameEv
libdmrconf.so.0:_ZNK11TyTCodeplug14ChannelElement6rxOnlyEv
libdmrconf.so.0:_ZNK11TyTCodeplug14ChannelElement7isValidEv
libdmrconf.so.0:_ZNK11TyTCodeplug14ChannelElement8autoScanEv
libdmrconf.so.0:_ZNK11TyTCodeplug14ChannelElement8timeSlotEv
libdmrconf.so.0:_ZNK11TyTCodeplug14ChannelElement9bandwidthEv
libdmrconf.so.0:_ZNK11TyTCodeplug14ChannelElement9colorCodeEv
libdmrconf.so.0:_ZNK11TyTCodeplug14ChannelElement9rxGPSInfoEv
libdmrconf.so.0:_ZNK11TyTCodeplug14ChannelElement9txGPSInfoEv
libdmrconf.so.0:_ZNK11TyTCodeplug14ChannelElement9txTimeOutEv
libdmrconf.so.0:_ZNK11TyTCodeplug14ContactElement12toContactObjEv
libdmrconf.so.0:_ZNK11TyTCodeplug14ContactElement4nameEv
libdmrconf.so.0:_ZNK11TyTCodeplug14ContactElement5dmrIdEv
libdmrconf.so.0:_ZNK11TyTCodeplug14ContactElement7isValidEv
libdmrconf.so.0:_ZNK11TyTCodeplug14ContactElement8callTypeEv
libdmrconf.so.0:_ZNK11TyTCodeplug14ContactElement8ringToneEv
libdmrconf.so.0:_ZNK11TyTCodeplug14MessageElement4textEv
libdmrconf.so.0:_ZNK11TyTCodeplug14MessageElement7isValidEv
libdmrconf.so.0:_ZNK11TyTCodeplug15ScanListElement11memberIndexEj
libdmrconf.so.0:_ZNK11TyTCodeplug15ScanListElement14txChannelIndexEv
libdmrconf.so.0:_ZNK11TyTCodeplug15ScanListElement18prioritySampleTimeEv
libdmrconf.so.0:_ZNK11TyTCodeplug15ScanListElement21priorityChannel1IndexEv
libdmrconf.so.0:_ZNK11TyTCodeplug15ScanListElement21priorityChannel2IndexEv
libdmrconf.so.0:_ZNK11TyTCodeplug15ScanListElement4nameEv
libdmrconf.so.0:_ZNK11TyTCodeplug15ScanListElement7isValidEv
libdmrconf.so.0:_ZNK11TyTCodeplug15ScanListElement8holdTimeEv
libdmrconf.so.0:_ZNK11TyTCodeplug16GPSSystemElement14repeatIntervalEv
libdmrconf.so.0:_ZNK11TyTCodeplug16GPSSystemElement18revertChannelIndexEv
libdmrconf.so.0:_ZNK11TyTCodeplug16GPSSystemElement22repeatIntervalDisabledEv
libdmrconf.so.0:_ZNK11TyTCodeplug16GPSSystemElement23destinationContactIndexEv
libdmrconf.so.0:_ZNK11TyTCodeplug16GPSSystemElement23revertChannelIsSelectedEv
libdmrconf.so.0:_ZNK11TyTCodeplug16GPSSystemElement26destinationContactDisabledEv
libdmrconf.so.0:_ZNK11TyTCodeplug16GPSSystemElement7isValidEv
libdmrconf.so.0:_ZNK11TyTCodeplug16GroupListElement11memberIndexEj
libdmrconf.so.0:_ZNK11TyTCodeplug16GroupListElement4nameEv
libdmrconf.so.0:_ZNK11TyTCodeplug16GroupListElement7isValidEv
libdmrconf.so.0:_ZNK11TyTCodeplug16TimestampElement10cpsVersionEv
libdmrconf.so.0:_ZNK11TyTCodeplug16TimestampElement9timestampEv
libdmrconf.so.0:_ZNK11TyTCodeplug17EncryptionElement11enhancedKeyEj
libdmrconf.so.0:_ZNK11TyTCodeplug17EncryptionElement13isBasicKeySetEj
libdmrconf.so.0:_ZNK11TyTCodeplug17EncryptionElement16isEnhancedKeySetEj
libdmrconf.so.0:_ZNK11TyTCodeplug17EncryptionElement8basicKeyEj
libdmrconf.so.0:_ZNK11TyTCodeplug18MessageBankElement7messageEj
libdmrconf.so.0:_ZNK11TyTCodeplug19MenuSettingsElement10bootScreenEv
libdmrconf.so.0:_ZNK11TyTCodeplug19MenuSettingsElement10keypadLockEv
libdmrconf.so.0:_ZNK11TyTCodeplug19MenuSettingsElement10manualDialEv
libdmrconf.so.0:_ZNK11TyTCodeplug19MenuSettingsElement10talkaroundEv
libdmrconf.so.0:_ZNK11TyTCodeplug19MenuSettingsElement11displayModeEv
libdmrconf.so.0:_ZNK11TyTCodeplug19MenuSettingsElement11textMessageEv
libdmrconf.so.0:_ZNK11TyTCodeplug19MenuSettingsElement12ledIndicatorEv
libdmrconf.so.0:_ZNK11TyTCodeplug19MenuSettingsElement12menuHangtimeEv
libdmrconf.so.0:_ZNK11TyTCodeplug19MenuSettingsElement13callLogMissedEv
libdmrconf.so.0:_ZNK11TyTCodeplug19MenuSettingsElement13remoteMonitorEv
libdmrconf.so.0:_ZNK11TyTCodeplug19MenuSettingsElement14contactEditingEv
libdmrconf.so.0:_ZNK11TyTCodeplug19MenuSettingsElement15callLogAnsweredEv
libdmrconf.so.0:_ZNK11TyTCodeplug19MenuSettingsElement15callLogOutgoingEv
libdmrconf.so.0:_ZNK11TyTCodeplug19MenuSettingsElement15scanListEditingEv
libdmrconf.so.0:_ZNK11TyTCodeplug19MenuSettingsElement16radioProgrammingEv
libdmrconf.so.0:_ZNK11TyTCodeplug19MenuSettingsElement16remoteRadioCheckEv
libdmrconf.so.0:_ZNK11TyTCodeplug19MenuSettingsElement17remoteRadioEnableEv
libdmrconf.so.0:_ZNK11TyTCodeplug19MenuSettingsElement18remoteRadioDisableEv
libdmrconf.so.0:_ZNK11TyTCodeplug19MenuSettingsElement22menuHangtimeIsInfiniteEv
libdmrconf.so.0:_ZNK11TyTCodeplug19MenuSettingsElement3voxEv
libdmrconf.so.0:_ZNK11TyTCodeplug19MenuSettingsElement4scanEv
libdmrconf.so.0:_ZNK11TyTCodeplug19MenuSettingsElement5powerEv
libdmrconf.so.0:_ZNK11TyTCodeplug19MenuSettingsElement7squelchEv
libdmrconf.so.0:_ZNK11TyTCodeplug19MenuSettingsElement8passwordEv
libdmrconf.so.0:_ZNK11TyTCodeplug19MenuSettingsElement9alertToneEv
libdmrconf.so.0:_ZNK11TyTCodeplug19MenuSettingsElement9backlightEv
libdmrconf.so.0:_ZNK11TyTCodeplug19MenuSettingsElement9callAlertEv
libdmrconf.so.0:_ZNK11TyTCodeplug21ButtonSettingsElement15sideButton1LongEv
libdmrconf.so.0:_ZNK11TyTCodeplug21ButtonSettingsElement15sideButton2LongEv
libdmrconf.so.0:_ZNK11TyTCodeplug21ButtonSettingsElement16sideButton1ShortEv
libdmrconf.so.0:_ZNK11TyTCodeplug21ButtonSettingsElement16sideButton2ShortEv
libdmrconf.so.0:_ZNK11TyTCodeplug21ButtonSettingsElement17longPressDurationEv
libdmrconf.so.0:_ZNK11TyTCodeplug22EmergencySystemElement13politeRetriesEv
libdmrconf.so.0:_ZNK11TyTCodeplug22EmergencySystemElement14hotMICDurationEv
libdmrconf.so.0:_ZNK11TyTCodeplug22EmergencySystemElement15impoliteRetriesEv
libdmrconf.so.0:_ZNK11TyTCodeplug22EmergencySystemElement18revertChannelIndexEv
libdmrconf.so.0:_ZNK11TyTCodeplug22EmergencySystemElement23revertChannelIsSelectedEv
libdmrconf.so.0:_ZNK11TyTCodeplug22EmergencySystemElement4nameEv
libdmrconf.so.0:_ZNK11TyTCodeplug22EmergencySystemElement7isValidEv
libdmrconf.so.0:_ZNK11TyTCodeplug22EmergencySystemElement9alarmModeEv
libdmrconf.so.0:_ZNK11TyTCodeplug22EmergencySystemElement9alarmTypeEv
libdmrconf.so.0:_ZNK11TyTCodeplug22GeneralSettingsElement10introLine1Ev
libdmrconf.so.0:_ZNK11TyTCodeplug22GeneralSettingsElement10introLine2Ev
libdmrconf.so.0:_ZNK11TyTCodeplug22GeneralSettingsElement10saveModeRXEv
libdmrconf.so.0:_ZNK11TyTCodeplug22GeneralSettingsElement11monitorTypeEv
libdmrconf.so.0:_ZNK11TyTCodeplug22GeneralSettingsElement12introPictureEv
libdmrconf.so.0:_ZNK11TyTCodeplug22GeneralSettingsElement12savePreambleEv
libdmrconf.so.0:_ZNK11TyTCodeplug22GeneralSettingsElement13backlightTimeEv
libdmrconf.so.0:_ZNK11TyTCodeplug22GeneralSettingsElement13passwdAndLockEv
libdmrconf.so.0:_ZNK11TyTCodeplug22GeneralSettingsElement13voxSesitivityEv
libdmrconf.so.0:_ZNK11TyTCodeplug22GeneralSettingsElement14keypadLockTimeEv
libdmrconf.so.0:_ZNK11TyTCodeplug22GeneralSettingsElement14pcProgPasswordEv
libdmrconf.so.0:_ZNK11TyTCodeplug22GeneralSettingsElement15allLEDsDisabledEv
libdmrconf.so.0:_ZNK11TyTCodeplug22GeneralSettingsElement15powerOnPasswordEv
libdmrconf.so.0:_ZNK11TyTCodeplug22GeneralSettingsElement16allTonesDisabledEv
libdmrconf.so.0:_ZNK11TyTCodeplug22GeneralSettingsElement17backlightIsAlwaysEv
libdmrconf.so.0:_ZNK11TyTCodeplug22GeneralSettingsElement17groupCallHangTimeEv
libdmrconf.so.0:_ZNK11TyTCodeplug22GeneralSettingsElement17radioProgPasswordEv
libdmrconf.so.0:_ZNK11TyTCodeplug22GeneralSettingsElement18keypadLockIsManualEv
libdmrconf.so.0:_ZNK11TyTCodeplug22GeneralSettingsElement18lowBatteryIntervalEv
libdmrconf.so.0:_ZNK11TyTCodeplug22GeneralSettingsElement18scanAnalogHangTimeEv
libdmrconf.so.0:_ZNK11TyTCodeplug22GeneralSettingsElement18txPreambleDurationEv
libdmrconf.so.0:_ZNK11TyTCodeplug22GeneralSettingsElement19privateCallHangTimeEv
libdmrconf.so.0:_ZNK11TyTCodeplug22GeneralSettingsElement19scanDigitalHangTimeEv
libdmrconf.so.0:_ZNK11TyTCodeplug22GeneralSettingsElement20chFreeIndicationToneEv
libdmrconf.so.0:_ZNK11TyTCodeplug22GeneralSettingsElement20talkPermitToneAnalogEv
libdmrconf.so.0:_ZNK11TyTCodeplug22GeneralSettingsElement21callAlertToneDurationEv
libdmrconf.so.0:_ZNK11TyTCodeplug22GeneralSettingsElement21pcProgPasswordEnabledEv
libdmrconf.so.0:_ZNK11TyTCodeplug22GeneralSettingsElement21talkPermitToneDigitalEv
libdmrconf.so.0:_ZNK11TyTCodeplug22GeneralSettingsElement22loneWorkerReminderTimeEv
libdmrconf.so.0:_ZNK11TyTCodeplug22GeneralSettingsElement22loneWorkerResponseTimeEv
libdmrconf.so.0:_ZNK11TyTCodeplug22GeneralSettingsElement24radioProgPasswordEnabledEv
libdmrconf.so.0:_ZNK11TyTCodeplug22GeneralSettingsElement25callAlertToneIsContinuousEv
libdmrconf.so.0:_ZNK11TyTCodeplug22GeneralSettingsElement5dmrIdEv
libdmrconf.so.0:_ZNK11TyTCodeplug22GeneralSettingsElement9radioNameEv
libdmrconf.so.0:_ZNK11TyTCodeplug22OneTouchSettingElement10actionTypeEv
libdmrconf.so.0:_ZNK11TyTCodeplug22OneTouchSettingElement12contactIndexEv
libdmrconf.so.0:_ZNK11TyTCodeplug22OneTouchSettingElement12messageIndexEv
libdmrconf.so.0:_ZNK11TyTCodeplug22OneTouchSettingElement6actionEv
libdmrconf.so.0:_ZNK11TyTCodeplug22OneTouchSettingElement7isValidEv
libdmrconf.so.0:_ZNK11TyTCodeplug24EmergencySettingsElement12messageLimitEv
libdmrconf.so.0:_ZNK11TyTCodeplug24EmergencySettingsElement12radioDisableEv
libdmrconf.so.0:_ZNK11TyTCodeplug24EmergencySettingsElement13remoteMonitorEv
libdmrconf.so.0:_ZNK11TyTCodeplug24EmergencySettingsElement21remoteMonitorDurationEv
libdmrconf.so.0:_ZNK11TyTCodeplug24EmergencySettingsElement22emergencyRemoteMonitorEv
libdmrconf.so.0:_ZNK11TyTCodeplug24EmergencySettingsElement9txTimeOutEv
libdmrconf.so.0:_ZNK11TyTCodeplug5indexEP6ConfigRN8Codeplug7ContextERK10ErrorStack
libdmrconf.so.0:_ZNK11UV390Limits10metaObjectEv
libdmrconf.so.0:_ZNK12AnytoneRadio10metaObjectEv
libdmrconf.so.0:_ZNK12AnytoneRadio4nameEv
libdmrconf.so.0:_ZNK12AnytoneRadio8codeplugEv
libdmrconf.so.0:_ZNK12ConfigObject10metaObjectEv
libdmrconf.so.0:_ZNK12ConfigObject4nameEv
libdmrconf.so.0:_ZNK12ConfigObject8idPrefixEv
libdmrconf.so.0:_ZNK12D578UVLimits10metaObjectEv
libdmrconf.so.0:_ZNK12D868UVLimits10metaObjectEv
libdmrconf.so.0:_ZNK12D878UVLimits10metaObjectEv
libdmrconf.so.0:_ZNK12DM1701Limits10metaObjectEv
libdmrconf.so.0:_ZNK12GD73Codeplug10metaObjectEv
libdmrconf.so.0:_ZNK12GD73Codeplug10preprocessEP6ConfigRK10ErrorStack
libdmrconf.so.0:_ZNK12GD73Codeplug11ZoneElement4nameEv
libdmrconf.so.0:_ZNK12GD73Codeplug11postprocessEP6ConfigRK10ErrorStack
libdmrconf.so.0:_ZNK12GD73Codeplug14ChannelElement11rxFrequencyEv
libdmrconf.so.0:_ZNK12GD73Codeplug14ChannelElement11txFrequencyEv
libdmrconf.so.0:_ZNK12GD73Codeplug14ChannelElement12hasTXContactEv
libdmrconf.so.0:_ZNK12GD73Codeplug14ChannelElement13scanListIndexEv
libdmrconf.so.0:_ZNK12GD73Codeplug14ChannelElement14groupListIndexEv
libdmrconf.so.0:_ZNK12GD73Codeplug14ChannelElement14txContactIndexEv
libdmrconf.so.0:_ZNK12GD73Codeplug14ChannelElement16hasScanListIndexEv
libdmrconf.so.0:_ZNK12GD73Codeplug14ChannelElement17groupListAllMatchEv
libdmrconf.so.0:_ZNK12GD73Codeplug14ChannelElement17talkaroundEnabledEv
libdmrconf.so.0:_ZNK12GD73Codeplug14ChannelElement18encryptionKeyIndexEv
libdmrconf.so.0:_ZNK12GD73Codeplug14ChannelElement20dtmfPTTSettingsIndexEv
libdmrconf.so.0:_ZNK12GD73Codeplug14ChannelElement20emergencySystemIndexEv
libdmrconf.so.0:_ZNK12GD73Codeplug14ChannelElement20scanAutoStartEnabledEv
libdmrconf.so.0:_ZNK12GD73Codeplug14ChannelElement21hasEncryptionKeyIndexEv
libdmrconf.so.0:_ZNK12GD73Codeplug14ChannelElement23groupListMatchesContactEv
libdmrconf.so.0:_ZNK12GD73Codeplug14ChannelElement23hasDTMFPTTSettingsIndexEv
libdmrconf.so.0:_ZNK12GD73Codeplug14ChannelElement23hasEmergencySystemIndexEv
libdmrconf.so.0:_ZNK12GD73Codeplug14ChannelElement4nameEv
libdmrconf.so.0:_ZNK12GD73Codeplug14ChannelElement4typeEv
libdmrconf.so.0:_ZNK12GD73Codeplug14ChannelElement5admitEv
libdmrconf.so.0:_ZNK12GD73Codeplug14ChannelElement5powerEv
libdmrconf.so.0:_ZNK12GD73Codeplug14ChannelElement6rxOnlyEv
libdmrconf.so.0:_ZNK12GD73Codeplug14ChannelElement6rxToneEv
libdmrconf.so.0:_ZNK12GD73Codeplug14ChannelElement6txToneEv
libdmrconf.so.0:_ZNK12GD73Codeplug14ChannelElement8timeSlotEv
libdmrconf.so.0:_ZNK12GD73Codeplug14ChannelElement9bandwidthEv
libdmrconf.so.0:_ZNK12GD73Codeplug14ChannelElement9colorCodeEv
libdmrconf.so.0:_ZNK12GD73Codeplug14ContactElement2idEv
libdmrconf.so.0:_ZNK12GD73Codeplug14ContactElement4nameEv
libdmrconf.so.0:_ZNK12GD73Codeplug14ContactElement4typeEv
libdmrconf.so.0:_ZNK12GD73Codeplug14MessageElement4textEv
libdmrconf.so.0:_ZNK12GD73Codeplug15ScanListElement10rxHoldTimeEv
libdmrconf.so.0:_ZNK12GD73Codeplug15ScanListElement10txHoldTimeEv
libdmrconf.so.0:_ZNK12GD73Codeplug15ScanListElement15revertZoneIndexEv
libdmrconf.so.0:_ZNK12GD73Codeplug15ScanListElement16primaryZoneIndexEv
libdmrconf.so.0:_ZNK12GD73Codeplug15ScanListElement17revertChannelModeEv
libdmrconf.so.0:_ZNK12GD73Codeplug15ScanListElement18hasRevertZoneIndexEv
libdmrconf.so.0:_ZNK12GD73Codeplug15ScanListElement18primaryChannelModeEv
libdmrconf.so.0:_ZNK12GD73Codeplug15ScanListElement18revertChannelIndexEv
libdmrconf.so.0:_ZNK12GD73Codeplug15ScanListElement18secondaryZoneIndexEv
libdmrconf.so.0:_ZNK12GD73Codeplug15ScanListElement19hasPrimaryZoneIndexEv
libdmrconf.so.0:_ZNK12GD73Codeplug15ScanListElement19primaryChannelIndexEv
libdmrconf.so.0:_ZNK12GD73Codeplug15ScanListElement20secondaryChannelModeEv
libdmrconf.so.0:_ZNK12GD73Codeplug15ScanListElement21hasRevertChannelIndexEv
libdmrconf.so.0:_ZNK12GD73Codeplug15ScanListElement21hasSecondaryZoneIndexEv
libdmrconf.so.0:_ZNK12GD73Codeplug15ScanListElement21secondaryChannelIndexEv
libdmrconf.so.0:_ZNK12GD73Codeplug15ScanListElement22hasPrimaryChannelIndexEv
libdmrconf.so.0:_ZNK12GD73Codeplug15ScanListElement24hasSecondaryChannelIndexEv
libdmrconf.so.0:_ZNK12GD73Codeplug15ScanListElement4nameEv
libdmrconf.so.0:_ZNK12GD73Codeplug15SettingsElement10dmrMicGainEv
libdmrconf.so.0:_ZNK12GD73Codeplug15SettingsElement11readLockPinEv
libdmrconf.so.0:_ZNK12GD73Codeplug15SettingsElement12writeLockPinEv
libdmrconf.so.0:_ZNK12GD73Codeplug15SettingsElement13bootTextLine1Ev
libdmrconf.so.0:_ZNK12GD73Codeplug15SettingsElement13bootTextLine2Ev
libdmrconf.so.0:_ZNK12GD73Codeplug15SettingsElement13keyToneVolumeEv
libdmrconf.so.0:_ZNK12GD73Codeplug15SettingsElement14keyToneEnabledEv
libdmrconf.so.0:_ZNK12GD73Codeplug15SettingsElement15bootDisplayModeEv
libdmrconf.so.0:_ZNK12GD73Codeplug15SettingsElement15readLockEnabledEv
libdmrconf.so.0:_ZNK12GD73Codeplug15SettingsElement16powerSaveEnabledEv
libdmrconf.so.0:_ZNK12GD73Codeplug15SettingsElement16powerSaveTimeoutEv
libdmrconf.so.0:_ZNK12GD73Codeplug15SettingsElement16writeLockEnabledEv
libdmrconf.so.0:_ZNK12GD73Codeplug15SettingsElement17longPressDurationEv
libdmrconf.so.0:_ZNK12GD73Codeplug15SettingsElement18channelDisplayModeEv
libdmrconf.so.0:_ZNK12GD73Codeplug15SettingsElement20lowBatteryToneVolumeEv
libdmrconf.so.0:_ZNK12GD73Codeplug15SettingsElement20txInterruptedEnabledEv
libdmrconf.so.0:_ZNK12GD73Codeplug15SettingsElement21lowBatteryToneEnabledEv
libdmrconf.so.0:_ZNK12GD73Codeplug15SettingsElement22keyFunctionLongPressP1Ev
libdmrconf.so.0:_ZNK12GD73Codeplug15SettingsElement22keyFunctionLongPressP2Ev
libdmrconf.so.0:_ZNK12GD73Codeplug15SettingsElement22loneWorkerRemindPeriodEv
libdmrconf.so.0:_ZNK12GD73Codeplug15SettingsElement23keyFunctionShortPressP1Ev
libdmrconf.so.0:_ZNK12GD73Codeplug15SettingsElement23keyFunctionShortPressP2Ev
libdmrconf.so.0:_ZNK12GD73Codeplug15SettingsElement25loneWorkerResponseTimeoutEv
libdmrconf.so.0:_ZNK12GD73Codeplug15SettingsElement3totEv
libdmrconf.so.0:_ZNK12GD73Codeplug15SettingsElement3voxEv
libdmrconf.so.0:_ZNK12GD73Codeplug15SettingsElement4nameEv
libdmrconf.so.0:_ZNK12GD73Codeplug15SettingsElement5dmrIDEv
libdmrconf.so.0:_ZNK12GD73Codeplug15SettingsElement7squelchEv
libdmrconf.so.0:_ZNK12GD73Codeplug15SettingsElement8languageEv
libdmrconf.so.0:_ZNK12GD73Codeplug15SettingsElement8totIsSetEv
libdmrconf.so.0:_ZNK12GD73Codeplug15SettingsElement9fmMicGainEv
libdmrconf.so.0:_ZNK12GD73Codeplug16GroupListElement11memberIndexEj
libdmrconf.so.0:_ZNK12GD73Codeplug16GroupListElement4nameEv
libdmrconf.so.0:_ZNK12GD73Codeplug16GroupListElement7membersEv
libdmrconf.so.0:_ZNK12GD73Codeplug16GroupListElement9hasMemberEj
libdmrconf.so.0:_ZNK12GD73Codeplug18DMRSettingsElement11txPreamblesEv
libdmrconf.so.0:_ZNK12GD73Codeplug18DMRSettingsElement12callHangTimeEv
libdmrconf.so.0:_ZNK12GD73Codeplug18DMRSettingsElement13activeRetriesEv
libdmrconf.so.0:_ZNK12GD73Codeplug18DMRSettingsElement14activeWaitTimeEv
libdmrconf.so.0:_ZNK12GD73Codeplug18DMRSettingsElement23decodeRadioCheckEnabledEv
libdmrconf.so.0:_ZNK12GD73Codeplug18DMRSettingsElement24decodeEnableRadioEnabledEv
libdmrconf.so.0:_ZNK12GD73Codeplug18DMRSettingsElement25decodeDisableRadioEnabledEv
libdmrconf.so.0:_ZNK12GD73Codeplug18InformationElement11modelNumberEv
libdmrconf.so.0:_ZNK12GD73Codeplug18InformationElement14frequencyRangeEv
libdmrconf.so.0:_ZNK12GD73Codeplug18InformationElement15softwareVersionEv
libdmrconf.so.0:_ZNK12GD73Codeplug18InformationElement6serialEv
libdmrconf.so.0:_ZNK12GD73Codeplug18InformationElement8deviceIDEv
libdmrconf.so.0:_ZNK12GD73Codeplug18InformationElement9modelNameEv
libdmrconf.so.0:_ZNK12GD73Codeplug18InformationElement9timestampEv
libdmrconf.so.0:_ZNK12GD73Codeplug18MessageBankElement11memberCountEv
libdmrconf.so.0:_ZNK12GD73Codeplug20EncryptionKeyElement19createEncryptionKeyERK10ErrorStack
libdmrconf.so.0:_ZNK12GD73Codeplug20EncryptionKeyElement7isValidEv
libdmrconf.so.0:_ZNK12GD73Codeplug20EncryptionKeyElement7keySizeEv
libdmrconf.so.0:_ZNK12GD73Codeplug5indexEP6ConfigRN8Codeplug7ContextERK10ErrorStack
libdmrconf.so.0:_ZNK12GD77Codeplug10metaObjectEv
libdmrconf.so.0:_ZNK12GD77Codeplug14ChannelElement10loneWorkerEv
libdmrconf.so.0:_ZNK12GD77Codeplug14ChannelElement14squelchIsTightEv
libdmrconf.so.0:_ZNK12GD77Codeplug14ChannelElement8artsModeEv
libdmrconf.so.0:_ZNK12GD77Codeplug14ChannelElement8autoscanEv
libdmrconf.so.0:_ZNK12GD77Codeplug14ChannelElement8steAngleEv
libdmrconf.so.0:_ZNK12GD77Codeplug14ChannelElement9pttIDModeEv
libdmrconf.so.0:_ZNK12GD77Codeplug14ContactElement7isValidEv
libdmrconf.so.0:_ZNK12GD77Codeplug19ScanListBankElement3getEj
libdmrconf.so.0:_ZNK12GD77Codeplug20GroupListBankElement3getEj
libdmrconf.so.0:_ZNK12MD2017Limits10metaObjectEv
libdmrconf.so.0:_ZNK12RD5RCodeplug10metaObjectEv
libdmrconf.so.0:_ZNK12RD5RCodeplug14ChannelElement12toChannelObjERN8Codeplug7ContextE
libdmrconf.so.0:_ZNK12RD5RCodeplug14ChannelElement14linkChannelObjEP7ChannelRN8Codeplug7ContextE
libdmrconf.so.0:_ZNK12RD5RCodeplug14ChannelElement7squelchEv
libdmrconf.so.0:_ZNK12RD5RCodeplug16TimestampElement3getEv
libdmrconf.so.0:_ZNK12RD5RCodeplug17EncryptionElement13isBasicKeySetEj
libdmrconf.so.0:_ZNK12RD5RCodeplug17EncryptionElement8basicKeyEj
libdmrconf.so.0:_ZNK12RXGroupLists10metaObjectEv
libdmrconf.so.0:_ZNK12RXGroupLists4listEi
libdmrconf.so.0:_ZNK12SMSExtension10metaObjectEv
libdmrconf.so.0:_ZNK12SMSExtension12smsTemplatesEv
libdmrconf.so.0:_ZNK12SMSExtension5cloneEv
libdmrconf.so.0:_ZNK12SMSExtension6formatEv
libdmrconf.so.0:_ZNK12SMSTemplates10metaObjectEv
libdmrconf.so.0:_ZNK12SMSTemplates7messageEj
libdmrconf.so.0:_ZNK12TyTInterface10metaObjectEv
libdmrconf.so.0:_ZNK12TyTInterface6isOpenEv
libdmrconf.so.0:_ZNK12UserDatabase10metaObjectEv
libdmrconf.so.0:_ZNK12UserDatabase11columnCountERK11QModelIndex
libdmrconf.so.0:_ZNK12UserDatabase4User8distanceEj
libdmrconf.so.0:_ZNK12UserDatabase4dataERK11QModelIndexi
libdmrconf.so.0:_ZNK12UserDatabase4userEi
libdmrconf.so.0:_ZNK12UserDatabase5countEv
libdmrconf.so.0:_ZNK12UserDatabase5dbAgeEv
libdmrconf.so.0:_ZNK12UserDatabase8rowCountERK11QModelIndex
libdmrconf.so.0:_ZNK13AnalogChannel10metaObjectEv
libdmrconf.so.0:_ZNK13AnalogContact10metaObjectEv
libdmrconf.so.0:_ZNK13AnytoneLimits10metaObjectEv
libdmrconf.so.0:_ZNK13AnytoneLimits12verifyConfigEPK6ConfigR17RadioLimitContext
libdmrconf.so.0:_ZNK13D878UV2Limits10metaObjectEv
libdmrconf.so.0:_ZNK13EncryptionKey10metaObjectEv
libdmrconf.so.0:_ZNK13EncryptionKey3keyEv
libdmrconf.so.0:_ZNK13EncryptionKey5toHexEv
libdmrconf.so.0:_ZNK13GD73Interface10metaObjectEv
libdmrconf.so.0:_ZNK13GD73Interface6isOpenEv
libdmrconf.so.0:_ZNK13MD390Codeplug10metaObjectEv
libdmrconf.so.0:_ZNK13MD390Codeplug10preprocessEP6ConfigRK10ErrorStack
libdmrconf.so.0:_ZNK13MD390Codeplug11postprocessEP6ConfigRK10ErrorStack
libdmrconf.so.0:_ZNK13MD390Codeplug14ChannelElement12toChannelObjERK10ErrorStack
libdmrconf.so.0:_ZNK13MD390Codeplug14ChannelElement19compressedUDPHeaderEv
libdmrconf.so.0:_ZNK13MD390Codeplug19MenuSettingsElement14gpsInformationEv
libdmrconf.so.0:_ZNK13RadioSettings10introLine1Ev
libdmrconf.so.0:_ZNK13RadioSettings10introLine2Ev
libdmrconf.so.0:_ZNK13RadioSettings10metaObjectEv
libdmrconf.so.0:_ZNK13RadioSettings11totDisabledEv
libdmrconf.so.0:_ZNK13RadioSettings11voxDisabledEv
libdmrconf.so.0:_ZNK13RadioSettings12defaultIdRefEv
libdmrconf.so.0:_ZNK13RadioSettings12tytExtensionEv
libdmrconf.so.0:_ZNK13RadioSettings16anytoneExtensionEv
libdmrconf.so.0:_ZNK13RadioSettings19radioddityExtensionEv
libdmrconf.so.0:_ZNK13RadioSettings3totEv
libdmrconf.so.0:_ZNK13RadioSettings3voxEv
libdmrconf.so.0:_ZNK13RadioSettings5cloneEv
libdmrconf.so.0:_ZNK13RadioSettings5powerEv
libdmrconf.so.0:_ZNK13RadioSettings6speechEv
libdmrconf.so.0:_ZNK13RadioSettings7squelchEv
libdmrconf.so.0:_ZNK13RadioSettings8micLevelEv
libdmrconf.so.0:_ZNK13RadioSettings9defaultIdEv
libdmrconf.so.0:_ZNK13TyTCallsignDB10metaObjectEv
libdmrconf.so.0:_ZNK13USBDeviceInfo11descriptionEv
libdmrconf.so.0:_ZNK13USBDeviceInfo11hasVendorIDEv
libdmrconf.so.0:_ZNK13USBDeviceInfo12hasProductIDEv
libdmrconf.so.0:_ZNK13USBDeviceInfo14interfaceClassEv
libdmrconf.so.0:_ZNK13USBDeviceInfo15longDescriptionEv
libdmrconf.so.0:_ZNK13USBDeviceInfo6isSaveEv
libdmrconf.so.0:_ZNK13USBDeviceInfo7isValidEv
libdmrconf.so.0:_ZNK13USBDeviceInfo8vendorIdEv
libdmrconf.so.0:_ZNK13USBDeviceInfo9productIdEv
libdmrconf.so.0:_ZNK13USBDeviceInfoeqERKS_
libdmrconf.so.0:_ZNK13USBDeviceInfoneERKS_
libdmrconf.so.0:_ZNK13UV390Codeplug10metaObjectEv
libdmrconf.so.0:_ZNK13UV390Codeplug14ChannelElement10dcdmLeaderEv
libdmrconf.so.0:_ZNK13UV390Codeplug14ChannelElement11turnOffFreqEv
libdmrconf.so.0:_ZNK13UV390Codeplug14ChannelElement12toChannelObjERK10ErrorStack
libdmrconf.so.0:_ZNK13UV390Codeplug14ChannelElement14allowInterruptEv
libdmrconf.so.0:_ZNK13UV390Codeplug14ChannelElement14inCallCriteriaEv
libdmrconf.so.0:_ZNK13UV390Codeplug14ChannelElement22dualCapacityDirectModeEv
libdmrconf.so.0:_ZNK13UV390Codeplug14ChannelElement5powerEv
libdmrconf.so.0:_ZNK13UV390Codeplug14ChannelElement7squelchEv
libdmrconf.so.0:_ZNK13UV390Codeplug17VFOChannelElement4nameEv
libdmrconf.so.0:_ZNK13UV390Codeplug17VFOChannelElement8stepSizeEv
libdmrconf.so.0:_ZNK13UV390Codeplug19BootSettingsElement13channelIndexAEv
libdmrconf.so.0:_ZNK13UV390Codeplug19BootSettingsElement13channelIndexBEv
libdmrconf.so.0:_ZNK13UV390Codeplug19BootSettingsElement9zoneIndexEv
libdmrconf.so.0:_ZNK13UV390Codeplug19MenuSettingsElement11gpsSettingsEv
libdmrconf.so.0:_ZNK13UV390Codeplug19MenuSettingsElement11newScanListEv
libdmrconf.so.0:_ZNK13UV390Codeplug19MenuSettingsElement12zoneSettingsEv
libdmrconf.so.0:_ZNK13UV390Codeplug19MenuSettingsElement14groupCallMatchEv
libdmrconf.so.0:_ZNK13UV390Codeplug19MenuSettingsElement16menuHangtimeItemEv
libdmrconf.so.0:_ZNK13UV390Codeplug19MenuSettingsElement16privateCallMatchEv
libdmrconf.so.0:_ZNK13UV390Codeplug19MenuSettingsElement6txModeEv
libdmrconf.so.0:_ZNK13UV390Codeplug19MenuSettingsElement7newZoneEv
libdmrconf.so.0:_ZNK13UV390Codeplug19MenuSettingsElement8editZoneEv
libdmrconf.so.0:_ZNK13UV390Codeplug19MenuSettingsElement9recordingEv
libdmrconf.so.0:_ZNK13UV390Codeplug22GeneralSettingsElement10publicZoneEv
libdmrconf.so.0:_ZNK13UV390Codeplug22GeneralSettingsElement11editRadioIDEv
libdmrconf.so.0:_ZNK13UV390Codeplug22GeneralSettingsElement11keypadTonesEv
libdmrconf.so.0:_ZNK13UV390Codeplug22GeneralSettingsElement12transmitModeEv
libdmrconf.so.0:_ZNK13UV390Codeplug22GeneralSettingsElement15additionalDMRIdEj
libdmrconf.so.0:_ZNK13UV390Codeplug22GeneralSettingsElement20channelVoiceAnnounceEv
libdmrconf.so.0:_ZNK13UV390Codeplug22GeneralSettingsElement8micLevelEv
libdmrconf.so.0:_ZNK13ZoneReference10metaObjectEv
libdmrconf.so.0:_ZNK14ChannelRefList10metaObjectEv
libdmrconf.so.0:_ZNK14D578UVCodeplug10metaObjectEv
libdmrconf.so.0:_ZNK14D578UVCodeplug14ChannelElement12toChannelObjERN8Codeplug7ContextE
libdmrconf.so.0:_ZNK14D578UVCodeplug14ChannelElement14analogScamblerEv
libdmrconf.so.0:_ZNK14D578UVCodeplug14ChannelElement14roamingEnabledEv
libdmrconf.so.0:_ZNK14D578UVCodeplug14ChannelElement21dmrEncryptionKeyIndexEv
libdmrconf.so.0:_ZNK14D578UVCodeplug14ChannelElement7dataACKEv
libdmrconf.so.0:_ZNK14D578UVCodeplug14ChannelElement9handsFreeEv
libdmrconf.so.0:_ZNK14D578UVCodeplug21AirBandChannelElement4nameEv
libdmrconf.so.0:_ZNK14D578UVCodeplug21AirBandChannelElement9frequencyEv
libdmrconf.so.0:_ZNK14D578UVCodeplug21HotKeySettingsElement13hotKeySettingEj
libdmrconf.so.0:_ZNK14D578UVCodeplug22GeneralSettingsElement10brightnessEv
libdmrconf.so.0:_ZNK14D578UVCodeplug22GeneralSettingsElement10btHoldTimeEv
libdmrconf.so.0:_ZNK14D578UVCodeplug22GeneralSettingsElement10dmrMicGainEv
libdmrconf.so.0:_ZNK14D578UVCodeplug22GeneralSettingsElement10fmCallHoldEv
libdmrconf.so.0:_ZNK14D578UVCodeplug22GeneralSettingsElement10keypadLockEv
libdmrconf.so.0:_ZNK14D578UVCodeplug22GeneralSettingsElement10subChannelEv
libdmrconf.so.0:_ZNK14D578UVCodeplug22GeneralSettingsElement10wfmEnabledEv
libdmrconf.so.0:_ZNK14D578UVCodeplug22GeneralSettingsElement10wfmMonitorEv
libdmrconf.so.0:_ZNK14D578UVCodeplug22GeneralSettingsElement11displayCallEv
libdmrconf.so.0:_ZNK14D578UVCodeplug22GeneralSettingsElement11filterOwnIDEv
libdmrconf.so.0:_ZNK14D578UVCodeplug22GeneralSettingsElement11gpsTimeZoneEv
libdmrconf.so.0:_ZNK14D578UVCodeplug22GeneralSettingsElement11memoryZoneAEv
libdmrconf.so.0:_ZNK14D578UVCodeplug22GeneralSettingsElement11memoryZoneBEv
libdmrconf.so.0:_ZNK14D578UVCodeplug22GeneralSettingsElement11startupToneEv
libdmrconf.so.0:_ZNK14D578UVCodeplug22GeneralSettingsElement11vfoScanTypeEv
libdmrconf.so.0:_ZNK14D578UVCodeplug22GeneralSettingsElement12displayClockEv
libdmrconf.so.0:_ZNK14D578UVCodeplug22GeneralSettingsElement12dmrResetToneEv
libdmrconf.so.0:_ZNK14D578UVCodeplug22GeneralSettingsElement12enhanceAudioEv
libdmrconf.so.0:_ZNK14D578UVCodeplug22GeneralSettingsElement12fmTalkPermitEv
libdmrconf.so.0:_ZNK14D578UVCodeplug22GeneralSettingsElement12funcKey1LongEv
libdmrconf.so.0:_ZNK14D578UVCodeplug22GeneralSettingsElement12funcKey2LongEv
libdmrconf.so.0:_ZNK14D578UVCodeplug22GeneralSettingsElement12funcKey3LongEv
libdmrconf.so.0:_ZNK14D578UVCodeplug22GeneralSettingsElement12funcKey4LongEv
libdmrconf.so.0:_ZNK14D578UVCodeplug22GeneralSettingsElement12funcKey5LongEv
libdmrconf.so.0:_ZNK14D578UVCodeplug22GeneralSettingsElement12funcKey6LongEv
libdmrconf.so.0:_ZNK14D578UVCodeplug22GeneralSettingsElement12funcKeyALongEv
libdmrconf.so.0:_ZNK14D578UVCodeplug22GeneralSettingsElement12funcKeyBLongEv
libdmrconf.so.0:_ZNK14D578UVCodeplug22GeneralSettingsElement12funcKeyCLongEv
libdmrconf.so.0:_ZNK14D578UVCodeplug22GeneralSettingsElement12funcKeyDLongEv
libdmrconf.so.0:_ZNK14D578UVCodeplug22GeneralSettingsElement12menuExitTimeEv
libdmrconf.so.0:_ZNK14D578UVCodeplug22GeneralSettingsElement12preWaveDelayEv
libdmrconf.so.0:_ZNK14D578UVCodeplug22GeneralSettingsElement12sidekeysLockEv
libdmrconf.so.0:_ZNK14D578UVCodeplug22GeneralSettingsElement12steFrequencyEv
libdmrconf.so.0:_ZNK14D578UVCodeplug22GeneralSettingsElement13autoRoamDelayEv
libdmrconf.so.0:_ZNK14D578UVCodeplug22GeneralSettingsElement13btSpeakerGainEv
libdmrconf.so.0:_ZNK14D578UVCodeplug22GeneralSettingsElement13callEndPromptEv
libdmrconf.so.0:_ZNK14D578UVCodeplug22GeneralSettingsElement13dmrTalkPermitEv
libdmrconf.so.0:_ZNK14D578UVCodeplug22GeneralSettingsElement13funcKey1ShortEv
libdmrconf.so.0:_ZNK14D578UVCodeplug22GeneralSettingsElement13funcKey2ShortEv
libdmrconf.so.0:_ZNK14D578UVCodeplug22GeneralSettingsElement13funcKey3ShortEv
libdmrconf.so.0:_ZNK14D578UVCodeplug22GeneralSettingsElement13funcKey4ShortEv
libdmrconf.so.0:_ZNK14D578UVCodeplug22GeneralSettingsElement13funcKey5ShortEv
libdmrconf.so.0:_ZNK14D578UVCodeplug22GeneralSettingsElement13funcKey6ShortEv
libdmrconf.so.0:_ZNK14D578UVCodeplug22GeneralSettingsElement13funcKeyAShortEv
libdmrconf.so.0:_ZNK14D578UVCodeplug22GeneralSettingsElement13funcKeyBShortEv
libdmrconf.so.0:_ZNK14D578UVCodeplug22GeneralSettingsElement13funcKeyCShortEv
libdmrconf.so.0:_ZNK14D578UVCodeplug22GeneralSettingsElement13funcKeyDShortEv
libdmrconf.so.0:_ZNK14D578UVCodeplug22GeneralSettingsElement13keyLockForcedEv
libdmrconf.so.0:_ZNK14D578UVCodeplug22GeneralSettingsElement13pluginRecToneEv
libdmrconf.so.0:_ZNK14D578UVCodeplug22GeneralSettingsElement13remoteMonitorEv
libdmrconf.so.0:_ZNK14D578UVCodeplug22GeneralSettingsElement13showLastHeardEv
libdmrconf.so.0:_ZNK14D578UVCodeplug22GeneralSettingsElement13tbstFrequencyEv
libdmrconf.so.0:_ZNK14D578UVCodeplug22GeneralSettingsElement13wfmVFOEnabledEv
libdmrconf.so.0:_ZNK14D578UVCodeplug22GeneralSettingsElement14activeChannelBEv
libdmrconf.so.0:_ZNK14D578UVCodeplug22GeneralSettingsElement14autoRoamPeriodEv
libdmrconf.so.0:_ZNK14D578UVCodeplug22GeneralSettingsElement14callToneMelodyER6Melody
libdmrconf.so.0:_ZNK14D578UVCodeplug22GeneralSettingsElement14defaultChannelEv
libdmrconf.so.0:_ZNK14D578UVCodeplug22GeneralSettingsElement14getGPSPositionEv
libdmrconf.so.0:_ZNK14D578UVCodeplug22GeneralSettingsElement14idleToneMelodyER6Melody
libdmrconf.so.0:_ZNK14D578UVCodeplug22GeneralSettingsElement14keepLastCallerEv
libdmrconf.so.0:_ZNK14D578UVCodeplug22GeneralSettingsElement14keyToneEnabledEv
libdmrconf.so.0:_ZNK14D578UVCodeplug22GeneralSettingsElement14monitorIDMatchEv
libdmrconf.so.0:_ZNK14D578UVCodeplug22GeneralSettingsElement14remoteStunKillEv
libdmrconf.so.0:_ZNK14D578UVCodeplug22GeneralSettingsElement14wakeHeadPeriodEv
libdmrconf.so.0:_ZNK14D578UVCodeplug22GeneralSettingsElement15gpsUpdatePeriodEv
libdmrconf.so.0:_ZNK14D578UVCodeplug22GeneralSettingsElement15idleChannelToneEv
libdmrconf.so.0:_ZNK14D578UVCodeplug22GeneralSettingsElement15resetToneMelodyER6Melody
libdmrconf.so.0:_ZNK14D578UVCodeplug22GeneralSettingsElement15separateDisplayEv
libdmrconf.so.0:_ZNK14D578UVCodeplug22GeneralSettingsElement15transmitTimeoutEv
libdmrconf.so.0:_ZNK14D578UVCodeplug22GeneralSettingsElement15wfmChannelIndexEv
libdmrconf.so.0:_ZNK14D578UVCodeplug22GeneralSettingsElement16btAndInternalMicEv
libdmrconf.so.0:_ZNK14D578UVCodeplug22GeneralSettingsElement16callDisplayColorEv
libdmrconf.so.0:_ZNK14D578UVCodeplug22GeneralSettingsElement16channelNameColorEv
libdmrconf.so.0:_ZNK14D578UVCodeplug22GeneralSettingsElement16gpsUnitsImperialEv
libdmrconf.so.0:_ZNK14D578UVCodeplug22GeneralSettingsElement16maxSpeakerVolumeEv
libdmrconf.so.0:_ZNK14D578UVCodeplug22GeneralSettingsElement16monitorSlotMatchEv
libdmrconf.so.0:_ZNK14D578UVCodeplug22GeneralSettingsElement16standbyTextColorEv
libdmrconf.so.0:_ZNK14D578UVCodeplug22GeneralSettingsElement17btHoldTimeEnabledEv
libdmrconf.so.0:_ZNK14D578UVCodeplug22GeneralSettingsElement17defaultZoneIndexAEv
libdmrconf.so.0:_ZNK14D578UVCodeplug22GeneralSettingsElement17defaultZoneIndexBEv
libdmrconf.so.0:_ZNK14D578UVCodeplug22GeneralSettingsElement17gpsMessageEnabledEv
libdmrconf.so.0:_ZNK14D578UVCodeplug22GeneralSettingsElement17groupCallHangTimeEv
libdmrconf.so.0:_ZNK14D578UVCodeplug22GeneralSettingsElement17longPressDurationEv
libdmrconf.so.0:_ZNK14D578UVCodeplug22GeneralSettingsElement18btHoldTimeInfiniteEv
libdmrconf.so.0:_ZNK14D578UVCodeplug22GeneralSettingsElement18fmSendIDAndContactEv
libdmrconf.so.0:_ZNK14D578UVCodeplug22GeneralSettingsElement18priorityZoneAIndexEv
libdmrconf.so.0:_ZNK14D578UVCodeplug22GeneralSettingsElement18priorityZoneBIndexEv
libdmrconf.so.0:_ZNK14D578UVCodeplug22GeneralSettingsElement18repeaterRangeCheckEv
libdmrconf.so.0:_ZNK14D578UVCodeplug22GeneralSettingsElement18showCurrentContactEv
libdmrconf.so.0:_ZNK14D578UVCodeplug22GeneralSettingsElement18volumeChangePromptEv
libdmrconf.so.0:_ZNK14D578UVCodeplug22GeneralSettingsElement19monitorTimeSlotHoldEv
libdmrconf.so.0:_ZNK14D578UVCodeplug22GeneralSettingsElement19privateCallHangTimeEv
libdmrconf.so.0:_ZNK14D578UVCodeplug22GeneralSettingsElement20btAndInternalSpeakerEv
libdmrconf.so.0:_ZNK14D578UVCodeplug22GeneralSettingsElement20defaultChannelAIndexEv
libdmrconf.so.0:_ZNK14D578UVCodeplug22GeneralSettingsElement20defaultChannelAIsVFOEv
libdmrconf.so.0:_ZNK14D578UVCodeplug22GeneralSettingsElement20defaultChannelBIndexEv
libdmrconf.so.0:_ZNK14D578UVCodeplug22GeneralSettingsElement20defaultChannelBIsVFOEv
libdmrconf.so.0:_ZNK14D578UVCodeplug22GeneralSettingsElement20displayChannelNumberEv
libdmrconf.so.0:_ZNK14D578UVCodeplug22GeneralSettingsElement20transmitTimeoutRekeyEv
libdmrconf.so.0:_ZNK14D578UVCodeplug22GeneralSettingsElement21lastCallerDisplayModeEv
libdmrconf.so.0:_ZNK14D578UVCodeplug22GeneralSettingsElement21monitorColorCodeMatchEv
libdmrconf.so.0:_ZNK14D578UVCodeplug22GeneralSettingsElement21roamingStartConditionEv
libdmrconf.so.0:_ZNK14D578UVCodeplug22GeneralSettingsElement22autoRepeaterDirectionAEv
libdmrconf.so.0:_ZNK14D578UVCodeplug22GeneralSettingsElement22autoRepeaterDirectionBEv
libdmrconf.so.0:_ZNK14D578UVCodeplug22GeneralSettingsElement22maxVFOScanFrequencyUHFEv
libdmrconf.so.0:_ZNK14D578UVCodeplug22GeneralSettingsElement22maxVFOScanFrequencyVHFEv
libdmrconf.so.0:_ZNK14D578UVCodeplug22GeneralSettingsElement22minVFOScanFrequencyUHFEv
libdmrconf.so.0:_ZNK14D578UVCodeplug22GeneralSettingsElement22minVFOScanFrequencyVHFEv
libdmrconf.so.0:_ZNK14D578UVCodeplug22GeneralSettingsElement22standbyBackgroundColorEv
libdmrconf.so.0:_ZNK14D578UVCodeplug22GeneralSettingsElement23defaultRoamingZoneIndexEv
libdmrconf.so.0:_ZNK14D578UVCodeplug22GeneralSettingsElement23repeaterRangeCheckCountEv
libdmrconf.so.0:_ZNK14D578UVCodeplug22GeneralSettingsElement25repeaterCheckNotificationEv
libdmrconf.so.0:_ZNK14D578UVCodeplug22GeneralSettingsElement26repeaterRangeCheckIntervalEv
libdmrconf.so.0:_ZNK14D578UVCodeplug22GeneralSettingsElement27autoRepeaterMaxFrequencyUHFEv
libdmrconf.so.0:_ZNK14D578UVCodeplug22GeneralSettingsElement27autoRepeaterMaxFrequencyVHFEv
libdmrconf.so.0:_ZNK14D578UVCodeplug22GeneralSettingsElement27autoRepeaterMinFrequencyUHFEv
libdmrconf.so.0:_ZNK14D578UVCodeplug22GeneralSettingsElement27autoRepeaterMinFrequencyVHFEv
libdmrconf.so.0:_ZNK14D578UVCodeplug22GeneralSettingsElement29repeaterCheckNumNotificationsEv
libdmrconf.so.0:_ZNK14D578UVCodeplug22GeneralSettingsElement35autoRepeaterOffsetFrequencyIndexUHFEv
libdmrconf.so.0:_ZNK14D578UVCodeplug22GeneralSettingsElement35autoRepeaterOffsetFrequencyIndexVHFEv
libdmrconf.so.0:_ZNK14D578UVCodeplug22GeneralSettingsElement38hasAutoRepeaterOffsetFrequencyIndexUHFEv
libdmrconf.so.0:_ZNK14D578UVCodeplug22GeneralSettingsElement38hasAutoRepeaterOffsetFrequencyIndexVHFEv
libdmrconf.so.0:_ZNK14D578UVCodeplug22GeneralSettingsElement3gpsEv
libdmrconf.so.0:_ZNK14D578UVCodeplug22GeneralSettingsElement7roamingEv
libdmrconf.so.0:_ZNK14D578UVCodeplug22GeneralSettingsElement7steTypeEv
libdmrconf.so.0:_ZNK14D578UVCodeplug22GeneralSettingsElement8knobLockEv
libdmrconf.so.0:_ZNK14D578UVCodeplug22GeneralSettingsElement8languageEv
libdmrconf.so.0:_ZNK14D578UVCodeplug22GeneralSettingsElement8smsAlertEv
libdmrconf.so.0:_ZNK14D578UVCodeplug22GeneralSettingsElement8vfoModeAEv
libdmrconf.so.0:_ZNK14D578UVCodeplug22GeneralSettingsElement8vfoModeBEv
libdmrconf.so.0:_ZNK14D578UVCodeplug22GeneralSettingsElement9bluetoothEv
libdmrconf.so.0:_ZNK14D578UVCodeplug22GeneralSettingsElement9btMicGainEv
libdmrconf.so.0:_ZNK14D578UVCodeplug22GeneralSettingsElement9btRXDelayEv
libdmrconf.so.0:_ZNK14D578UVCodeplug22GeneralSettingsElement9callAlertEv
libdmrconf.so.0:_ZNK14D578UVCodeplug22GeneralSettingsElement9recordingEv
libdmrconf.so.0:_ZNK14D578UVCodeplug22GeneralSettingsElement9smsFormatEv
libdmrconf.so.0:_ZNK14D868UVCodeplug10metaObjectEv
libdmrconf.so.0:_ZNK14D868UVCodeplug14ChannelElement11throughModeEv
libdmrconf.so.0:_ZNK14D868UVCodeplug14ChannelElement12toChannelObjERN8Codeplug7ContextE
libdmrconf.so.0:_ZNK14D868UVCodeplug14ChannelElement13txDigitalAPRSEv
libdmrconf.so.0:_ZNK14D868UVCodeplug14ChannelElement14linkChannelObjEP7ChannelRN8Codeplug7ContextE
libdmrconf.so.0:_ZNK14D868UVCodeplug14ChannelElement21dmrEncryptionKeyIndexEv
libdmrconf.so.0:_ZNK14D868UVCodeplug14ChannelElement21multipleKeyEncryptionEv
libdmrconf.so.0:_ZNK14D868UVCodeplug14ChannelElement22digitalAPRSSystemIndexEv
libdmrconf.so.0:_ZNK14D868UVCodeplug14ChannelElement3smsEv
libdmrconf.so.0:_ZNK14D868UVCodeplug14ChannelElement7dataACKEv
libdmrconf.so.0:_ZNK14D868UVCodeplug14ChannelElement7rangingEv
libdmrconf.so.0:_ZNK14D868UVCodeplug14ChannelElement9randomKeyEv
libdmrconf.so.0:_ZNK14D868UVCodeplug22GeneralSettingsElement10brightnessEv
libdmrconf.so.0:_ZNK14D868UVCodeplug22GeneralSettingsElement10dmrMicGainEv
libdmrconf.so.0:_ZNK14D868UVCodeplug22GeneralSettingsElement10keypadLockEv
libdmrconf.so.0:_ZNK14D868UVCodeplug22GeneralSettingsElement10subChannelEv
libdmrconf.so.0:_ZNK14D868UVCodeplug22GeneralSettingsElement11displayCallEv
libdmrconf.so.0:_ZNK14D868UVCodeplug22GeneralSettingsElement11gpsTimeZoneEv
libdmrconf.so.0:_ZNK14D868UVCodeplug22GeneralSettingsElement11memoryZoneAEv
libdmrconf.so.0:_ZNK14D868UVCodeplug22GeneralSettingsElement11memoryZoneBEv
libdmrconf.so.0:_ZNK14D868UVCodeplug22GeneralSettingsElement11startupToneEv
libdmrconf.so.0:_ZNK14D868UVCodeplug22GeneralSettingsElement11vfoScanTypeEv
libdmrconf.so.0:_ZNK14D868UVCodeplug22GeneralSettingsElement12displayClockEv
libdmrconf.so.0:_ZNK14D868UVCodeplug22GeneralSettingsElement12dmrResetToneEv
libdmrconf.so.0:_ZNK14D868UVCodeplug22GeneralSettingsElement12enhanceAudioEv
libdmrconf.so.0:_ZNK14D868UVCodeplug22GeneralSettingsElement12fmTalkPermitEv
libdmrconf.so.0:_ZNK14D868UVCodeplug22GeneralSettingsElement12funcKey1LongEv
libdmrconf.so.0:_ZNK14D868UVCodeplug22GeneralSettingsElement12funcKey2LongEv
libdmrconf.so.0:_ZNK14D868UVCodeplug22GeneralSettingsElement12funcKeyALongEv
libdmrconf.so.0:_ZNK14D868UVCodeplug22GeneralSettingsElement12funcKeyBLongEv
libdmrconf.so.0:_ZNK14D868UVCodeplug22GeneralSettingsElement12funcKeyCLongEv
libdmrconf.so.0:_ZNK14D868UVCodeplug22GeneralSettingsElement12keyToneLevelEv
libdmrconf.so.0:_ZNK14D868UVCodeplug22GeneralSettingsElement12menuExitTimeEv
libdmrconf.so.0:_ZNK14D868UVCodeplug22GeneralSettingsElement12sidekeysLockEv
libdmrconf.so.0:_ZNK14D868UVCodeplug22GeneralSettingsElement13callEndPromptEv
libdmrconf.so.0:_ZNK14D868UVCodeplug22GeneralSettingsElement13dmrTalkPermitEv
libdmrconf.so.0:_ZNK14D868UVCodeplug22GeneralSettingsElement13funcKey1ShortEv
libdmrconf.so.0:_ZNK14D868UVCodeplug22GeneralSettingsElement13funcKey2ShortEv
libdmrconf.so.0:_ZNK14D868UVCodeplug22GeneralSettingsElement13funcKeyAShortEv
libdmrconf.so.0:_ZNK14D868UVCodeplug22GeneralSettingsElement13funcKeyBShortEv
libdmrconf.so.0:_ZNK14D868UVCodeplug22GeneralSettingsElement13funcKeyCShortEv
libdmrconf.so.0:_ZNK14D868UVCodeplug22GeneralSettingsElement13keyLockForcedEv
libdmrconf.so.0:_ZNK14D868UVCodeplug22GeneralSettingsElement13showLastHeardEv
libdmrconf.so.0:_ZNK14D868UVCodeplug22GeneralSettingsElement14activeChannelBEv
libdmrconf.so.0:_ZNK14D868UVCodeplug22GeneralSettingsElement14callToneMelodyER6Melody
libdmrconf.so.0:_ZNK14D868UVCodeplug22GeneralSettingsElement14defaultChannelEv
libdmrconf.so.0:_ZNK14D868UVCodeplug22GeneralSettingsElement14getGPSPositionEv
libdmrconf.so.0:_ZNK14D868UVCodeplug22GeneralSettingsElement14idleToneMelodyER6Melody
libdmrconf.so.0:_ZNK14D868UVCodeplug22GeneralSettingsElement14keepLastCallerEv
libdmrconf.so.0:_ZNK14D868UVCodeplug22GeneralSettingsElement14keyToneEnabledEv
libdmrconf.so.0:_ZNK14D868UVCodeplug22GeneralSettingsElement14recordingDelayEv
libdmrconf.so.0:_ZNK14D868UVCodeplug22GeneralSettingsElement15gpsUpdatePeriodEv
libdmrconf.so.0:_ZNK14D868UVCodeplug22GeneralSettingsElement15idleChannelToneEv
libdmrconf.so.0:_ZNK14D868UVCodeplug22GeneralSettingsElement15resetToneMelodyER6Melody
libdmrconf.so.0:_ZNK14D868UVCodeplug22GeneralSettingsElement16callDisplayColorEv
libdmrconf.so.0:_ZNK14D868UVCodeplug22GeneralSettingsElement16gpsUnitsImperialEv
libdmrconf.so.0:_ZNK14D868UVCodeplug22GeneralSettingsElement16maxSpeakerVolumeEv
libdmrconf.so.0:_ZNK14D868UVCodeplug22GeneralSettingsElement17defaultZoneIndexAEv
libdmrconf.so.0:_ZNK14D868UVCodeplug22GeneralSettingsElement17defaultZoneIndexBEv
libdmrconf.so.0:_ZNK14D868UVCodeplug22GeneralSettingsElement17longPressDurationEv
libdmrconf.so.0:_ZNK14D868UVCodeplug22GeneralSettingsElement18backlightPermanentEv
libdmrconf.so.0:_ZNK14D868UVCodeplug22GeneralSettingsElement18maxHeadPhoneVolumeEv
libdmrconf.so.0:_ZNK14D868UVCodeplug22GeneralSettingsElement18showCurrentContactEv
libdmrconf.so.0:_ZNK14D868UVCodeplug22GeneralSettingsElement18volumeChangePromptEv
libdmrconf.so.0:_ZNK14D868UVCodeplug22GeneralSettingsElement19rxBacklightDurationEv
libdmrconf.so.0:_ZNK14D868UVCodeplug22GeneralSettingsElement20defaultChannelAIndexEv
libdmrconf.so.0:_ZNK14D868UVCodeplug22GeneralSettingsElement20defaultChannelAIsVFOEv
libdmrconf.so.0:_ZNK14D868UVCodeplug22GeneralSettingsElement20defaultChannelBIndexEv
libdmrconf.so.0:_ZNK14D868UVCodeplug22GeneralSettingsElement20defaultChannelBIsVFOEv
libdmrconf.so.0:_ZNK14D868UVCodeplug22GeneralSettingsElement21lastCallerDisplayModeEv
libdmrconf.so.0:_ZNK14D868UVCodeplug22GeneralSettingsElement22autoRepeaterDirectionAEv
libdmrconf.so.0:_ZNK14D868UVCodeplug22GeneralSettingsElement22autoRepeaterDirectionBEv
libdmrconf.so.0:_ZNK14D868UVCodeplug22GeneralSettingsElement22keyToneLevelAdjustableEv
libdmrconf.so.0:_ZNK14D868UVCodeplug22GeneralSettingsElement22maxVFOScanFrequencyUHFEv
libdmrconf.so.0:_ZNK14D868UVCodeplug22GeneralSettingsElement22maxVFOScanFrequencyVHFEv
libdmrconf.so.0:_ZNK14D868UVCodeplug22GeneralSettingsElement22minVFOScanFrequencyUHFEv
libdmrconf.so.0:_ZNK14D868UVCodeplug22GeneralSettingsElement22minVFOScanFrequencyVHFEv
libdmrconf.so.0:_ZNK14D868UVCodeplug22GeneralSettingsElement27autoRepeaterMaxFrequencyUHFEv
libdmrconf.so.0:_ZNK14D868UVCodeplug22GeneralSettingsElement27autoRepeaterMaxFrequencyVHFEv
libdmrconf.so.0:_ZNK14D868UVCodeplug22GeneralSettingsElement27autoRepeaterMinFrequencyUHFEv
libdmrconf.so.0:_ZNK14D868UVCodeplug22GeneralSettingsElement27autoRepeaterMinFrequencyVHFEv
libdmrconf.so.0:_ZNK14D868UVCodeplug22GeneralSettingsElement35autoRepeaterOffsetFrequencyIndexUHFEv
libdmrconf.so.0:_ZNK14D868UVCodeplug22GeneralSettingsElement35autoRepeaterOffsetFrequencyIndexVHFEv
libdmrconf.so.0:_ZNK14D868UVCodeplug22GeneralSettingsElement38hasAutoRepeaterOffsetFrequencyIndexUHFEv
libdmrconf.so.0:_ZNK14D868UVCodeplug22GeneralSettingsElement38hasAutoRepeaterOffsetFrequencyIndexVHFEv
libdmrconf.so.0:_ZNK14D868UVCodeplug22GeneralSettingsElement3gpsEv
libdmrconf.so.0:_ZNK14D868UVCodeplug22GeneralSettingsElement8knobLockEv
libdmrconf.so.0:_ZNK14D868UVCodeplug22GeneralSettingsElement8smsAlertEv
libdmrconf.so.0:_ZNK14D868UVCodeplug22GeneralSettingsElement8vfoModeAEv
libdmrconf.so.0:_ZNK14D868UVCodeplug22GeneralSettingsElement8vfoModeBEv
libdmrconf.so.0:_ZNK14D868UVCodeplug22GeneralSettingsElement8voxDelayEv
libdmrconf.so.0:_ZNK14D868UVCodeplug22GeneralSettingsElement8voxLevelEv
libdmrconf.so.0:_ZNK14D868UVCodeplug22GeneralSettingsElement9callAlertEv
libdmrconf.so.0:_ZNK14D868UVCodeplug22GeneralSettingsElement9powerSaveEv
libdmrconf.so.0:_ZNK14D868UVCodeplug22GeneralSettingsElement9recordingEv
libdmrconf.so.0:_ZNK14D868UVCodeplug22GeneralSettingsElement9voxSourceEv
libdmrconf.so.0:_ZNK14D878UVCodeplug10metaObjectEv
libdmrconf.so.0:_ZNK14D878UVCodeplug14ChannelElement12pttIDSettingEv
libdmrconf.so.0:_ZNK14D878UVCodeplug14ChannelElement12toChannelObjERN8Codeplug7ContextE
libdmrconf.so.0:_ZNK14D878UVCodeplug14ChannelElement12txAnalogAPRSEv
libdmrconf.so.0:_ZNK14D878UVCodeplug14ChannelElement13txDigitalAPRSEv
libdmrconf.so.0:_ZNK14D878UVCodeplug14ChannelElement14linkChannelObjEP7ChannelRN8Codeplug7ContextE
libdmrconf.so.0:_ZNK14D878UVCodeplug14ChannelElement14roamingEnabledEv
libdmrconf.so.0:_ZNK14D878UVCodeplug14ChannelElement18frequenyCorrectionEv
libdmrconf.so.0:_ZNK14D878UVCodeplug14ChannelElement20analogAPRSPTTSettingEv
libdmrconf.so.0:_ZNK14D878UVCodeplug14ChannelElement20fmAPRSFrequencyIndexEv
libdmrconf.so.0:_ZNK14D878UVCodeplug14ChannelElement21digitalAPRSPTTSettingEv
libdmrconf.so.0:_ZNK14D878UVCodeplug14ChannelElement22digitalAPRSSystemIndexEv
libdmrconf.so.0:_ZNK14D878UVCodeplug14ChannelElement7dataACKEv
libdmrconf.so.0:_ZNK14D878UVCodeplug16RadioInfoElement10bandSelectEv
libdmrconf.so.0:_ZNK14D878UVCodeplug16RadioInfoElement10dealerCodeEv
libdmrconf.so.0:_ZNK14D878UVCodeplug16RadioInfoElement12serialNumberEv
libdmrconf.so.0:_ZNK14D878UVCodeplug16RadioInfoElement13internationalEv
libdmrconf.so.0:_ZNK14D878UVCodeplug16RadioInfoElement14frequencyRangeEv
libdmrconf.so.0:_ZNK14D878UVCodeplug16RadioInfoElement14maintainedDateEv
libdmrconf.so.0:_ZNK14D878UVCodeplug16RadioInfoElement14maintainerNoteEv
libdmrconf.so.0:_ZNK14D878UVCodeplug16RadioInfoElement14productionDateEv
libdmrconf.so.0:_ZNK14D878UVCodeplug16RadioInfoElement15programPasswordEv
libdmrconf.so.0:_ZNK14D878UVCodeplug16RadioInfoElement16manufacturerCodeEv
libdmrconf.so.0:_ZNK14D878UVCodeplug16RadioInfoElement18bandSelectPasswordEv
libdmrconf.so.0:_ZNK14D878UVCodeplug16RadioInfoElement6sellerEv
libdmrconf.so.0:_ZNK14D878UVCodeplug16RadioInfoElement8areaCodeEv
libdmrconf.so.0:_ZNK14D878UVCodeplug16RadioInfoElement8fullTestEv
libdmrconf.so.0:_ZNK14D878UVCodeplug16RadioInfoElement8sellDateEv
libdmrconf.so.0:_ZNK14D878UVCodeplug16RadioInfoElement9radioTypeEv
libdmrconf.so.0:_ZNK14D878UVCodeplug16RadioInfoElement9stockDateEv
libdmrconf.so.0:_ZNK14D878UVCodeplug18RoamingZoneElement13toRoamingZoneERN8Codeplug7ContextERK10ErrorStack
libdmrconf.so.0:_ZNK14D878UVCodeplug18RoamingZoneElement4nameEv
libdmrconf.so.0:_ZNK14D878UVCodeplug18RoamingZoneElement6memberEj
libdmrconf.so.0:_ZNK14D878UVCodeplug18RoamingZoneElement9hasMemberEj
libdmrconf.so.0:_ZNK14D878UVCodeplug19APRSSettingsElement10dmrRoamingEv
libdmrconf.so.0:_ZNK14D878UVCodeplug19APRSSettingsElement10reportItemEv
libdmrconf.so.0:_ZNK14D878UVCodeplug19APRSSettingsElement10reportMicEEv
libdmrconf.so.0:_ZNK14D878UVCodeplug19APRSSettingsElement10reportNMEAEv
libdmrconf.so.0:_ZNK14D878UVCodeplug19APRSSettingsElement10sourceSSIDEv
libdmrconf.so.0:_ZNK14D878UVCodeplug19APRSSettingsElement11destinationEv
libdmrconf.so.0:_ZNK14D878UVCodeplug19APRSSettingsElement11displayTimeEv
libdmrconf.so.0:_ZNK14D878UVCodeplug19APRSSettingsElement11dmrCallTypeEj
libdmrconf.so.0:_ZNK14D878UVCodeplug19APRSSettingsElement11dmrTimeSlotEj
libdmrconf.so.0:_ZNK14D878UVCodeplug19APRSSettingsElement11fmFrequencyEj
libdmrconf.so.0:_ZNK14D878UVCodeplug19APRSSettingsElement11reportOtherEv
libdmrconf.so.0:_ZNK14D878UVCodeplug19APRSSettingsElement12reportObjectEv
libdmrconf.so.0:_ZNK14D878UVCodeplug19APRSSettingsElement12reportStatusEv
libdmrconf.so.0:_ZNK14D878UVCodeplug19APRSSettingsElement13fixedLocationEv
libdmrconf.so.0:_ZNK14D878UVCodeplug19APRSSettingsElement13reportMessageEv
libdmrconf.so.0:_ZNK14D878UVCodeplug19APRSSettingsElement13reportWeatherEv
libdmrconf.so.0:_ZNK14D878UVCodeplug19APRSSettingsElement14autoTXIntervalEv
libdmrconf.so.0:_ZNK14D878UVCodeplug19APRSSettingsElement14dmrDestinationEj
libdmrconf.so.0:_ZNK14D878UVCodeplug19APRSSettingsElement14fmChannelWidthEv
libdmrconf.so.0:_ZNK14D878UVCodeplug19APRSSettingsElement14fmFrequencySetEj
libdmrconf.so.0:_ZNK14D878UVCodeplug19APRSSettingsElement14fmPreWaveDelayEv
libdmrconf.so.0:_ZNK14D878UVCodeplug19APRSSettingsElement14reportPositionEv
libdmrconf.so.0:_ZNK14D878UVCodeplug19APRSSettingsElement15destinationSSIDEv
libdmrconf.so.0:_ZNK14D878UVCodeplug19APRSSettingsElement15dmrChannelIndexEj
libdmrconf.so.0:_ZNK14D878UVCodeplug19APRSSettingsElement15dmrPreWaveDelayEv
libdmrconf.so.0:_ZNK14D878UVCodeplug19APRSSettingsElement16manualTXIntervalEv
libdmrconf.so.0:_ZNK14D878UVCodeplug19APRSSettingsElement17linkDMRAPRSSystemEiP9GPSSystemRN8Codeplug7ContextE
libdmrconf.so.0:_ZNK14D878UVCodeplug19APRSSettingsElement18toDMRAPRSSystemObjEi
libdmrconf.so.0:_ZNK14D878UVCodeplug19APRSSettingsElement19infiniteDisplayTimeEv
libdmrconf.so.0:_ZNK14D878UVCodeplug19APRSSettingsElement20dmrChannelIsSelectedEj
libdmrconf.so.0:_ZNK14D878UVCodeplug19APRSSettingsElement20fixedLocationEnabledEv
libdmrconf.so.0:_ZNK14D878UVCodeplug19APRSSettingsElement4iconEv
libdmrconf.so.0:_ZNK14D878UVCodeplug19APRSSettingsElement4pathEv
libdmrconf.so.0:_ZNK14D878UVCodeplug19APRSSettingsElement5powerEv
libdmrconf.so.0:_ZNK14D878UVCodeplug19APRSSettingsElement6autoTXEv
libdmrconf.so.0:_ZNK14D878UVCodeplug19APRSSettingsElement6sourceEv
libdmrconf.so.0:_ZNK14D878UVCodeplug19APRSSettingsElement6txToneEv
libdmrconf.so.0:_ZNK14D878UVCodeplug19APRSSettingsElement7isValidEv
libdmrconf.so.0:_ZNK14D878UVCodeplug19APRSSettingsElement9fmPassAllEv
libdmrconf.so.0:_ZNK14D878UVCodeplug19APRSSettingsElement9fmTXDelayEv
libdmrconf.so.0:_ZNK14D878UVCodeplug21RoamingChannelElement11rxFrequencyEv
libdmrconf.so.0:_ZNK14D878UVCodeplug21RoamingChannelElement11txFrequencyEv
libdmrconf.so.0:_ZNK14D878UVCodeplug21RoamingChannelElement12hasColorCodeEv
libdmrconf.so.0:_ZNK14D878UVCodeplug21RoamingChannelElement4nameEv
libdmrconf.so.0:_ZNK14D878UVCodeplug21RoamingChannelElement8timeSlotEv
libdmrconf.so.0:_ZNK14D878UVCodeplug21RoamingChannelElement9colorCodeEv
libdmrconf.so.0:_ZNK14D878UVCodeplug22GeneralSettingsElement10btHoldTimeEv
libdmrconf.so.0:_ZNK14D878UVCodeplug22GeneralSettingsElement10fmCallHoldEv
libdmrconf.so.0:_ZNK14D878UVCodeplug22GeneralSettingsElement10keypadLockEv
libdmrconf.so.0:_ZNK14D878UVCodeplug22GeneralSettingsElement10wfmMonitorEv
libdmrconf.so.0:_ZNK14D878UVCodeplug22GeneralSettingsElement11filterOwnIDEv
libdmrconf.so.0:_ZNK14D878UVCodeplug22GeneralSettingsElement11gpsTimeZoneEv
libdmrconf.so.0:_ZNK14D878UVCodeplug22GeneralSettingsElement12bootGPSCheckEv
libdmrconf.so.0:_ZNK14D878UVCodeplug22GeneralSettingsElement12funcKey1LongEv
libdmrconf.so.0:_ZNK14D878UVCodeplug22GeneralSettingsElement12funcKey2LongEv
libdmrconf.so.0:_ZNK14D878UVCodeplug22GeneralSettingsElement12funcKeyALongEv
libdmrconf.so.0:_ZNK14D878UVCodeplug22GeneralSettingsElement12funcKeyBLongEv
libdmrconf.so.0:_ZNK14D878UVCodeplug22GeneralSettingsElement12funcKeyCLongEv
libdmrconf.so.0:_ZNK14D878UVCodeplug22GeneralSettingsElement12keyToneLevelEv
libdmrconf.so.0:_ZNK14D878UVCodeplug22GeneralSettingsElement12manDownDelayEv
libdmrconf.so.0:_ZNK14D878UVCodeplug22GeneralSettingsElement12preWaveDelayEv
libdmrconf.so.0:_ZNK14D878UVCodeplug22GeneralSettingsElement12sidekeysLockEv
libdmrconf.so.0:_ZNK14D878UVCodeplug22GeneralSettingsElement12steFrequencyEv
libdmrconf.so.0:_ZNK14D878UVCodeplug22GeneralSettingsElement13autoRoamDelayEv
libdmrconf.so.0:_ZNK14D878UVCodeplug22GeneralSettingsElement13btSpeakerGainEv
libdmrconf.so.0:_ZNK14D878UVCodeplug22GeneralSettingsElement13funcKey1ShortEv
libdmrconf.so.0:_ZNK14D878UVCodeplug22GeneralSettingsElement13funcKey2ShortEv
libdmrconf.so.0:_ZNK14D878UVCodeplug22GeneralSettingsElement13funcKeyAShortEv
libdmrconf.so.0:_ZNK14D878UVCodeplug22GeneralSettingsElement13funcKeyBShortEv
libdmrconf.so.0:_ZNK14D878UVCodeplug22GeneralSettingsElement13funcKeyCShortEv
libdmrconf.so.0:_ZNK14D878UVCodeplug22GeneralSettingsElement13keyLockForcedEv
libdmrconf.so.0:_ZNK14D878UVCodeplug22GeneralSettingsElement13pluginRecToneEv
libdmrconf.so.0:_ZNK14D878UVCodeplug22GeneralSettingsElement13remoteMonitorEv
libdmrconf.so.0:_ZNK14D878UVCodeplug22GeneralSettingsElement13showLastHeardEv
libdmrconf.so.0:_ZNK14D878UVCodeplug22GeneralSettingsElement13tbstFrequencyEv
libdmrconf.so.0:_ZNK14D878UVCodeplug22GeneralSettingsElement13wfmVFOEnabledEv
libdmrconf.so.0:_ZNK14D878UVCodeplug22GeneralSettingsElement14autoRoamPeriodEv
libdmrconf.so.0:_ZNK14D878UVCodeplug22GeneralSettingsElement14defaultChannelEv
libdmrconf.so.0:_ZNK14D878UVCodeplug22GeneralSettingsElement14keepLastCallerEv
libdmrconf.so.0:_ZNK14D878UVCodeplug22GeneralSettingsElement14monitorIDMatchEv
libdmrconf.so.0:_ZNK14D878UVCodeplug22GeneralSettingsElement14remoteStunKillEv
libdmrconf.so.0:_ZNK14D878UVCodeplug22GeneralSettingsElement14wakeHeadPeriodEv
libdmrconf.so.0:_ZNK14D878UVCodeplug22GeneralSettingsElement15gpsUpdatePeriodEv
libdmrconf.so.0:_ZNK14D878UVCodeplug22GeneralSettingsElement15separateDisplayEv
libdmrconf.so.0:_ZNK14D878UVCodeplug22GeneralSettingsElement15transmitTimeoutEv
libdmrconf.so.0:_ZNK14D878UVCodeplug22GeneralSettingsElement15wfmChannelIndexEv
libdmrconf.so.0:_ZNK14D878UVCodeplug22GeneralSettingsElement16btAndInternalMicEv
libdmrconf.so.0:_ZNK14D878UVCodeplug22GeneralSettingsElement16callDisplayColorEv
libdmrconf.so.0:_ZNK14D878UVCodeplug22GeneralSettingsElement16channelNameColorEv
libdmrconf.so.0:_ZNK14D878UVCodeplug22GeneralSettingsElement16dtmfToneDurationEv
libdmrconf.so.0:_ZNK14D878UVCodeplug22GeneralSettingsElement16gpsUnitsImperialEv
libdmrconf.so.0:_ZNK14D878UVCodeplug22GeneralSettingsElement16monitorSlotMatchEv
libdmrconf.so.0:_ZNK14D878UVCodeplug22GeneralSettingsElement16standbyTextColorEv
libdmrconf.so.0:_ZNK14D878UVCodeplug22GeneralSettingsElement16vfoFrequencyStepEv
libdmrconf.so.0:_ZNK14D878UVCodeplug22GeneralSettingsElement17btHoldTimeEnabledEv
libdmrconf.so.0:_ZNK14D878UVCodeplug22GeneralSettingsElement17defaultZoneIndexAEv
libdmrconf.so.0:_ZNK14D878UVCodeplug22GeneralSettingsElement17defaultZoneIndexBEv
libdmrconf.so.0:_ZNK14D878UVCodeplug22GeneralSettingsElement17gpsMessageEnabledEv
libdmrconf.so.0:_ZNK14D878UVCodeplug22GeneralSettingsElement17groupCallHangTimeEv
libdmrconf.so.0:_ZNK14D878UVCodeplug22GeneralSettingsElement18btHoldTimeInfiniteEv
libdmrconf.so.0:_ZNK14D878UVCodeplug22GeneralSettingsElement18fmSendIDAndContactEv
libdmrconf.so.0:_ZNK14D878UVCodeplug22GeneralSettingsElement18priorityZoneAIndexEv
libdmrconf.so.0:_ZNK14D878UVCodeplug22GeneralSettingsElement18priorityZoneBIndexEv
libdmrconf.so.0:_ZNK14D878UVCodeplug22GeneralSettingsElement18repeaterRangeCheckEv
libdmrconf.so.0:_ZNK14D878UVCodeplug22GeneralSettingsElement18showCurrentContactEv
libdmrconf.so.0:_ZNK14D878UVCodeplug22GeneralSettingsElement19maintainCallChannelEv
libdmrconf.so.0:_ZNK14D878UVCodeplug22GeneralSettingsElement19monitorTimeSlotHoldEv
libdmrconf.so.0:_ZNK14D878UVCodeplug22GeneralSettingsElement19privateCallHangTimeEv
libdmrconf.so.0:_ZNK14D878UVCodeplug22GeneralSettingsElement19rxBacklightDurationEv
libdmrconf.so.0:_ZNK14D878UVCodeplug22GeneralSettingsElement19txBacklightDurationEv
libdmrconf.so.0:_ZNK14D878UVCodeplug22GeneralSettingsElement20btAndInternalSpeakerEv
libdmrconf.so.0:_ZNK14D878UVCodeplug22GeneralSettingsElement20defaultChannelAIndexEv
libdmrconf.so.0:_ZNK14D878UVCodeplug22GeneralSettingsElement20defaultChannelAIsVFOEv
libdmrconf.so.0:_ZNK14D878UVCodeplug22GeneralSettingsElement20defaultChannelBIndexEv
libdmrconf.so.0:_ZNK14D878UVCodeplug22GeneralSettingsElement20defaultChannelBIsVFOEv
libdmrconf.so.0:_ZNK14D878UVCodeplug22GeneralSettingsElement20displayChannelNumberEv
libdmrconf.so.0:_ZNK14D878UVCodeplug22GeneralSettingsElement21monitorColorCodeMatchEv
libdmrconf.so.0:_ZNK14D878UVCodeplug22GeneralSettingsElement21roamingStartConditionEv
libdmrconf.so.0:_ZNK14D878UVCodeplug22GeneralSettingsElement22autoRepeaterDirectionBEv
libdmrconf.so.0:_ZNK14D878UVCodeplug22GeneralSettingsElement22keyToneLevelAdjustableEv
libdmrconf.so.0:_ZNK14D878UVCodeplug22GeneralSettingsElement22standbyBackgroundImageEv
libdmrconf.so.0:_ZNK14D878UVCodeplug22GeneralSettingsElement23defaultRoamingZoneIndexEv
libdmrconf.so.0:_ZNK14D878UVCodeplug22GeneralSettingsElement23repeaterRangeCheckCountEv
libdmrconf.so.0:_ZNK14D878UVCodeplug22GeneralSettingsElement25repeaterCheckNotificationEv
libdmrconf.so.0:_ZNK14D878UVCodeplug22GeneralSettingsElement26repeaterRangeCheckIntervalEv
libdmrconf.so.0:_ZNK14D878UVCodeplug22GeneralSettingsElement27autoRepeaterMaxFrequencyUHFEv
libdmrconf.so.0:_ZNK14D878UVCodeplug22GeneralSettingsElement27autoRepeaterMaxFrequencyVHFEv
libdmrconf.so.0:_ZNK14D878UVCodeplug22GeneralSettingsElement27autoRepeaterMinFrequencyUHFEv
libdmrconf.so.0:_ZNK14D878UVCodeplug22GeneralSettingsElement27autoRepeaterMinFrequencyVHFEv
libdmrconf.so.0:_ZNK14D878UVCodeplug22GeneralSettingsElement29repeaterCheckNumNotificationsEv
libdmrconf.so.0:_ZNK14D878UVCodeplug22GeneralSettingsElement7manDownEv
libdmrconf.so.0:_ZNK14D878UVCodeplug22GeneralSettingsElement7proModeEv
libdmrconf.so.0:_ZNK14D878UVCodeplug22GeneralSettingsElement7roamingEv
libdmrconf.so.0:_ZNK14D878UVCodeplug22GeneralSettingsElement7steTypeEv
libdmrconf.so.0:_ZNK14D878UVCodeplug22GeneralSettingsElement8knobLockEv
libdmrconf.so.0:_ZNK14D878UVCodeplug22GeneralSettingsElement8languageEv
libdmrconf.so.0:_ZNK14D878UVCodeplug22GeneralSettingsElement9bluetoothEv
libdmrconf.so.0:_ZNK14D878UVCodeplug22GeneralSettingsElement9bootResetEv
libdmrconf.so.0:_ZNK14D878UVCodeplug22GeneralSettingsElement9btMicGainEv
libdmrconf.so.0:_ZNK14D878UVCodeplug22GeneralSettingsElement9btRXDelayEv
libdmrconf.so.0:_ZNK14D878UVCodeplug22GeneralSettingsElement9muteDelayEv
libdmrconf.so.0:_ZNK14D878UVCodeplug22GeneralSettingsElement9smsFormatEv
libdmrconf.so.0:_ZNK14D878UVCodeplug23AESEncryptionKeyElement3keyEv
libdmrconf.so.0:_ZNK14D878UVCodeplug23AESEncryptionKeyElement5indexEv
libdmrconf.so.0:_ZNK14D878UVCodeplug23AESEncryptionKeyElement7isValidEv
libdmrconf.so.0:_ZNK14D878UVCodeplug23ExtendedSettingsElement10dateFormatEv
libdmrconf.so.0:_ZNK14D878UVCodeplug23ExtendedSettingsElement10encryptionEv
libdmrconf.so.0:_ZNK14D878UVCodeplug23ExtendedSettingsElement10fmIdleToneEv
libdmrconf.so.0:_ZNK14D878UVCodeplug23ExtendedSettingsElement10gpsRoamingEv
libdmrconf.so.0:_ZNK14D878UVCodeplug23ExtendedSettingsElement11steDurationEv
libdmrconf.so.0:_ZNK14D878UVCodeplug23ExtendedSettingsElement12showTimeSlotEv
libdmrconf.so.0:_ZNK14D878UVCodeplug23ExtendedSettingsElement13showColorCodeEv
libdmrconf.so.0:_ZNK14D878UVCodeplug23ExtendedSettingsElement14zoneANameColorEv
libdmrconf.so.0:_ZNK14D878UVCodeplug23ExtendedSettingsElement14zoneBNameColorEv
libdmrconf.so.0:_ZNK14D878UVCodeplug23ExtendedSettingsElement15sendTalkerAliasEv
libdmrconf.so.0:_ZNK14D878UVCodeplug23ExtendedSettingsElement15showChannelTypeEv
libdmrconf.so.0:_ZNK14D878UVCodeplug23ExtendedSettingsElement15totNotificationEv
libdmrconf.so.0:_ZNK14D878UVCodeplug23ExtendedSettingsElement17allCallToneMelodyER6Melody
libdmrconf.so.0:_ZNK14D878UVCodeplug23ExtendedSettingsElement17bluetoothPTTLatchEv
libdmrconf.so.0:_ZNK14D878UVCodeplug23ExtendedSettingsElement17callEndToneMelodyER6Melody
libdmrconf.so.0:_ZNK14D878UVCodeplug23ExtendedSettingsElement17channelBNameColorEv
libdmrconf.so.0:_ZNK14D878UVCodeplug23ExtendedSettingsElement17talkerAliasSourceEv
libdmrconf.so.0:_ZNK14D878UVCodeplug23ExtendedSettingsElement19talkerAliasEncodingEv
libdmrconf.so.0:_ZNK14D878UVCodeplug23ExtendedSettingsElement22bluetoothPTTSleepDelayEv
libdmrconf.so.0:_ZNK14D878UVCodeplug23ExtendedSettingsElement23resetAutoShutdownOnCallEv
libdmrconf.so.0:_ZNK14D878UVCodeplug23ExtendedSettingsElement24manDialGroupCallHangTimeEv
libdmrconf.so.0:_ZNK14D878UVCodeplug23ExtendedSettingsElement26manDialPrivateCallHangTimeEv
libdmrconf.so.0:_ZNK14D878UVCodeplug23ExtendedSettingsElement27autoRepeaterUHF2OffsetIndexEv
libdmrconf.so.0:_ZNK14D878UVCodeplug23ExtendedSettingsElement27autoRepeaterVHF2OffsetIndexEv
libdmrconf.so.0:_ZNK14D878UVCodeplug23ExtendedSettingsElement28autoRepeaterUHF2MaxFrequencyEv
libdmrconf.so.0:_ZNK14D878UVCodeplug23ExtendedSettingsElement28autoRepeaterUHF2MinFrequencyEv
libdmrconf.so.0:_ZNK14D878UVCodeplug23ExtendedSettingsElement28autoRepeaterVHF2MaxFrequencyEv
libdmrconf.so.0:_ZNK14D878UVCodeplug23ExtendedSettingsElement28autoRepeaterVHF2MinFrequencyEv
libdmrconf.so.0:_ZNK14D878UVCodeplug23ExtendedSettingsElement30hasAutoRepeaterUHF2OffsetIndexEv
libdmrconf.so.0:_ZNK14D878UVCodeplug23ExtendedSettingsElement30hasAutoRepeaterVHF2OffsetIndexEv
libdmrconf.so.0:_ZNK14D878UVCodeplug23ExtendedSettingsElement30infiniteBluetoothPTTSleepDelayEv
libdmrconf.so.0:_ZNK14D878UVCodeplug23ExtendedSettingsElement32infiniteManDialGroupCallHangTimeEv
libdmrconf.so.0:_ZNK14D878UVCodeplug23ExtendedSettingsElement34infiniteManDialPrivateCallHangTimeEv
libdmrconf.so.0:_ZNK14D878UVCodeplug23ExtendedSettingsElement4atpcEv
libdmrconf.so.0:_ZNK14D878UVCodeplug23ExtendedSettingsElement7gpsModeEv
libdmrconf.so.0:_ZNK14D878UVCodeplug23ExtendedSettingsElement9fmMicGainEv
libdmrconf.so.0:_ZNK14D878UVCodeplug24AnalogAPRSMessageElement7messageEv
libdmrconf.so.0:_ZNK14D878UVCodeplug24AnalogAPRSRXEntryElement4callEv
libdmrconf.so.0:_ZNK14D878UVCodeplug24AnalogAPRSRXEntryElement4ssidEv
libdmrconf.so.0:_ZNK14D878UVCodeplug24AnalogAPRSRXEntryElement7isValidEv
libdmrconf.so.0:_ZNK14D878UVCodeplug27FMAPRSFrequencyNamesElement4nameEj
libdmrconf.so.0:_ZNK14DM1701Codeplug10metaObjectEv
libdmrconf.so.0:_ZNK14DM1701Codeplug14ChannelElement12reverseBurstEv
libdmrconf.so.0:_ZNK14DM1701Codeplug14ChannelElement12toChannelObjERK10ErrorStack
libdmrconf.so.0:_ZNK14DM1701Codeplug14ChannelElement19tightSquelchEnabledEv
libdmrconf.so.0:_ZNK14DM1701Codeplug14ChannelElement5powerEv
libdmrconf.so.0:_ZNK14DM1701Codeplug14ZoneExtElement12memberIndexAEj
libdmrconf.so.0:_ZNK14DM1701Codeplug14ZoneExtElement12memberIndexBEj
libdmrconf.so.0:_ZNK14DM1701Codeplug17VFOChannelElement4nameEv
libdmrconf.so.0:_ZNK14DM1701Codeplug17VFOChannelElement8stepSizeEv
libdmrconf.so.0:_ZNK14DM1701Codeplug21ButtonSettingsElement15progButton1LongEv
libdmrconf.so.0:_ZNK14DM1701Codeplug21ButtonSettingsElement15progButton2LongEv
libdmrconf.so.0:_ZNK14DM1701Codeplug21ButtonSettingsElement15sideButton3LongEv
libdmrconf.so.0:_ZNK14DM1701Codeplug21ButtonSettingsElement16progButton1ShortEv
libdmrconf.so.0:_ZNK14DM1701Codeplug21ButtonSettingsElement16progButton2ShortEv
libdmrconf.so.0:_ZNK14DM1701Codeplug21ButtonSettingsElement16sideButton3ShortEv
libdmrconf.so.0:_ZNK14DM1701Codeplug22GeneralSettingsElement11channelModeEv
libdmrconf.so.0:_ZNK14DM1701Codeplug22GeneralSettingsElement12channelModeAEv
libdmrconf.so.0:_ZNK14DM1701Codeplug22GeneralSettingsElement12channelModeBEv
libdmrconf.so.0:_ZNK14DM1701Codeplug22GeneralSettingsElement14groupCallMatchEv
libdmrconf.so.0:_ZNK14DM1701Codeplug22GeneralSettingsElement15channelHangTimeEv
libdmrconf.so.0:_ZNK14DM1701Codeplug22GeneralSettingsElement16privateCallMatchEv
libdmrconf.so.0:_ZNK14DM1701Codeplug22GeneralSettingsElement8timeZoneEv
libdmrconf.so.0:_ZNK14DMR6X2UVLimits10metaObjectEv
libdmrconf.so.0:_ZNK14DR1801UVLimits10metaObjectEv
libdmrconf.so.0:_ZNK14DefaultRadioID10metaObjectEv
libdmrconf.so.0:_ZNK14DigitalChannel10metaObjectEv
libdmrconf.so.0:_ZNK14DigitalContact10metaObjectEv
libdmrconf.so.0:_ZNK14EncryptionKeys10metaObjectEv
libdmrconf.so.0:_ZNK14EncryptionKeys3keyEi
libdmrconf.so.0:_ZNK14FileLogHandler10metaObjectEv
libdmrconf.so.0:_ZNK14FileLogHandler8minLevelEv
libdmrconf.so.0:_ZNK14GD77CallsignDB10metaObjectEv
libdmrconf.so.0:_ZNK14GD77CallsignDB14userdb_entry_t7getNameEv
libdmrconf.so.0:_ZNK14GD77CallsignDB14userdb_entry_t9getNumberEv
libdmrconf.so.0:_ZNK14MD2017Codeplug10metaObjectEv
libdmrconf.so.0:_ZNK14MD2017Codeplug14ContactElement7isValidEv
libdmrconf.so.0:_ZNK14OpenGD77Limits10metaObjectEv
libdmrconf.so.0:_ZNK14RadioLimitBool10metaObjectEv
libdmrconf.so.0:_ZNK14RadioLimitBool6verifyEPK10ConfigItemRK13QMetaPropertyR17RadioLimitContext
libdmrconf.so.0:_ZNK14RadioLimitEnum10metaObjectEv
libdmrconf.so.0:_ZNK14RadioLimitEnum6verifyEPK10ConfigItemRK13QMetaPropertyR17RadioLimitContext
libdmrconf.so.0:_ZNK14RadioLimitItem10metaObjectEv
libdmrconf.so.0:_ZNK14RadioLimitItem10verifyItemEPK10ConfigItemR17RadioLimitContext
libdmrconf.so.0:_ZNK14RadioLimitItem6verifyEPK10ConfigItemRK13QMetaPropertyR17RadioLimitContext
libdmrconf.so.0:_ZNK14RadioLimitList10metaObjectEv
libdmrconf.so.0:_ZNK14RadioLimitList13findClassNameERK11QMetaObject
libdmrconf.so.0:_ZNK14RadioLimitList6verifyEPK10ConfigItemRK13QMetaPropertyR17RadioLimitContext
libdmrconf.so.0:_ZNK14RadioLimitUInt10metaObjectEv
libdmrconf.so.0:_ZNK14RadioLimitUInt6verifyEPK10ConfigItemRK13QMetaPropertyR17RadioLimitContext
libdmrconf.so.0:_ZNK14RoamingChannel10metaObjectEv
libdmrconf.so.0:_ZNK14RoamingChannel11rxFrequencyEv
libdmrconf.so.0:_ZNK14RoamingChannel11txFrequencyEv
libdmrconf.so.0:_ZNK14RoamingChannel18timeSlotOverriddenEv
libdmrconf.so.0:_ZNK14RoamingChannel19colorCodeOverriddenEv
libdmrconf.so.0:_ZNK14RoamingChannel5cloneEv
libdmrconf.so.0:_ZNK14RoamingChannel8timeSlotEv
libdmrconf.so.0:_ZNK14RoamingChannel9colorCodeEv
libdmrconf.so.0:_ZNK15AnytoneCodeplug10metaObjectEv
libdmrconf.so.0:_ZNK15AnytoneCodeplug10preprocessEP6ConfigRK10ErrorStack
libdmrconf.so.0:_ZNK15AnytoneCodeplug11postprocessEP6ConfigRK10ErrorStack
libdmrconf.so.0:_ZNK15AnytoneCodeplug13BitmapElement9isEncodedEj
libdmrconf.so.0:_ZNK15AnytoneCodeplug13HotKeyElement12contactIndexEv
libdmrconf.so.0:_ZNK15AnytoneCodeplug13HotKeyElement12digiCallTypeEv
libdmrconf.so.0:_ZNK15AnytoneCodeplug13HotKeyElement12messageIndexEv
libdmrconf.so.0:_ZNK15AnytoneCodeplug13HotKeyElement15hasContactIndexEv
libdmrconf.so.0:_ZNK15AnytoneCodeplug13HotKeyElement15hasMessageIndexEv
libdmrconf.so.0:_ZNK15AnytoneCodeplug13HotKeyElement4typeEv
libdmrconf.so.0:_ZNK15AnytoneCodeplug13HotKeyElement8callTypeEv
libdmrconf.so.0:_ZNK15AnytoneCodeplug13HotKeyElement8menuItemEv
libdmrconf.so.0:_ZNK15AnytoneCodeplug13WFMVFOElement9frequencyEv
libdmrconf.so.0:_ZNK15AnytoneCodeplug14ChannelElement10loneWorkerEv
libdmrconf.so.0:_ZNK15AnytoneCodeplug14ChannelElement10smsConfirmEv
libdmrconf.so.0:_ZNK15AnytoneCodeplug14ChannelElement10talkaroundEv
libdmrconf.so.0:_ZNK15AnytoneCodeplug14ChannelElement11callConfirmEv
libdmrconf.so.0:_ZNK15AnytoneCodeplug14ChannelElement11dtmfIDIndexEv
libdmrconf.so.0:_ZNK15AnytoneCodeplug14ChannelElement11rxFrequencyEv
libdmrconf.so.0:_ZNK15AnytoneCodeplug14ChannelElement11simplexTDMAEv
libdmrconf.so.0:_ZNK15AnytoneCodeplug14ChannelElement11squelchModeEv
libdmrconf.so.0:_ZNK15AnytoneCodeplug14ChannelElement11txFrequencyEv
libdmrconf.so.0:_ZNK15AnytoneCodeplug14ChannelElement12adaptiveTDMAEv
libdmrconf.so.0:_ZNK15AnytoneCodeplug14ChannelElement12contactIndexEv
libdmrconf.so.0:_ZNK15AnytoneCodeplug14ChannelElement12radioIDIndexEv
libdmrconf.so.0:_ZNK15AnytoneCodeplug14ChannelElement12repeaterModeEv
libdmrconf.so.0:_ZNK15AnytoneCodeplug14ChannelElement12toChannelObjERN8Codeplug7ContextE
libdmrconf.so.0:_ZNK15AnytoneCodeplug14ChannelElement13scanListIndexEv
libdmrconf.so.0:_ZNK15AnytoneCodeplug14ChannelElement14groupListIndexEv
libdmrconf.so.0:_ZNK15AnytoneCodeplug14ChannelElement14linkChannelObjEP7ChannelRN8Codeplug7ContextE
libdmrconf.so.0:_ZNK15AnytoneCodeplug14ChannelElement14twoToneIDIndexEv
libdmrconf.so.0:_ZNK15AnytoneCodeplug14ChannelElement15fiveToneIDIndexEv
libdmrconf.so.0:_ZNK15AnytoneCodeplug14ChannelElement15rxCTCSSIsCustomEv
libdmrconf.so.0:_ZNK15AnytoneCodeplug14ChannelElement15rxSignalingModeEv
libdmrconf.so.0:_ZNK15AnytoneCodeplug14ChannelElement15txCTCSSIsCustomEv
libdmrconf.so.0:_ZNK15AnytoneCodeplug14ChannelElement15txSignalingModeEv
libdmrconf.so.0:_ZNK15AnytoneCodeplug14ChannelElement16hasScanListIndexEv
libdmrconf.so.0:_ZNK15AnytoneCodeplug14ChannelElement17hasGroupListIndexEv
libdmrconf.so.0:_ZNK15AnytoneCodeplug14ChannelElement17optionalSignalingEv
libdmrconf.so.0:_ZNK15AnytoneCodeplug14ChannelElement18ctcssPhaseReversalEv
libdmrconf.so.0:_ZNK15AnytoneCodeplug14ChannelElement18encryptionKeyIndexEv
libdmrconf.so.0:_ZNK15AnytoneCodeplug14ChannelElement18enhancedEncryptionEv
libdmrconf.so.0:_ZNK15AnytoneCodeplug14ChannelElement18twoToneDecodeIndexEv
libdmrconf.so.0:_ZNK15AnytoneCodeplug14ChannelElement20customCTCSSFrequencyEv
libdmrconf.so.0:_ZNK15AnytoneCodeplug14ChannelElement21hasEncryptionKeyIndexEv
libdmrconf.so.0:_ZNK15AnytoneCodeplug14ChannelElement4modeEv
libdmrconf.so.0:_ZNK15AnytoneCodeplug14ChannelElement4nameEv
libdmrconf.so.0:_ZNK15AnytoneCodeplug14ChannelElement5admitEv
libdmrconf.so.0:_ZNK15AnytoneCodeplug14ChannelElement5powerEv
libdmrconf.so.0:_ZNK15AnytoneCodeplug14ChannelElement5rxDCSEv
libdmrconf.so.0:_ZNK15AnytoneCodeplug14ChannelElement5txDCSEv
libdmrconf.so.0:_ZNK15AnytoneCodeplug14ChannelElement6rxAPRSEv
libdmrconf.so.0:_ZNK15AnytoneCodeplug14ChannelElement6rxOnlyEv
libdmrconf.so.0:_ZNK15AnytoneCodeplug14ChannelElement6rxToneEv
libdmrconf.so.0:_ZNK15AnytoneCodeplug14ChannelElement6txToneEv
libdmrconf.so.0:_ZNK15AnytoneCodeplug14ChannelElement7rxCTCSSEv
libdmrconf.so.0:_ZNK15AnytoneCodeplug14ChannelElement7txCTCSSEv
libdmrconf.so.0:_ZNK15AnytoneCodeplug14ChannelElement8timeSlotEv
libdmrconf.so.0:_ZNK15AnytoneCodeplug14ChannelElement8txOffsetEv
libdmrconf.so.0:_ZNK15AnytoneCodeplug14ChannelElement9bandwidthEv
libdmrconf.so.0:_ZNK15AnytoneCodeplug14ChannelElement9colorCodeEv
libdmrconf.so.0:_ZNK15AnytoneCodeplug14ContactElement12toContactObjERN8Codeplug7ContextE
libdmrconf.so.0:_ZNK15AnytoneCodeplug14ContactElement4nameEv
libdmrconf.so.0:_ZNK15AnytoneCodeplug14ContactElement4typeEv
libdmrconf.so.0:_ZNK15AnytoneCodeplug14ContactElement6numberEv
libdmrconf.so.0:_ZNK15AnytoneCodeplug14ContactElement7isValidEv
libdmrconf.so.0:_ZNK15AnytoneCodeplug14ContactElement9alertTypeEv
libdmrconf.so.0:_ZNK15AnytoneCodeplug14MessageElement7messageEv
